	.attribute	4, 16
	.attribute	5, "rv64i2p1_m2p0_a2p1_f2p2_d2p2_c2p0_v1p0_zicsr2p0_zifencei2p0_zmmul1p0_zaamo1p0_zalrsc1p0_zfh1p0_zfhmin1p0_zca1p0_zcd1p0_zve32f1p0_zve32x1p0_zve64d1p0_zve64f1p0_zve64x1p0_zvfh1p0_zvfhmin1p0_zvl128b1p0_zvl32b1p0_zvl64b1p0"
	.file	"test.c"
	.file	0 "/mnt/d/riscv-dnn/test/comb_inst/RVV_add" "test.c" md5 0x8ea34313dbacb929d98824828aea48c0
	.file	1 "/home/xl2025/opt/riscv/riscv64-unknown-elf/include/machine" "_default_types.h" md5 0xf7024d0682a918b41f94e8be9cd90461
	.file	2 "." "uart.c" md5 0xeb53b0e97dbae1c08380e9b8909e1d25
	.text
	.hidden	write_reg_u8                    # -- Begin function write_reg_u8
	.globl	write_reg_u8
	.p2align	1
	.type	write_reg_u8,@function
write_reg_u8:                           # @write_reg_u8
.Lfunc_begin0:
	.cfi_sections .debug_frame
	.cfi_startproc
# %bb.0:
	#DEBUG_VALUE: write_reg_u8:addr <- $x10
	#DEBUG_VALUE: write_reg_u8:value <- $x11
	#DEBUG_VALUE: write_reg_u8:loc_addr <- $x10
	.loc	2 10 15 prologue_end            # ./uart.c:10:15
	sb	a1, 0(a0)
	.loc	2 11 1                          # ./uart.c:11:1
	ret
.Ltmp0:
.Lfunc_end0:
	.size	write_reg_u8, .Lfunc_end0-write_reg_u8
	.cfi_endproc
                                        # -- End function
	.hidden	read_reg_u8                     # -- Begin function read_reg_u8
	.globl	read_reg_u8
	.p2align	1
	.type	read_reg_u8,@function
read_reg_u8:                            # @read_reg_u8
.Lfunc_begin1:
	.cfi_startproc
# %bb.0:
	#DEBUG_VALUE: read_reg_u8:addr <- $x10
	.loc	2 15 12 prologue_end            # ./uart.c:15:12
	lbu	a0, 0(a0)
.Ltmp1:
	.loc	2 15 5 is_stmt 0                # ./uart.c:15:5
	ret
.Ltmp2:
.Lfunc_end1:
	.size	read_reg_u8, .Lfunc_end1-read_reg_u8
	.cfi_endproc
                                        # -- End function
	.hidden	is_transmit_empty               # -- Begin function is_transmit_empty
	.globl	is_transmit_empty
	.p2align	1
	.type	is_transmit_empty,@function
is_transmit_empty:                      # @is_transmit_empty
.Lfunc_begin2:
	.loc	2 19 0 is_stmt 1                # ./uart.c:19:0
	.cfi_startproc
# %bb.0:
	lui	a0, 65536
.Ltmp3:
	#DEBUG_VALUE: read_reg_u8:addr <- 268435476
	.loc	2 15 12 prologue_end            # ./uart.c:15:12 @[ ./uart.c:20:12 ]
	lbu	a0, 20(a0)
.Ltmp4:
	.loc	2 20 5                          # ./uart.c:20:5
	andi	a0, a0, 32
	ret
.Ltmp5:
.Lfunc_end2:
	.size	is_transmit_empty, .Lfunc_end2-is_transmit_empty
	.cfi_endproc
	.file	3 "/home/xl2025/opt/riscv-llvm/lib/clang/22/include" "stdint.h" md5 0xa47a6a6c7fcbc62776237de6abac9549
                                        # -- End function
	.hidden	is_transmit_empty_altera        # -- Begin function is_transmit_empty_altera
	.globl	is_transmit_empty_altera
	.p2align	1
	.type	is_transmit_empty_altera,@function
is_transmit_empty_altera:               # @is_transmit_empty_altera
.Lfunc_begin3:
	.loc	2 24 0                          # ./uart.c:24:0
	.cfi_startproc
# %bb.0:
	lui	a0, 65536
.Ltmp6:
	#DEBUG_VALUE: read_reg_u8:addr <- 268435463
	.loc	2 15 12 prologue_end            # ./uart.c:15:12 @[ ./uart.c:25:14 ]
	lbu	zero, 7(a0)
.Ltmp7:
	#DEBUG_VALUE: read_reg_u8:addr <- 268435462
	.loc	2 15 12 is_stmt 0               # ./uart.c:15:12 @[ ./uart.c:25:47 ]
	lbu	a0, 6(a0)
.Ltmp8:
	.loc	2 25 5 is_stmt 1                # ./uart.c:25:5
	ret
.Ltmp9:
.Lfunc_end3:
	.size	is_transmit_empty_altera, .Lfunc_end3-is_transmit_empty_altera
	.cfi_endproc
                                        # -- End function
	.hidden	is_receive_empty                # -- Begin function is_receive_empty
	.globl	is_receive_empty
	.p2align	1
	.type	is_receive_empty,@function
is_receive_empty:                       # @is_receive_empty
.Lfunc_begin4:
	.loc	2 29 0                          # ./uart.c:29:0
	.cfi_startproc
# %bb.0:
	lui	a0, 65536
.Ltmp10:
	#DEBUG_VALUE: read_reg_u8:addr <- 268435476
	.loc	2 15 12 prologue_end            # ./uart.c:15:12 @[ ./uart.c:31:18 ]
	lbu	a0, 20(a0)
	not	a0, a0
.Ltmp11:
	.loc	2 31 16                         # ./uart.c:31:16
	andi	a0, a0, 1
	.loc	2 31 9 is_stmt 0                # ./uart.c:31:9
	ret
.Ltmp12:
.Lfunc_end4:
	.size	is_receive_empty, .Lfunc_end4-is_receive_empty
	.cfi_endproc
                                        # -- End function
	.hidden	write_serial                    # -- Begin function write_serial
	.globl	write_serial
	.p2align	1
	.type	write_serial,@function
write_serial:                           # @write_serial
.Lfunc_begin5:
	.loc	2 38 0 is_stmt 1                # ./uart.c:38:0
	.cfi_startproc
# %bb.0:
	#DEBUG_VALUE: write_serial:a <- $x10
	lui	a1, 65536
.Ltmp13:
.LBB5_1:                                # =>This Inner Loop Header: Depth=1
	#DEBUG_VALUE: write_serial:a <- $x10
	#DEBUG_VALUE: read_reg_u8:addr <- 268435476
	.loc	2 15 12 prologue_end            # ./uart.c:15:12 @[ ./uart.c:20:12 @[ ./uart.c:40:16 ] ]
	lbu	a2, 20(a1)
.Ltmp14:
	.loc	2 20 42                         # ./uart.c:20:42 @[ ./uart.c:40:16 ]
	andi	a2, a2, 32
.Ltmp15:
	.loc	2 40 9                          # ./uart.c:40:9
	beqz	a2, .LBB5_1
.Ltmp16:
# %bb.2:
	#DEBUG_VALUE: write_serial:a <- $x10
	.loc	2 0 9 is_stmt 0                 # ./uart.c:0:9
	lui	a1, 65536
.Ltmp17:
	#DEBUG_VALUE: write_reg_u8:addr <- 268435456
	#DEBUG_VALUE: write_reg_u8:value <- $x10
	#DEBUG_VALUE: write_reg_u8:loc_addr <- 268435456
	.loc	2 10 15 is_stmt 1               # ./uart.c:10:15 @[ ./uart.c:44:5 ]
	sb	a0, 0(a1)
.Ltmp18:
	.loc	2 45 1                          # ./uart.c:45:1
	ret
.Ltmp19:
.Lfunc_end5:
	.size	write_serial, .Lfunc_end5-write_serial
	.cfi_endproc
                                        # -- End function
	.hidden	read_serial                     # -- Begin function read_serial
	.globl	read_serial
	.p2align	1
	.type	read_serial,@function
read_serial:                            # @read_serial
.Lfunc_begin6:
	.loc	2 48 0                          # ./uart.c:48:0
	.cfi_startproc
# %bb.0:
	#DEBUG_VALUE: read_serial:res <- $x10
	lui	a1, 65536
.Ltmp20:
	.loc	2 15 12 prologue_end            # ./uart.c:15:12 @[ ./uart.c:31:18 @[ ./uart.c:49:8 ] ]
	lbu	a2, 20(a1)
.Ltmp21:
	.loc	2 31 48 is_stmt 0               # ./uart.c:31:48 @[ ./uart.c:49:8 ]
	andi	a2, a2, 1
.Ltmp22:
	#DEBUG_VALUE: read_reg_u8:addr <- 268435476
	.loc	2 49 8 is_stmt 1                # ./uart.c:49:8
	bnez	a2, .LBB6_2
.Ltmp23:
# %bb.1:
	#DEBUG_VALUE: read_serial:res <- $x10
	.loc	2 0 8 is_stmt 0                 # ./uart.c:0:8
	li	a0, 0
.Ltmp24:
	.loc	2 55 1 is_stmt 1                # ./uart.c:55:1
	ret
.LBB6_2:
.Ltmp25:
	#DEBUG_VALUE: read_serial:res <- $x10
	#DEBUG_VALUE: read_reg_u8:addr <- 268435456
	.loc	2 15 12                         # ./uart.c:15:12 @[ ./uart.c:53:12 ]
	lbu	a1, 0(a1)
.Ltmp26:
	.loc	2 53 10                         # ./uart.c:53:10
	sb	a1, 0(a0)
	li	a0, 1
.Ltmp27:
	.loc	2 55 1                          # ./uart.c:55:1
	ret
.Ltmp28:
.Lfunc_end6:
	.size	read_serial, .Lfunc_end6-read_serial
	.cfi_endproc
                                        # -- End function
	.hidden	init_uart                       # -- Begin function init_uart
	.globl	init_uart
	.p2align	1
	.type	init_uart,@function
init_uart:                              # @init_uart
.Lfunc_begin7:
	.cfi_startproc
# %bb.0:
	#DEBUG_VALUE: init_uart:freq <- $x10
	#DEBUG_VALUE: init_uart:baud <- $x11
	.loc	2 59 37 prologue_end            # ./uart.c:59:37
	slli	a1, a1, 4
.Ltmp29:
	.loc	2 59 29 is_stmt 0               # ./uart.c:59:29
	divuw	a0, a0, a1
.Ltmp30:
	#DEBUG_VALUE: init_uart:divisor <- $x10
	.loc	2 0 29                          # ./uart.c:0:29
	lui	a1, 65536
	li	a2, 128
.Ltmp31:
	#DEBUG_VALUE: write_reg_u8:addr <- 268435460
	#DEBUG_VALUE: write_reg_u8:value <- 0
	#DEBUG_VALUE: write_reg_u8:loc_addr <- 268435460
	.loc	2 10 15 is_stmt 1               # ./uart.c:10:15 @[ ./uart.c:61:5 ]
	sb	zero, 4(a1)
.Ltmp32:
	#DEBUG_VALUE: write_reg_u8:addr <- 268435468
	#DEBUG_VALUE: write_reg_u8:value <- -128
	#DEBUG_VALUE: write_reg_u8:loc_addr <- 268435468
	.loc	2 10 15 is_stmt 0               # ./uart.c:10:15 @[ ./uart.c:62:5 ]
	sb	a2, 12(a1)
	li	a2, 3
.Ltmp33:
	#DEBUG_VALUE: write_reg_u8:addr <- 268435456
	#DEBUG_VALUE: write_reg_u8:loc_addr <- 268435456
	#DEBUG_VALUE: write_reg_u8:value <- $x10
	.loc	2 10 15                         # ./uart.c:10:15 @[ ./uart.c:63:5 ]
	sb	a0, 0(a1)
.Ltmp34:
	.loc	2 64 42                         # ./uart.c:64:42
	srli	a0, a0, 8
.Ltmp35:
	#DEBUG_VALUE: write_reg_u8:addr <- 268435460
	#DEBUG_VALUE: write_reg_u8:loc_addr <- 268435460
	#DEBUG_VALUE: write_reg_u8:value <- $x10
	.loc	2 10 15 is_stmt 1               # ./uart.c:10:15 @[ ./uart.c:64:5 ]
	sb	a0, 4(a1)
	li	a0, 199
.Ltmp36:
	#DEBUG_VALUE: write_reg_u8:addr <- 268435468
	#DEBUG_VALUE: write_reg_u8:value <- 3
	#DEBUG_VALUE: write_reg_u8:loc_addr <- 268435468
	.loc	2 10 15 is_stmt 0               # ./uart.c:10:15 @[ ./uart.c:65:5 ]
	sb	a2, 12(a1)
	li	a2, 32
.Ltmp37:
	#DEBUG_VALUE: write_reg_u8:addr <- 268435464
	#DEBUG_VALUE: write_reg_u8:value <- -57
	#DEBUG_VALUE: write_reg_u8:loc_addr <- 268435464
	.loc	2 10 15                         # ./uart.c:10:15 @[ ./uart.c:66:5 ]
	sb	a0, 8(a1)
.Ltmp38:
	#DEBUG_VALUE: write_reg_u8:addr <- 268435472
	#DEBUG_VALUE: write_reg_u8:value <- 32
	#DEBUG_VALUE: write_reg_u8:loc_addr <- 268435472
	.loc	2 10 15                         # ./uart.c:10:15 @[ ./uart.c:67:5 ]
	sb	a2, 16(a1)
.Ltmp39:
	.loc	2 68 1 is_stmt 1                # ./uart.c:68:1
	ret
.Ltmp40:
.Lfunc_end7:
	.size	init_uart, .Lfunc_end7-init_uart
	.cfi_endproc
                                        # -- End function
	.hidden	print_uart                      # -- Begin function print_uart
	.globl	print_uart
	.p2align	1
	.type	print_uart,@function
print_uart:                             # @print_uart
.Lfunc_begin8:
	.cfi_startproc
# %bb.0:
	#DEBUG_VALUE: print_uart:str <- $x10
	#DEBUG_VALUE: print_uart:cur <- $x10
	.loc	2 73 12 prologue_end            # ./uart.c:73:12
	lbu	a1, 0(a0)
	.loc	2 73 5 is_stmt 0                # ./uart.c:73:5
	beqz	a1, .LBB8_4
.Ltmp41:
# %bb.1:
	#DEBUG_VALUE: print_uart:cur <- $x10
	#DEBUG_VALUE: print_uart:str <- $x10
	.loc	2 0 5                           # ./uart.c:0:5
	lui	a2, 65536
	#DEBUG_VALUE: print_uart:cur <- $x10
.Ltmp42:
.LBB8_2:                                # =>This Inner Loop Header: Depth=1
	#DEBUG_VALUE: print_uart:cur <- $x10
	#DEBUG_VALUE: read_reg_u8:addr <- 268435476
	.loc	2 15 12 is_stmt 1               # ./uart.c:15:12 @[ ./uart.c:20:12 @[ ./uart.c:40:16 @[ ./uart.c:75:9 ] ] ]
	lbu	a3, 20(a2)
.Ltmp43:
	.loc	2 20 42                         # ./uart.c:20:42 @[ ./uart.c:40:16 @[ ./uart.c:75:9 ] ]
	andi	a3, a3, 32
.Ltmp44:
	.loc	2 40 9                          # ./uart.c:40:9 @[ ./uart.c:75:9 ]
	beqz	a3, .LBB8_2
.Ltmp45:
# %bb.3:                                #   in Loop: Header=BB8_2 Depth=1
	#DEBUG_VALUE: print_uart:cur <- $x10
	#DEBUG_VALUE: write_reg_u8:addr <- 268435456
	#DEBUG_VALUE: write_reg_u8:value <- $x11
	#DEBUG_VALUE: write_reg_u8:loc_addr <- 268435456
	.loc	2 10 15                         # ./uart.c:10:15 @[ ./uart.c:44:5 @[ ./uart.c:75:9 ] ]
	sb	a1, 0(a2)
.Ltmp46:
	.loc	2 73 12 is_stmt 0               # ./uart.c:73:12
	lbu	a1, 1(a0)
.Ltmp47:
	.loc	2 76 9 is_stmt 1                # ./uart.c:76:9
	addi	a0, a0, 1
.Ltmp48:
	#DEBUG_VALUE: print_uart:cur <- $x10
	.loc	2 73 5                          # ./uart.c:73:5
	bnez	a1, .LBB8_2
.Ltmp49:
.LBB8_4:
	#DEBUG_VALUE: print_uart:cur <- $x10
	.loc	2 78 1                          # ./uart.c:78:1
	ret
.Ltmp50:
.Lfunc_end8:
	.size	print_uart, .Lfunc_end8-print_uart
	.cfi_endproc
                                        # -- End function
	.hidden	bin_to_hex                      # -- Begin function bin_to_hex
	.globl	bin_to_hex
	.p2align	1
	.type	bin_to_hex,@function
bin_to_hex:                             # @bin_to_hex
.Lfunc_begin9:
	.cfi_startproc
# %bb.0:
	#DEBUG_VALUE: bin_to_hex:inp <- $x10
	#DEBUG_VALUE: bin_to_hex:res <- $x11
	.loc	2 85 14 prologue_end            # ./uart.c:85:14
	andi	a2, a0, 15
.Lpcrel_hi0:
	auipc	a3, %pcrel_hi(bin_to_hex_table)
	addi	a3, a3, %pcrel_lo(.Lpcrel_hi0)
	add	a2, a2, a3
	lbu	a2, 0(a2)
	.loc	2 86 14 is_stmt 0               # ./uart.c:86:14
	srli	a0, a0, 4
.Ltmp51:
	.loc	2 85 12 is_stmt 1               # ./uart.c:85:12
	sb	a2, 1(a1)
	.loc	2 86 14                         # ./uart.c:86:14
	add	a0, a0, a3
	lbu	a0, 0(a0)
	.loc	2 86 12 is_stmt 0               # ./uart.c:86:12
	sb	a0, 0(a1)
	.loc	2 87 5 is_stmt 1                # ./uart.c:87:5
	ret
.Ltmp52:
.Lfunc_end9:
	.size	bin_to_hex, .Lfunc_end9-bin_to_hex
	.cfi_endproc
                                        # -- End function
	.hidden	print_uart_int                  # -- Begin function print_uart_int
	.globl	print_uart_int
	.p2align	1
	.type	print_uart_int,@function
print_uart_int:                         # @print_uart_int
.Lfunc_begin10:
	.loc	2 91 0                          # ./uart.c:91:0
	.cfi_startproc
# %bb.0:
	#DEBUG_VALUE: print_uart_int:addr <- $x10
	li	a4, 3
	lui	a1, 65536
.Ltmp53:
	#DEBUG_VALUE: print_uart_int:i <- 3
.Lpcrel_hi1:
	auipc	a2, %pcrel_hi(bin_to_hex_table)
	addi	a6, a2, %pcrel_lo(.Lpcrel_hi1)
.Ltmp54:
.LBB10_1:                               # =>This Loop Header: Depth=1
                                        #     Child Loop BB10_2 Depth 2
                                        #     Child Loop BB10_4 Depth 2
	#DEBUG_VALUE: print_uart_int:addr <- $x10
	mv	a3, a4
.Ltmp55:
	#DEBUG_VALUE: print_uart_int:i <- $x13
	.loc	2 95 35 prologue_end            # ./uart.c:95:35
	slli	a4, a4, 3
	.loc	2 95 29 is_stmt 0               # ./uart.c:95:29
	srlw	a4, a0, a4
.Ltmp56:
	#DEBUG_VALUE: cur <- $x14
	#DEBUG_VALUE: bin_to_hex:inp <- $x14
	#DEBUG_VALUE: bin_to_hex:res <- undef
	.loc	2 85 35                         # ./uart.c:85:35 @[ ./uart.c:97:9 ]
	andi	a5, a4, 15
	.loc	2 86 36                         # ./uart.c:86:36 @[ ./uart.c:97:9 ]
	slli	a4, a4, 56
.Ltmp57:
	.loc	2 85 14                         # ./uart.c:85:14 @[ ./uart.c:97:9 ]
	add	a5, a5, a6
	.loc	2 86 36                         # ./uart.c:86:36 @[ ./uart.c:97:9 ]
	srli	a4, a4, 60
	.loc	2 86 14                         # ./uart.c:86:14 @[ ./uart.c:97:9 ]
	add	a2, a6, a4
	.loc	2 85 14 is_stmt 1               # ./uart.c:85:14 @[ ./uart.c:97:9 ]
	lbu	a4, 0(a5)
.Ltmp58:
	#DEBUG_VALUE: hex <- [DW_OP_LLVM_fragment 8 8] undef
	.loc	2 86 14                         # ./uart.c:86:14 @[ ./uart.c:97:9 ]
	lbu	a5, 0(a2)
.Ltmp59:
	#DEBUG_VALUE: hex <- [DW_OP_LLVM_fragment 0 8] undef
	#DEBUG_VALUE: write_serial:a <- undef
.LBB10_2:                               #   Parent Loop BB10_1 Depth=1
                                        # =>  This Inner Loop Header: Depth=2
	#DEBUG_VALUE: print_uart_int:i <- $x13
	#DEBUG_VALUE: print_uart_int:addr <- $x10
	#DEBUG_VALUE: read_reg_u8:addr <- 268435476
	.loc	2 15 12                         # ./uart.c:15:12 @[ ./uart.c:20:12 @[ ./uart.c:40:16 @[ ./uart.c:98:9 ] ] ]
	lbu	a2, 20(a1)
.Ltmp60:
	.loc	2 20 42                         # ./uart.c:20:42 @[ ./uart.c:40:16 @[ ./uart.c:98:9 ] ]
	andi	a2, a2, 32
.Ltmp61:
	.loc	2 40 9                          # ./uart.c:40:9 @[ ./uart.c:98:9 ]
	beqz	a2, .LBB10_2
.Ltmp62:
# %bb.3:                                #   in Loop: Header=BB10_1 Depth=1
	#DEBUG_VALUE: print_uart_int:i <- $x13
	#DEBUG_VALUE: print_uart_int:addr <- $x10
	#DEBUG_VALUE: write_reg_u8:addr <- 268435456
	#DEBUG_VALUE: write_reg_u8:value <- $x15
	#DEBUG_VALUE: write_reg_u8:loc_addr <- 268435456
	.loc	2 10 15                         # ./uart.c:10:15 @[ ./uart.c:44:5 @[ ./uart.c:98:9 ] ]
	sb	a5, 0(a1)
.Ltmp63:
	#DEBUG_VALUE: write_serial:a <- $x14
.LBB10_4:                               #   Parent Loop BB10_1 Depth=1
                                        # =>  This Inner Loop Header: Depth=2
	#DEBUG_VALUE: write_serial:a <- $x14
	#DEBUG_VALUE: print_uart_int:i <- $x13
	#DEBUG_VALUE: print_uart_int:addr <- $x10
	#DEBUG_VALUE: read_reg_u8:addr <- 268435476
	.loc	2 15 12                         # ./uart.c:15:12 @[ ./uart.c:20:12 @[ ./uart.c:40:16 @[ ./uart.c:99:9 ] ] ]
	lbu	a2, 20(a1)
.Ltmp64:
	.loc	2 20 42                         # ./uart.c:20:42 @[ ./uart.c:40:16 @[ ./uart.c:99:9 ] ]
	andi	a2, a2, 32
.Ltmp65:
	.loc	2 40 9                          # ./uart.c:40:9 @[ ./uart.c:99:9 ]
	beqz	a2, .LBB10_4
.Ltmp66:
# %bb.5:                                #   in Loop: Header=BB10_1 Depth=1
	#DEBUG_VALUE: write_serial:a <- $x14
	#DEBUG_VALUE: print_uart_int:i <- $x13
	#DEBUG_VALUE: print_uart_int:addr <- $x10
	#DEBUG_VALUE: write_reg_u8:addr <- 268435456
	#DEBUG_VALUE: write_reg_u8:value <- $x14
	#DEBUG_VALUE: write_reg_u8:loc_addr <- 268435456
	.loc	2 10 15                         # ./uart.c:10:15 @[ ./uart.c:44:5 @[ ./uart.c:99:9 ] ]
	sb	a4, 0(a1)
.Ltmp67:
	.loc	2 93 26                         # ./uart.c:93:26
	addiw	a4, a3, -1
.Ltmp68:
	#DEBUG_VALUE: print_uart_int:i <- $x14
	.loc	2 93 5                          # ./uart.c:93:5
	bnez	a3, .LBB10_1
.Ltmp69:
# %bb.6:
	#DEBUG_VALUE: print_uart_int:i <- $x14
	#DEBUG_VALUE: print_uart_int:addr <- $x10
	.loc	2 101 1                         # ./uart.c:101:1
	ret
.Ltmp70:
.Lfunc_end10:
	.size	print_uart_int, .Lfunc_end10-print_uart_int
	.cfi_endproc
                                        # -- End function
	.hidden	print_uart_addr                 # -- Begin function print_uart_addr
	.globl	print_uart_addr
	.p2align	1
	.type	print_uart_addr,@function
print_uart_addr:                        # @print_uart_addr
.Lfunc_begin11:
	.loc	2 104 0                         # ./uart.c:104:0
	.cfi_startproc
# %bb.0:
	#DEBUG_VALUE: print_uart_addr:addr <- $x10
	li	a4, 7
	lui	a1, 65536
.Ltmp71:
	#DEBUG_VALUE: print_uart_addr:i <- 7
.Lpcrel_hi2:
	auipc	a2, %pcrel_hi(bin_to_hex_table)
	addi	a6, a2, %pcrel_lo(.Lpcrel_hi2)
.Ltmp72:
.LBB11_1:                               # =>This Loop Header: Depth=1
                                        #     Child Loop BB11_2 Depth 2
                                        #     Child Loop BB11_4 Depth 2
	#DEBUG_VALUE: print_uart_addr:addr <- $x10
	mv	a3, a4
.Ltmp73:
	#DEBUG_VALUE: print_uart_addr:i <- $x13
	.loc	2 108 35 prologue_end           # ./uart.c:108:35
	slli	a4, a4, 3
	.loc	2 108 29 is_stmt 0              # ./uart.c:108:29
	srl	a4, a0, a4
.Ltmp74:
	#DEBUG_VALUE: cur <- [DW_OP_LLVM_convert 64 7, DW_OP_LLVM_convert 32 7, DW_OP_stack_value] $x14
	#DEBUG_VALUE: bin_to_hex:inp <- [DW_OP_LLVM_convert 64 7, DW_OP_LLVM_convert 32 7, DW_OP_stack_value] $x14
	#DEBUG_VALUE: bin_to_hex:res <- undef
	.loc	2 85 35                         # ./uart.c:85:35 @[ ./uart.c:110:9 ]
	andi	a5, a4, 15
	.loc	2 86 36                         # ./uart.c:86:36 @[ ./uart.c:110:9 ]
	slli	a4, a4, 56
.Ltmp75:
	.loc	2 85 14                         # ./uart.c:85:14 @[ ./uart.c:110:9 ]
	add	a5, a5, a6
	.loc	2 86 36                         # ./uart.c:86:36 @[ ./uart.c:110:9 ]
	srli	a4, a4, 60
	.loc	2 86 14                         # ./uart.c:86:14 @[ ./uart.c:110:9 ]
	add	a2, a6, a4
	.loc	2 85 14 is_stmt 1               # ./uart.c:85:14 @[ ./uart.c:110:9 ]
	lbu	a4, 0(a5)
.Ltmp76:
	#DEBUG_VALUE: hex <- [DW_OP_LLVM_fragment 8 8] undef
	.loc	2 86 14                         # ./uart.c:86:14 @[ ./uart.c:110:9 ]
	lbu	a5, 0(a2)
.Ltmp77:
	#DEBUG_VALUE: hex <- [DW_OP_LLVM_fragment 0 8] undef
	#DEBUG_VALUE: write_serial:a <- undef
.LBB11_2:                               #   Parent Loop BB11_1 Depth=1
                                        # =>  This Inner Loop Header: Depth=2
	#DEBUG_VALUE: print_uart_addr:i <- $x13
	#DEBUG_VALUE: print_uart_addr:addr <- $x10
	#DEBUG_VALUE: read_reg_u8:addr <- 268435476
	.loc	2 15 12                         # ./uart.c:15:12 @[ ./uart.c:20:12 @[ ./uart.c:40:16 @[ ./uart.c:111:9 ] ] ]
	lbu	a2, 20(a1)
.Ltmp78:
	.loc	2 20 42                         # ./uart.c:20:42 @[ ./uart.c:40:16 @[ ./uart.c:111:9 ] ]
	andi	a2, a2, 32
.Ltmp79:
	.loc	2 40 9                          # ./uart.c:40:9 @[ ./uart.c:111:9 ]
	beqz	a2, .LBB11_2
.Ltmp80:
# %bb.3:                                #   in Loop: Header=BB11_1 Depth=1
	#DEBUG_VALUE: print_uart_addr:i <- $x13
	#DEBUG_VALUE: print_uart_addr:addr <- $x10
	#DEBUG_VALUE: write_reg_u8:addr <- 268435456
	#DEBUG_VALUE: write_reg_u8:value <- $x15
	#DEBUG_VALUE: write_reg_u8:loc_addr <- 268435456
	.loc	2 10 15                         # ./uart.c:10:15 @[ ./uart.c:44:5 @[ ./uart.c:111:9 ] ]
	sb	a5, 0(a1)
.Ltmp81:
	#DEBUG_VALUE: write_serial:a <- $x14
.LBB11_4:                               #   Parent Loop BB11_1 Depth=1
                                        # =>  This Inner Loop Header: Depth=2
	#DEBUG_VALUE: write_serial:a <- $x14
	#DEBUG_VALUE: print_uart_addr:i <- $x13
	#DEBUG_VALUE: print_uart_addr:addr <- $x10
	#DEBUG_VALUE: read_reg_u8:addr <- 268435476
	.loc	2 15 12                         # ./uart.c:15:12 @[ ./uart.c:20:12 @[ ./uart.c:40:16 @[ ./uart.c:112:9 ] ] ]
	lbu	a2, 20(a1)
.Ltmp82:
	.loc	2 20 42                         # ./uart.c:20:42 @[ ./uart.c:40:16 @[ ./uart.c:112:9 ] ]
	andi	a2, a2, 32
.Ltmp83:
	.loc	2 40 9                          # ./uart.c:40:9 @[ ./uart.c:112:9 ]
	beqz	a2, .LBB11_4
.Ltmp84:
# %bb.5:                                #   in Loop: Header=BB11_1 Depth=1
	#DEBUG_VALUE: write_serial:a <- $x14
	#DEBUG_VALUE: print_uart_addr:i <- $x13
	#DEBUG_VALUE: print_uart_addr:addr <- $x10
	#DEBUG_VALUE: write_reg_u8:addr <- 268435456
	#DEBUG_VALUE: write_reg_u8:value <- $x14
	#DEBUG_VALUE: write_reg_u8:loc_addr <- 268435456
	.loc	2 10 15                         # ./uart.c:10:15 @[ ./uart.c:44:5 @[ ./uart.c:112:9 ] ]
	sb	a4, 0(a1)
.Ltmp85:
	.loc	2 106 26                        # ./uart.c:106:26
	addi	a4, a3, -1
.Ltmp86:
	#DEBUG_VALUE: print_uart_addr:i <- $x14
	.loc	2 106 5                         # ./uart.c:106:5
	bnez	a3, .LBB11_1
.Ltmp87:
# %bb.6:
	#DEBUG_VALUE: print_uart_addr:i <- $x14
	#DEBUG_VALUE: print_uart_addr:addr <- $x10
	.loc	2 114 1                         # ./uart.c:114:1
	ret
.Ltmp88:
.Lfunc_end11:
	.size	print_uart_addr, .Lfunc_end11-print_uart_addr
	.cfi_endproc
                                        # -- End function
	.hidden	print_uart_byte                 # -- Begin function print_uart_byte
	.globl	print_uart_byte
	.p2align	1
	.type	print_uart_byte,@function
print_uart_byte:                        # @print_uart_byte
.Lfunc_begin12:
	.cfi_startproc
# %bb.0:
	#DEBUG_VALUE: print_uart_byte:byte <- $x10
	#DEBUG_VALUE: bin_to_hex:inp <- $x10
	.loc	2 85 14 prologue_end            # ./uart.c:85:14 @[ ./uart.c:119:5 ]
	andi	a1, a0, 15
.Lpcrel_hi3:
	auipc	a2, %pcrel_hi(bin_to_hex_table)
	.loc	2 86 14 is_stmt 0               # ./uart.c:86:14 @[ ./uart.c:119:5 ]
	srli	a0, a0, 4
.Ltmp89:
	.loc	2 85 14                         # ./uart.c:85:14 @[ ./uart.c:119:5 ]
	addi	a2, a2, %pcrel_lo(.Lpcrel_hi3)
	add	a1, a1, a2
	.loc	2 86 14                         # ./uart.c:86:14 @[ ./uart.c:119:5 ]
	add	a2, a2, a0
	.loc	2 85 14 is_stmt 1               # ./uart.c:85:14 @[ ./uart.c:119:5 ]
	lbu	a0, 0(a1)
.Ltmp90:
	#DEBUG_VALUE: print_uart_byte:hex <- [DW_OP_LLVM_fragment 8 8] undef
	.loc	2 86 14                         # ./uart.c:86:14 @[ ./uart.c:119:5 ]
	lbu	a2, 0(a2)
.Ltmp91:
	#DEBUG_VALUE: print_uart_byte:hex <- [DW_OP_LLVM_fragment 0 8] undef
	#DEBUG_VALUE: write_serial:a <- undef
	.loc	2 0 14 is_stmt 0                # ./uart.c:0:14
	lui	a1, 65536
.Ltmp92:
.LBB12_1:                               # =>This Inner Loop Header: Depth=1
	#DEBUG_VALUE: read_reg_u8:addr <- 268435476
	.loc	2 15 12 is_stmt 1               # ./uart.c:15:12 @[ ./uart.c:20:12 @[ ./uart.c:40:16 @[ ./uart.c:120:5 ] ] ]
	lbu	a3, 20(a1)
.Ltmp93:
	.loc	2 20 42                         # ./uart.c:20:42 @[ ./uart.c:40:16 @[ ./uart.c:120:5 ] ]
	andi	a3, a3, 32
.Ltmp94:
	.loc	2 40 9                          # ./uart.c:40:9 @[ ./uart.c:120:5 ]
	beqz	a3, .LBB12_1
.Ltmp95:
# %bb.2:
	.loc	2 0 9 is_stmt 0                 # ./uart.c:0:9
	lui	a3, 65536
.Ltmp96:
	#DEBUG_VALUE: write_reg_u8:addr <- 268435456
	#DEBUG_VALUE: write_reg_u8:value <- $x12
	#DEBUG_VALUE: write_reg_u8:loc_addr <- 268435456
	.loc	2 10 15 is_stmt 1               # ./uart.c:10:15 @[ ./uart.c:44:5 @[ ./uart.c:120:5 ] ]
	sb	a2, 0(a3)
.Ltmp97:
	#DEBUG_VALUE: write_serial:a <- $x10
.LBB12_3:                               # =>This Inner Loop Header: Depth=1
	#DEBUG_VALUE: write_serial:a <- $x10
	#DEBUG_VALUE: read_reg_u8:addr <- 268435476
	.loc	2 15 12                         # ./uart.c:15:12 @[ ./uart.c:20:12 @[ ./uart.c:40:16 @[ ./uart.c:121:5 ] ] ]
	lbu	a2, 20(a1)
.Ltmp98:
	.loc	2 20 42                         # ./uart.c:20:42 @[ ./uart.c:40:16 @[ ./uart.c:121:5 ] ]
	andi	a2, a2, 32
.Ltmp99:
	.loc	2 40 9                          # ./uart.c:40:9 @[ ./uart.c:121:5 ]
	beqz	a2, .LBB12_3
.Ltmp100:
# %bb.4:
	#DEBUG_VALUE: write_serial:a <- $x10
	.loc	2 0 9 is_stmt 0                 # ./uart.c:0:9
	lui	a1, 65536
.Ltmp101:
	#DEBUG_VALUE: write_reg_u8:addr <- 268435456
	#DEBUG_VALUE: write_reg_u8:value <- $x10
	#DEBUG_VALUE: write_reg_u8:loc_addr <- 268435456
	.loc	2 10 15 is_stmt 1               # ./uart.c:10:15 @[ ./uart.c:44:5 @[ ./uart.c:121:5 ] ]
	sb	a0, 0(a1)
.Ltmp102:
	.loc	2 122 1                         # ./uart.c:122:1
	ret
.Ltmp103:
.Lfunc_end12:
	.size	print_uart_byte, .Lfunc_end12-print_uart_byte
	.cfi_endproc
                                        # -- End function
	.hidden	main                            # -- Begin function main
	.globl	main
	.p2align	1
	.type	main,@function
main:                                   # @main
.Lfunc_begin13:
	.loc	0 37 0                          # test.c:37:0
	.cfi_startproc
# %bb.0:
	addi	sp, sp, -48
	.cfi_def_cfa_offset 48
	sd	ra, 40(sp)                      # 8-byte Folded Spill
	.cfi_offset ra, -8
.Ltmp104:
	#DEBUG_VALUE: main:vl <- 8
.Lpcrel_hi4:
	.loc	0 50 9 prologue_end             # test.c:50:9
	auipc	a0, %pcrel_hi(.L__const.main.data_a)
	addi	a0, a0, %pcrel_lo(.Lpcrel_hi4)
	vsetivli	zero, 8, e32, m1, ta, ma
	vle32.v	v8, (a0)
.Ltmp105:
	#DEBUG_VALUE: main:a <- undef
.Lpcrel_hi5:
	.loc	0 51 9                          # test.c:51:9
	auipc	a0, %pcrel_hi(.L__const.main.data_b)
	addi	a0, a0, %pcrel_lo(.Lpcrel_hi5)
	vle32.v	v9, (a0)
.Ltmp106:
	#DEBUG_VALUE: main:b <- undef
	.loc	0 0 9 is_stmt 0                 # test.c:0:9
	addi	a0, sp, 8
	.loc	0 54 14 is_stmt 1               # test.c:54:14
	vadd.vv	v8, v8, v9
.Ltmp107:
	#DEBUG_VALUE: main:result <- undef
	.loc	0 58 5 is_stmt 0                # test.c:58:5
	vse32.v	v8, (a0)
	lui	a0, 244
	addi	a0, a0, 576
	#DEBUG_VALUE: debug_delay_cycles:cycles <- 1000000
	#DEBUG_VALUE: i <- 0
.Ltmp108:
.LBB13_1:                               # =>This Inner Loop Header: Depth=1
	#DEBUG_VALUE: debug_delay_cycles:cycles <- 1000000
	#DEBUG_VALUE: main:vl <- 8
	#DEBUG_VALUE: i <- [DW_OP_consts 1000000, DW_OP_minus, DW_OP_consts 18446744073709551615, DW_OP_div, DW_OP_stack_value] $x10
	.loc	0 12 26 is_stmt 1               # test.c:12:26 @[ test.c:60:5 ]
	addiw	a0, a0, -1
.Ltmp109:
	.loc	0 13 5                          # test.c:13:5 @[ test.c:60:5 ]
	#APP
	nop
	#NO_APP
.Ltmp110:
	#DEBUG_VALUE: i <- [DW_OP_consts 1000000, DW_OP_minus, DW_OP_consts 18446744073709551615, DW_OP_div, DW_OP_consts 1, DW_OP_plus, DW_OP_stack_value] $x10
	.loc	0 12 3                          # test.c:12:3 @[ test.c:60:5 ]
	bnez	a0, .LBB13_1
.Ltmp111:
# %bb.2:
	#DEBUG_VALUE: main:vl <- 8
	.loc	0 0 3 is_stmt 0                 # test.c:0:3
	lui	a1, 65536
	li	a2, 128
	li	a3, 27
	li	a4, 3
.Ltmp112:
	#DEBUG_VALUE: init_uart:freq <- 50000000
	#DEBUG_VALUE: init_uart:baud <- 115200
	#DEBUG_VALUE: init_uart:divisor <- 27
	#DEBUG_VALUE: write_reg_u8:addr <- 268435460
	#DEBUG_VALUE: write_reg_u8:value <- 0
	#DEBUG_VALUE: write_reg_u8:loc_addr <- 268435460
	.loc	2 10 15 is_stmt 1               # ./uart.c:10:15 @[ ./uart.c:61:5 @[ test.c:61:5 ] ]
	sb	zero, 4(a1)
.Ltmp113:
	#DEBUG_VALUE: write_reg_u8:addr <- 268435468
	#DEBUG_VALUE: write_reg_u8:value <- -128
	#DEBUG_VALUE: write_reg_u8:loc_addr <- 268435468
	.loc	2 10 15 is_stmt 0               # ./uart.c:10:15 @[ ./uart.c:62:5 @[ test.c:61:5 ] ]
	sb	a2, 12(a1)
	li	a5, 199
.Ltmp114:
	#DEBUG_VALUE: write_reg_u8:addr <- 268435456
	#DEBUG_VALUE: write_reg_u8:value <- 27
	#DEBUG_VALUE: write_reg_u8:loc_addr <- 268435456
	.loc	2 10 15                         # ./uart.c:10:15 @[ ./uart.c:63:5 @[ test.c:61:5 ] ]
	sb	a3, 0(a1)
	li	a3, 32
.Ltmp115:
	#DEBUG_VALUE: write_reg_u8:addr <- 268435460
	#DEBUG_VALUE: write_reg_u8:value <- 0
	#DEBUG_VALUE: write_reg_u8:loc_addr <- 268435460
	.loc	2 10 15                         # ./uart.c:10:15 @[ ./uart.c:64:5 @[ test.c:61:5 ] ]
	sb	zero, 4(a1)
.Ltmp116:
	#DEBUG_VALUE: write_reg_u8:addr <- 268435468
	#DEBUG_VALUE: write_reg_u8:value <- 3
	#DEBUG_VALUE: write_reg_u8:loc_addr <- 268435468
	.loc	2 10 15                         # ./uart.c:10:15 @[ ./uart.c:65:5 @[ test.c:61:5 ] ]
	sb	a4, 12(a1)
	li	a2, 82
.Ltmp117:
	#DEBUG_VALUE: write_reg_u8:addr <- 268435464
	#DEBUG_VALUE: write_reg_u8:value <- -57
	#DEBUG_VALUE: write_reg_u8:loc_addr <- 268435464
	#DEBUG_VALUE: print_uart:str <- undef
	#DEBUG_VALUE: print_uart:cur <- undef
	.loc	2 10 15                         # ./uart.c:10:15 @[ ./uart.c:66:5 @[ test.c:61:5 ] ]
	sb	a5, 8(a1)
.Lpcrel_hi6:
	auipc	a4, %pcrel_hi(.L.str)
.Ltmp118:
	#DEBUG_VALUE: write_reg_u8:addr <- 268435472
	#DEBUG_VALUE: write_reg_u8:value <- 32
	#DEBUG_VALUE: write_reg_u8:loc_addr <- 268435472
	.loc	2 10 15                         # ./uart.c:10:15 @[ ./uart.c:67:5 @[ test.c:61:5 ] ]
	sb	a3, 16(a1)
	addi	a3, a4, %pcrel_lo(.Lpcrel_hi6)
	li	a4, 14
.Ltmp119:
	#DEBUG_VALUE: print_uart:cur <- [DW_OP_LLVM_arg 0, DW_OP_LLVM_arg 0, DW_OP_plus, DW_OP_stack_value] undef
.LBB13_3:                               # =>This Inner Loop Header: Depth=1
	#DEBUG_VALUE: main:vl <- 8
	#DEBUG_VALUE: read_reg_u8:addr <- 268435476
	.loc	2 15 12 is_stmt 1               # ./uart.c:15:12 @[ ./uart.c:20:12 @[ ./uart.c:40:16 @[ ./uart.c:75:9 @[ test.c:62:5 ] ] ] ]
	lbu	a5, 20(a1)
.Ltmp120:
	.loc	2 20 42                         # ./uart.c:20:42 @[ ./uart.c:40:16 @[ ./uart.c:75:9 @[ test.c:62:5 ] ] ]
	andi	a5, a5, 32
.Ltmp121:
	.loc	2 40 9                          # ./uart.c:40:9 @[ ./uart.c:75:9 @[ test.c:62:5 ] ]
	beqz	a5, .LBB13_3
.Ltmp122:
# %bb.4:                                #   in Loop: Header=BB13_3 Depth=1
	#DEBUG_VALUE: main:vl <- 8
	#DEBUG_VALUE: write_reg_u8:addr <- 268435456
	#DEBUG_VALUE: write_reg_u8:value <- $x12
	#DEBUG_VALUE: write_reg_u8:loc_addr <- 268435456
	.loc	2 10 15                         # ./uart.c:10:15 @[ ./uart.c:44:5 @[ ./uart.c:75:9 @[ test.c:62:5 ] ] ]
	sb	a2, 0(a1)
.Ltmp123:
	.loc	2 76 9                          # ./uart.c:76:9 @[ test.c:62:5 ]
	addi	a0, a0, 1
.Ltmp124:
	.loc	2 73 12                         # ./uart.c:73:12 @[ test.c:62:5 ]
	add	a2, a3, a0
.Ltmp125:
	#DEBUG_VALUE: print_uart:cur <- $x12
	lbu	a2, 0(a2)
.Ltmp126:
	.loc	2 73 5 is_stmt 0                # ./uart.c:73:5 @[ test.c:62:5 ]
	bne	a0, a4, .LBB13_3
.Ltmp127:
# %bb.5:
	#DEBUG_VALUE: main:vl <- 8
.Lpcrel_hi7:
	.loc	0 64 5 is_stmt 1                # test.c:64:5
	auipc	a0, %pcrel_hi(.L.str.1)
.Lpcrel_hi8:
	auipc	a1, %pcrel_hi(.L__const.main.data_a)
	addi	a0, a0, %pcrel_lo(.Lpcrel_hi7)
	addi	a1, a1, %pcrel_lo(.Lpcrel_hi8)
	call	print_i32_array
.Ltmp128:
.Lpcrel_hi9:
	.loc	0 65 5                          # test.c:65:5
	auipc	a0, %pcrel_hi(.L.str.2)
.Lpcrel_hi10:
	auipc	a1, %pcrel_hi(.L__const.main.data_b)
	addi	a0, a0, %pcrel_lo(.Lpcrel_hi9)
	addi	a1, a1, %pcrel_lo(.Lpcrel_hi10)
	call	print_i32_array
.Ltmp129:
.Lpcrel_hi11:
	.loc	0 66 5                          # test.c:66:5
	auipc	a0, %pcrel_hi(.L.str.3)
	addi	a0, a0, %pcrel_lo(.Lpcrel_hi11)
	addi	a1, sp, 8
	call	print_i32_array
.Ltmp130:
	.loc	0 74 5                          # test.c:74:5
	li	a0, 0
	.loc	0 74 5 epilogue_begin is_stmt 0 # test.c:74:5
	ld	ra, 40(sp)                      # 8-byte Folded Reload
	.cfi_restore ra
	addi	sp, sp, 48
	.cfi_def_cfa_offset 0
	ret
.Ltmp131:
.Lfunc_end13:
	.size	main, .Lfunc_end13-main
	.cfi_endproc
                                        # -- End function
	.p2align	1                               # -- Begin function print_i32_array
	.type	print_i32_array,@function
print_i32_array:                        # @print_i32_array
.Lfunc_begin14:
	.loc	0 28 0 is_stmt 1                # test.c:28:0
	.cfi_startproc
# %bb.0:
	#DEBUG_VALUE: print_i32_array:name <- $x10
	#DEBUG_VALUE: print_i32_array:a <- $x11
	#DEBUG_VALUE: print_i32_array:n <- 8
	#DEBUG_VALUE: print_uart:str <- $x10
	addi	sp, sp, -48
	.cfi_def_cfa_offset 48
	sd	s0, 40(sp)                      # 8-byte Folded Spill
	sd	s1, 32(sp)                      # 8-byte Folded Spill
	sd	s2, 24(sp)                      # 8-byte Folded Spill
	sd	s3, 16(sp)                      # 8-byte Folded Spill
	.cfi_offset s0, -8
	.cfi_offset s1, -16
	.cfi_offset s2, -24
	.cfi_offset s3, -32
.Ltmp132:
	#DEBUG_VALUE: print_uart:cur <- $x10
	.loc	2 73 12 prologue_end            # ./uart.c:73:12 @[ test.c:29:5 ]
	lbu	a3, 0(a0)
	lui	a2, 65536
	.loc	2 73 5 is_stmt 0                # ./uart.c:73:5 @[ test.c:29:5 ]
	beqz	a3, .LBB14_3
.Ltmp133:
.LBB14_1:                               # =>This Inner Loop Header: Depth=1
	#DEBUG_VALUE: print_uart:cur <- $x10
	#DEBUG_VALUE: print_i32_array:n <- 8
	#DEBUG_VALUE: print_i32_array:a <- $x11
	#DEBUG_VALUE: read_reg_u8:addr <- 268435476
	.loc	2 15 12 is_stmt 1               # ./uart.c:15:12 @[ ./uart.c:20:12 @[ ./uart.c:40:16 @[ ./uart.c:75:9 @[ test.c:29:5 ] ] ] ]
	lbu	a4, 20(a2)
.Ltmp134:
	.loc	2 20 42                         # ./uart.c:20:42 @[ ./uart.c:40:16 @[ ./uart.c:75:9 @[ test.c:29:5 ] ] ]
	andi	a4, a4, 32
.Ltmp135:
	.loc	2 40 9                          # ./uart.c:40:9 @[ ./uart.c:75:9 @[ test.c:29:5 ] ]
	beqz	a4, .LBB14_1
.Ltmp136:
# %bb.2:                                #   in Loop: Header=BB14_1 Depth=1
	#DEBUG_VALUE: print_uart:cur <- $x10
	#DEBUG_VALUE: print_i32_array:n <- 8
	#DEBUG_VALUE: print_i32_array:a <- $x11
	#DEBUG_VALUE: write_reg_u8:addr <- 268435456
	#DEBUG_VALUE: write_reg_u8:value <- $x13
	#DEBUG_VALUE: write_reg_u8:loc_addr <- 268435456
	.loc	2 10 15                         # ./uart.c:10:15 @[ ./uart.c:44:5 @[ ./uart.c:75:9 @[ test.c:29:5 ] ] ]
	sb	a3, 0(a2)
.Ltmp137:
	.loc	2 73 12 is_stmt 0               # ./uart.c:73:12 @[ test.c:29:5 ]
	lbu	a3, 1(a0)
.Ltmp138:
	.loc	2 76 9 is_stmt 1                # ./uart.c:76:9 @[ test.c:29:5 ]
	addi	a0, a0, 1
.Ltmp139:
	#DEBUG_VALUE: print_uart:cur <- $x10
	.loc	2 73 5                          # ./uart.c:73:5 @[ test.c:29:5 ]
	bnez	a3, .LBB14_1
.Ltmp140:
.LBB14_3:
	#DEBUG_VALUE: print_uart:cur <- $x10
	#DEBUG_VALUE: print_i32_array:n <- 8
	#DEBUG_VALUE: print_i32_array:a <- $x11
	.loc	2 0 5 is_stmt 0                 # ./uart.c:0:5
	li	a0, 0
	li	a5, 58
.Lpcrel_hi12:
	auipc	a3, %pcrel_hi(.L.str.4)
	addi	a3, a3, %pcrel_lo(.Lpcrel_hi12)
	li	a4, 3
	#DEBUG_VALUE: print_uart:cur <- [DW_OP_LLVM_arg 0, DW_OP_LLVM_arg 0, DW_OP_plus, DW_OP_stack_value] undef
.Ltmp141:
.LBB14_4:                               # =>This Inner Loop Header: Depth=1
	#DEBUG_VALUE: print_i32_array:n <- 8
	#DEBUG_VALUE: print_i32_array:a <- $x11
	#DEBUG_VALUE: read_reg_u8:addr <- 268435476
	.loc	2 15 12 is_stmt 1               # ./uart.c:15:12 @[ ./uart.c:20:12 @[ ./uart.c:40:16 @[ ./uart.c:75:9 @[ test.c:30:5 ] ] ] ]
	lbu	s0, 20(a2)
.Ltmp142:
	.loc	2 20 42                         # ./uart.c:20:42 @[ ./uart.c:40:16 @[ ./uart.c:75:9 @[ test.c:30:5 ] ] ]
	andi	s0, s0, 32
.Ltmp143:
	.loc	2 40 9                          # ./uart.c:40:9 @[ ./uart.c:75:9 @[ test.c:30:5 ] ]
	beqz	s0, .LBB14_4
.Ltmp144:
# %bb.5:                                #   in Loop: Header=BB14_4 Depth=1
	#DEBUG_VALUE: print_i32_array:n <- 8
	#DEBUG_VALUE: print_i32_array:a <- $x11
	#DEBUG_VALUE: write_reg_u8:addr <- 268435456
	#DEBUG_VALUE: write_reg_u8:value <- $x15
	#DEBUG_VALUE: write_reg_u8:loc_addr <- 268435456
	.loc	2 10 15                         # ./uart.c:10:15 @[ ./uart.c:44:5 @[ ./uart.c:75:9 @[ test.c:30:5 ] ] ]
	sb	a5, 0(a2)
.Ltmp145:
	.loc	2 76 9                          # ./uart.c:76:9 @[ test.c:30:5 ]
	addi	a0, a0, 1
.Ltmp146:
	.loc	2 73 12                         # ./uart.c:73:12 @[ test.c:30:5 ]
	add	a5, a3, a0
.Ltmp147:
	#DEBUG_VALUE: print_uart:cur <- $x15
	lbu	a5, 0(a5)
.Ltmp148:
	.loc	2 73 5 is_stmt 0                # ./uart.c:73:5 @[ test.c:30:5 ]
	bne	a0, a4, .LBB14_4
.Ltmp149:
# %bb.6:
	#DEBUG_VALUE: write_reg_u8:loc_addr <- 268435456
	#DEBUG_VALUE: write_reg_u8:addr <- 268435456
	#DEBUG_VALUE: print_i32_array:n <- 8
	#DEBUG_VALUE: print_i32_array:a <- $x11
	.loc	2 0 5                           # ./uart.c:0:5
	li	t3, 0
	lui	t4, 65536
	li	a6, 48
	li	t1, 7
	li	t2, 8
	li	a7, 32
	li	t0, 45
	lui	a0, 838861
	mv	s2, sp
	li	t5, 10
	addi	a0, a0, -819
	slli	s3, a0, 32
	li	t6, 15
	j	.LBB14_8
.Ltmp150:
.LBB14_7:                               #   in Loop: Header=BB14_8 Depth=1
	#DEBUG_VALUE: i <- $x28
	#DEBUG_VALUE: print_i32_array:n <- 8
	#DEBUG_VALUE: print_i32_array:a <- $x11
	addi	t3, t3, 1
.Ltmp151:
	#DEBUG_VALUE: i <- $x28
	.loc	0 31 5 is_stmt 1                # test.c:31:5
	beq	t3, t2, .LBB14_23
.Ltmp152:
.LBB14_8:                               # =>This Loop Header: Depth=1
                                        #     Child Loop BB14_10 Depth 2
                                        #     Child Loop BB14_13 Depth 2
                                        #     Child Loop BB14_15 Depth 2
                                        #       Child Loop BB14_16 Depth 3
                                        #     Child Loop BB14_19 Depth 2
                                        #     Child Loop BB14_21 Depth 2
	#DEBUG_VALUE: print_i32_array:n <- 8
	#DEBUG_VALUE: print_i32_array:a <- $x11
	#DEBUG_VALUE: i <- $x28
	.loc	0 32 21 is_stmt 0               # test.c:32:21
	slli	a3, t3, 2
	add	a3, a3, a1
	lw	s1, 0(a3)
	#DEBUG_VALUE: print_dec32:buf <- [DW_OP_deref] $x2
	#DEBUG_VALUE: print_dec32:v <- undef
	#DEBUG_VALUE: print_dec32:i <- 0
	beqz	s1, .LBB14_19
.Ltmp153:
# %bb.9:                                #   in Loop: Header=BB14_8 Depth=1
	#DEBUG_VALUE: print_dec32:i <- 0
	#DEBUG_VALUE: print_dec32:buf <- [DW_OP_deref] $x2
	#DEBUG_VALUE: i <- $x28
	#DEBUG_VALUE: print_i32_array:n <- 8
	#DEBUG_VALUE: print_i32_array:a <- $x11
	.loc	0 23 11 is_stmt 1               # test.c:23:11 @[ test.c:32:9 ]
	bgez	s1, .LBB14_12
.Ltmp154:
.LBB14_10:                              #   Parent Loop BB14_8 Depth=1
                                        # =>  This Inner Loop Header: Depth=2
	#DEBUG_VALUE: print_dec32:i <- 0
	#DEBUG_VALUE: print_dec32:buf <- [DW_OP_deref] $x2
	#DEBUG_VALUE: i <- $x28
	#DEBUG_VALUE: print_i32_array:n <- 8
	#DEBUG_VALUE: print_i32_array:a <- $x11
	#DEBUG_VALUE: read_reg_u8:addr <- 268435476
	.loc	2 15 12                         # ./uart.c:15:12 @[ ./uart.c:20:12 @[ ./uart.c:40:16 @[ test.c:18:40 @[ test.c:23:18 @[ test.c:32:9 ] ] ] ] ]
	lbu	a3, 20(a2)
.Ltmp155:
	.loc	2 20 42                         # ./uart.c:20:42 @[ ./uart.c:40:16 @[ test.c:18:40 @[ test.c:23:18 @[ test.c:32:9 ] ] ] ]
	andi	a3, a3, 32
.Ltmp156:
	.loc	2 40 9                          # ./uart.c:40:9 @[ test.c:18:40 @[ test.c:23:18 @[ test.c:32:9 ] ] ]
	beqz	a3, .LBB14_10
.Ltmp157:
# %bb.11:                               #   in Loop: Header=BB14_8 Depth=1
	#DEBUG_VALUE: print_dec32:i <- 0
	#DEBUG_VALUE: print_dec32:buf <- [DW_OP_deref] $x2
	#DEBUG_VALUE: i <- $x28
	#DEBUG_VALUE: print_i32_array:n <- 8
	#DEBUG_VALUE: print_i32_array:a <- $x11
	#DEBUG_VALUE: write_reg_u8:addr <- 268435456
	#DEBUG_VALUE: write_reg_u8:value <- 45
	#DEBUG_VALUE: write_reg_u8:loc_addr <- 268435456
	.loc	2 10 15                         # ./uart.c:10:15 @[ ./uart.c:44:5 @[ test.c:18:40 @[ test.c:23:18 @[ test.c:32:9 ] ] ] ]
	sb	t0, 0(t4)
.Ltmp158:
	.loc	0 23 38                         # test.c:23:38 @[ test.c:32:9 ]
	negw	s1, s1
.Ltmp159:
	#DEBUG_VALUE: print_dec32:v <- $x9
.LBB14_12:                              #   in Loop: Header=BB14_8 Depth=1
	#DEBUG_VALUE: print_dec32:i <- 0
	#DEBUG_VALUE: print_dec32:buf <- [DW_OP_deref] $x2
	#DEBUG_VALUE: i <- $x28
	#DEBUG_VALUE: print_i32_array:n <- 8
	#DEBUG_VALUE: print_i32_array:a <- $x11
	.loc	0 0 38 is_stmt 0                # test.c:0:38
	li	a3, 0
.Ltmp160:
.LBB14_13:                              #   Parent Loop BB14_8 Depth=1
                                        # =>  This Inner Loop Header: Depth=2
	#DEBUG_VALUE: print_dec32:buf <- [DW_OP_deref] $x2
	#DEBUG_VALUE: i <- $x28
	#DEBUG_VALUE: print_i32_array:n <- 8
	#DEBUG_VALUE: print_i32_array:a <- $x11
	mv	a0, s1
	mv	s0, a3
.Ltmp161:
	#DEBUG_VALUE: print_dec32:v <- $x10
	#DEBUG_VALUE: print_dec32:i <- $x8
	.loc	0 24 78 is_stmt 1               # test.c:24:78 @[ test.c:32:9 ]
	slli	a4, s1, 32
	.loc	0 24 46                         # test.c:24:46 @[ test.c:32:9 ]
	addi	a3, a3, 1
.Ltmp162:
	#DEBUG_VALUE: print_dec32:i <- $x13
	.loc	0 24 78                         # test.c:24:78 @[ test.c:32:9 ]
	mulhu	a4, a4, s3
	srli	s1, a4, 35
.Ltmp163:
	#DEBUG_VALUE: print_dec32:v <- $x9
	.loc	0 24 68 is_stmt 0               # test.c:24:68 @[ test.c:32:9 ]
	slli	a5, s1, 1
	slli	a4, s1, 3
	add	a4, a4, a5
	sub	a4, a0, a4
	.loc	0 24 52 is_stmt 1               # test.c:24:52 @[ test.c:32:9 ]
	ori	a4, a4, 48
	.loc	0 24 41 is_stmt 0               # test.c:24:41 @[ test.c:32:9 ]
	add	a5, s2, s0
	.loc	0 24 50                         # test.c:24:50 @[ test.c:32:9 ]
	sb	a4, 0(a5)
.Ltmp164:
	.loc	0 24 5 is_stmt 1                # test.c:24:5 @[ test.c:32:9 ]
	bltu	a0, t5, .LBB14_15
.Ltmp165:
# %bb.14:                               #   in Loop: Header=BB14_13 Depth=2
	#DEBUG_VALUE: print_dec32:i <- $x13
	#DEBUG_VALUE: print_dec32:v <- $x9
	#DEBUG_VALUE: print_dec32:buf <- [DW_OP_deref] $x2
	#DEBUG_VALUE: i <- $x28
	#DEBUG_VALUE: print_i32_array:n <- 8
	#DEBUG_VALUE: print_i32_array:a <- $x11
	.loc	0 24 5                          # test.c:24:5 @[ test.c:32:9 ]
	bltu	s0, t6, .LBB14_13
.Ltmp166:
.LBB14_15:                              #   Parent Loop BB14_8 Depth=1
                                        # =>  This Loop Header: Depth=2
                                        #       Child Loop BB14_16 Depth 3
	#DEBUG_VALUE: print_dec32:v <- $x9
	#DEBUG_VALUE: print_dec32:buf <- [DW_OP_deref] $x2
	#DEBUG_VALUE: i <- $x28
	#DEBUG_VALUE: print_i32_array:n <- 8
	#DEBUG_VALUE: print_i32_array:a <- $x11
	#DEBUG_VALUE: print_dec32:i <- $x13
	.loc	0 25 13                         # test.c:25:13 @[ test.c:32:9 ]
	addi	a3, a3, -1
.Ltmp167:
	#DEBUG_VALUE: print_dec32:i <- $x13
	.loc	0 25 27 is_stmt 0               # test.c:25:27 @[ test.c:32:9 ]
	add	a0, s2, a3
	lbu	a4, 0(a0)
	#DEBUG_VALUE: uart_putc:c <- undef
	#DEBUG_VALUE: write_serial:a <- undef
.Ltmp168:
.LBB14_16:                              #   Parent Loop BB14_8 Depth=1
                                        #     Parent Loop BB14_15 Depth=2
                                        # =>    This Inner Loop Header: Depth=3
	#DEBUG_VALUE: print_dec32:i <- $x13
	#DEBUG_VALUE: print_dec32:v <- $x9
	#DEBUG_VALUE: print_dec32:buf <- [DW_OP_deref] $x2
	#DEBUG_VALUE: i <- $x28
	#DEBUG_VALUE: print_i32_array:n <- 8
	#DEBUG_VALUE: print_i32_array:a <- $x11
	#DEBUG_VALUE: read_reg_u8:addr <- 268435476
	.loc	2 15 12 is_stmt 1               # ./uart.c:15:12 @[ ./uart.c:20:12 @[ ./uart.c:40:16 @[ test.c:18:40 @[ test.c:25:17 @[ test.c:32:9 ] ] ] ] ]
	lbu	a0, 20(a2)
.Ltmp169:
	.loc	2 20 42                         # ./uart.c:20:42 @[ ./uart.c:40:16 @[ test.c:18:40 @[ test.c:25:17 @[ test.c:32:9 ] ] ] ]
	andi	a0, a0, 32
.Ltmp170:
	.loc	2 40 9                          # ./uart.c:40:9 @[ test.c:18:40 @[ test.c:25:17 @[ test.c:32:9 ] ] ]
	beqz	a0, .LBB14_16
.Ltmp171:
# %bb.17:                               #   in Loop: Header=BB14_15 Depth=2
	#DEBUG_VALUE: print_dec32:i <- $x13
	#DEBUG_VALUE: print_dec32:v <- $x9
	#DEBUG_VALUE: print_dec32:buf <- [DW_OP_deref] $x2
	#DEBUG_VALUE: i <- $x28
	#DEBUG_VALUE: print_i32_array:n <- 8
	#DEBUG_VALUE: print_i32_array:a <- $x11
	#DEBUG_VALUE: write_reg_u8:addr <- 268435456
	#DEBUG_VALUE: write_reg_u8:value <- $x14
	#DEBUG_VALUE: write_reg_u8:loc_addr <- 268435456
	.loc	2 10 15                         # ./uart.c:10:15 @[ ./uart.c:44:5 @[ test.c:18:40 @[ test.c:25:17 @[ test.c:32:9 ] ] ] ]
	sb	a4, 0(t4)
.Ltmp172:
	#DEBUG_VALUE: print_dec32:i <- [DW_OP_constu 1, DW_OP_minus, DW_OP_stack_value] $x13
	.loc	0 25 5                          # test.c:25:5 @[ test.c:32:9 ]
	bnez	a3, .LBB14_15
.Ltmp173:
# %bb.18:                               #   in Loop: Header=BB14_8 Depth=1
	#DEBUG_VALUE: i <- $x28
	#DEBUG_VALUE: print_i32_array:n <- 8
	#DEBUG_VALUE: print_i32_array:a <- $x11
	.loc	0 33 19                         # test.c:33:19
	bne	t3, t1, .LBB14_21
	j	.LBB14_7
.Ltmp174:
.LBB14_19:                              #   Parent Loop BB14_8 Depth=1
                                        # =>  This Inner Loop Header: Depth=2
	#DEBUG_VALUE: print_dec32:i <- 0
	#DEBUG_VALUE: print_dec32:buf <- [DW_OP_deref] $x2
	#DEBUG_VALUE: i <- $x28
	#DEBUG_VALUE: print_i32_array:n <- 8
	#DEBUG_VALUE: print_i32_array:a <- $x11
	#DEBUG_VALUE: read_reg_u8:addr <- 268435476
	.loc	2 15 12                         # ./uart.c:15:12 @[ ./uart.c:20:12 @[ ./uart.c:40:16 @[ test.c:18:40 @[ test.c:22:19 @[ test.c:32:9 ] ] ] ] ]
	lbu	a3, 20(a2)
.Ltmp175:
	.loc	2 20 42                         # ./uart.c:20:42 @[ ./uart.c:40:16 @[ test.c:18:40 @[ test.c:22:19 @[ test.c:32:9 ] ] ] ]
	andi	a3, a3, 32
	beqz	a3, .LBB14_19
.Ltmp176:
# %bb.20:                               #   in Loop: Header=BB14_8 Depth=1
	#DEBUG_VALUE: print_dec32:i <- 0
	#DEBUG_VALUE: print_dec32:buf <- [DW_OP_deref] $x2
	#DEBUG_VALUE: i <- $x28
	#DEBUG_VALUE: print_i32_array:n <- 8
	#DEBUG_VALUE: print_i32_array:a <- $x11
	#DEBUG_VALUE: write_reg_u8:addr <- 268435456
	#DEBUG_VALUE: write_reg_u8:value <- 48
	#DEBUG_VALUE: write_reg_u8:loc_addr <- 268435456
	.loc	2 10 15                         # ./uart.c:10:15 @[ ./uart.c:44:5 @[ test.c:18:40 @[ test.c:22:19 @[ test.c:32:9 ] ] ] ]
	sb	a6, 0(t4)
.Ltmp177:
	.loc	0 33 19                         # test.c:33:19
	beq	t3, t1, .LBB14_7
.Ltmp178:
.LBB14_21:                              #   Parent Loop BB14_8 Depth=1
                                        # =>  This Inner Loop Header: Depth=2
	#DEBUG_VALUE: i <- $x28
	#DEBUG_VALUE: print_i32_array:n <- 8
	#DEBUG_VALUE: print_i32_array:a <- $x11
	#DEBUG_VALUE: read_reg_u8:addr <- 268435476
	.loc	2 15 12                         # ./uart.c:15:12 @[ ./uart.c:20:12 @[ ./uart.c:40:16 @[ test.c:18:40 @[ test.c:33:24 ] ] ] ]
	lbu	a0, 20(a2)
.Ltmp179:
	.loc	2 20 42                         # ./uart.c:20:42 @[ ./uart.c:40:16 @[ test.c:18:40 @[ test.c:33:24 ] ] ]
	andi	a0, a0, 32
.Ltmp180:
	.loc	2 40 9                          # ./uart.c:40:9 @[ test.c:18:40 @[ test.c:33:24 ] ]
	beqz	a0, .LBB14_21
.Ltmp181:
# %bb.22:                               #   in Loop: Header=BB14_8 Depth=1
	#DEBUG_VALUE: i <- $x28
	#DEBUG_VALUE: print_i32_array:n <- 8
	#DEBUG_VALUE: print_i32_array:a <- $x11
	#DEBUG_VALUE: write_reg_u8:addr <- 268435456
	#DEBUG_VALUE: write_reg_u8:value <- 32
	#DEBUG_VALUE: write_reg_u8:loc_addr <- 268435456
	.loc	2 10 15                         # ./uart.c:10:15 @[ ./uart.c:44:5 @[ test.c:18:40 @[ test.c:33:24 ] ] ]
	sb	a7, 0(t4)
	j	.LBB14_7
.Ltmp182:
.LBB14_23:
	#DEBUG_VALUE: i <- $x28
	#DEBUG_VALUE: print_i32_array:n <- 8
	#DEBUG_VALUE: print_i32_array:a <- $x11
	.loc	2 0 15 is_stmt 0                # ./uart.c:0:15
	li	a0, 0
	li	a4, 13
	lui	a1, 65536
.Ltmp183:
.Lpcrel_hi13:
	auipc	a3, %pcrel_hi(.L.str.5)
	addi	a3, a3, %pcrel_lo(.Lpcrel_hi13)
	li	a5, 2
	#DEBUG_VALUE: print_uart:cur <- [DW_OP_LLVM_arg 0, DW_OP_LLVM_arg 0, DW_OP_plus, DW_OP_stack_value] undef
.Ltmp184:
.LBB14_24:                              # =>This Inner Loop Header: Depth=1
	#DEBUG_VALUE: print_i32_array:n <- 8
	#DEBUG_VALUE: read_reg_u8:addr <- 268435476
	.loc	2 15 12 is_stmt 1               # ./uart.c:15:12 @[ ./uart.c:20:12 @[ ./uart.c:40:16 @[ ./uart.c:75:9 @[ test.c:35:5 ] ] ] ]
	lbu	s0, 20(a2)
.Ltmp185:
	.loc	2 20 42                         # ./uart.c:20:42 @[ ./uart.c:40:16 @[ ./uart.c:75:9 @[ test.c:35:5 ] ] ]
	andi	s0, s0, 32
.Ltmp186:
	.loc	2 40 9                          # ./uart.c:40:9 @[ ./uart.c:75:9 @[ test.c:35:5 ] ]
	beqz	s0, .LBB14_24
.Ltmp187:
# %bb.25:                               #   in Loop: Header=BB14_24 Depth=1
	#DEBUG_VALUE: print_i32_array:n <- 8
	#DEBUG_VALUE: write_reg_u8:addr <- 268435456
	#DEBUG_VALUE: write_reg_u8:value <- $x14
	#DEBUG_VALUE: write_reg_u8:loc_addr <- 268435456
	.loc	2 10 15                         # ./uart.c:10:15 @[ ./uart.c:44:5 @[ ./uart.c:75:9 @[ test.c:35:5 ] ] ]
	sb	a4, 0(a1)
.Ltmp188:
	.loc	2 76 9                          # ./uart.c:76:9 @[ test.c:35:5 ]
	addi	a0, a0, 1
.Ltmp189:
	.loc	2 73 12                         # ./uart.c:73:12 @[ test.c:35:5 ]
	add	a4, a3, a0
.Ltmp190:
	#DEBUG_VALUE: print_uart:cur <- $x14
	lbu	a4, 0(a4)
.Ltmp191:
	.loc	2 73 5 is_stmt 0                # ./uart.c:73:5 @[ test.c:35:5 ]
	bne	a0, a5, .LBB14_24
.Ltmp192:
# %bb.26:
	#DEBUG_VALUE: print_i32_array:n <- 8
	.loc	0 36 1 epilogue_begin is_stmt 1 # test.c:36:1
	ld	s0, 40(sp)                      # 8-byte Folded Reload
	ld	s1, 32(sp)                      # 8-byte Folded Reload
	ld	s2, 24(sp)                      # 8-byte Folded Reload
	ld	s3, 16(sp)                      # 8-byte Folded Reload
	.cfi_restore s0
	.cfi_restore s1
	.cfi_restore s2
	.cfi_restore s3
	addi	sp, sp, 48
	.cfi_def_cfa_offset 0
	ret
.Ltmp193:
.Lfunc_end14:
	.size	print_i32_array, .Lfunc_end14-print_i32_array
	.cfi_endproc
                                        # -- End function
	.hidden	bin_to_hex_table                # @bin_to_hex_table
	.type	bin_to_hex_table,@object
	.data
	.globl	bin_to_hex_table
bin_to_hex_table:
	.ascii	"0123456789ABCDEF"
	.size	bin_to_hex_table, 16

	.type	.L__const.main.data_a,@object   # @__const.main.data_a
	.section	.rodata.cst32,"aM",@progbits,32
	.p2align	2, 0x0
.L__const.main.data_a:
	.word	1                               # 0x1
	.word	2                               # 0x2
	.word	3                               # 0x3
	.word	4                               # 0x4
	.word	5                               # 0x5
	.word	6                               # 0x6
	.word	7                               # 0x7
	.word	8                               # 0x8
	.size	.L__const.main.data_a, 32

	.type	.L__const.main.data_b,@object   # @__const.main.data_b
	.p2align	2, 0x0
.L__const.main.data_b:
	.word	8                               # 0x8
	.word	7                               # 0x7
	.word	6                               # 0x6
	.word	5                               # 0x5
	.word	4                               # 0x4
	.word	3                               # 0x3
	.word	2                               # 0x2
	.word	1                               # 0x1
	.size	.L__const.main.data_b, 32

	.type	.L.str,@object                  # @.str
	.section	.rodata.str1.1,"aMS",@progbits,1
.L.str:
	.asciz	"Result UART:\r\n"
	.size	.L.str, 15

	.type	.L.str.1,@object                # @.str.1
.L.str.1:
	.asciz	"data_a"
	.size	.L.str.1, 7

	.type	.L.str.2,@object                # @.str.2
.L.str.2:
	.asciz	"data_b"
	.size	.L.str.2, 7

	.type	.L.str.3,@object                # @.str.3
.L.str.3:
	.asciz	"result"
	.size	.L.str.3, 7

	.type	.L.str.4,@object                # @.str.4
.L.str.4:
	.asciz	":\r\n"
	.size	.L.str.4, 4

	.type	.L.str.5,@object                # @.str.5
.L.str.5:
	.asciz	"\r\n"
	.size	.L.str.5, 3

	.file	4 "/home/xl2025/opt/riscv-llvm/lib/clang/22/include" "__stddef_size_t.h" md5 0x2c44e821a2b1951cde2eb0fb2e656867
	.file	5 "/home/xl2025/opt/riscv-llvm/lib/clang/22/include" "riscv_vector.h" md5 0x255ceebde96f450c22e334dcdb0f3a56
	.section	".note.GNU-stack","",@progbits
	.addrsig