
build/RVV_add_uart/test.elf:     file format elf64-littleriscv


Disassembly of section .text.init:

0000000080000000 <_start>:
#endif

  .section ".text.init"
  .globl _start
_start:
  li  x1, 0
    80000000:	4081                	li	ra,0
  li  x2, 0
    80000002:	4101                	li	sp,0
  li  x3, 0
    80000004:	4181                	li	gp,0
  li  x4, 0
    80000006:	4201                	li	tp,0
  li  x5, 0
    80000008:	4281                	li	t0,0
  li  x6, 0
    8000000a:	4301                	li	t1,0
  li  x7, 0
    8000000c:	4381                	li	t2,0
  li  x8, 0
    8000000e:	4401                	li	s0,0
  li  x9, 0
    80000010:	4481                	li	s1,0
  li  x10,0
    80000012:	4501                	li	a0,0
  li  x11,0
    80000014:	4581                	li	a1,0
  li  x12,0
    80000016:	4601                	li	a2,0
  li  x13,0
    80000018:	4681                	li	a3,0
  li  x14,0
    8000001a:	4701                	li	a4,0
  li  x15,0
    8000001c:	4781                	li	a5,0
  li  x16,0
    8000001e:	4801                	li	a6,0
  li  x17,0
    80000020:	4881                	li	a7,0
  li  x18,0
    80000022:	4901                	li	s2,0
  li  x19,0
    80000024:	4981                	li	s3,0
  li  x20,0
    80000026:	4a01                	li	s4,0
  li  x21,0
    80000028:	4a81                	li	s5,0
  li  x22,0
    8000002a:	4b01                	li	s6,0
  li  x23,0
    8000002c:	4b81                	li	s7,0
  li  x24,0
    8000002e:	4c01                	li	s8,0
  li  x25,0
    80000030:	4c81                	li	s9,0
  li  x26,0
    80000032:	4d01                	li	s10,0
  li  x27,0
    80000034:	4d81                	li	s11,0
  li  x28,0
    80000036:	4e01                	li	t3,0
  li  x29,0
    80000038:	4e81                	li	t4,0
  li  x30,0
    8000003a:	4f01                	li	t5,0
  li  x31,0
    8000003c:	4f81                	li	t6,0

  # enable FPU and accelerator if present
  li t0, MSTATUS_FS | MSTATUS_XS | MSTATUS_VS
    8000003e:	62f9                	lui	t0,0x1e
    80000040:	60028293          	addi	t0,t0,1536 # 1e600 <putchar.buflen+0x1e5c0>
  csrs mstatus, t0
    80000044:	3002a073          	csrs	mstatus,t0

  # make sure XLEN agrees with compilation choice
  li t0, 1
    80000048:	4285                	li	t0,1
  slli t0, t0, 31
    8000004a:	02fe                	slli	t0,t0,0x1f
#if __riscv_xlen == 64
  bgez t0, 1f
    8000004c:	0002d863          	bgez	t0,8000005c <_start+0x5c>
#else
  bltz t0, 1f
#endif
2:
  li a0, 1
    80000050:	4505                	li	a0,1
  sw a0, tohost, t0
    80000052:	00002297          	auipc	t0,0x2
    80000056:	82a2a723          	sw	a0,-2002(t0) # 80001880 <tohost>
  j 2b
    8000005a:	bfdd                	j	80000050 <_start+0x50>
1:

#ifdef __riscv_flen
  # initialize FPU if we have one
  la t0, 1f
    8000005c:	00000297          	auipc	t0,0x0
    80000060:	09028293          	addi	t0,t0,144 # 800000ec <_start+0xec>
  csrw mtvec, t0
    80000064:	30529073          	csrw	mtvec,t0

  fssr    x0
    80000068:	00301073          	fscsr	zero
  fmv.s.x f0, x0
    8000006c:	f0000053          	fmv.w.x	ft0,zero
  fmv.s.x f1, x0
    80000070:	f00000d3          	fmv.w.x	ft1,zero
  fmv.s.x f2, x0
    80000074:	f0000153          	fmv.w.x	ft2,zero
  fmv.s.x f3, x0
    80000078:	f00001d3          	fmv.w.x	ft3,zero
  fmv.s.x f4, x0
    8000007c:	f0000253          	fmv.w.x	ft4,zero
  fmv.s.x f5, x0
    80000080:	f00002d3          	fmv.w.x	ft5,zero
  fmv.s.x f6, x0
    80000084:	f0000353          	fmv.w.x	ft6,zero
  fmv.s.x f7, x0
    80000088:	f00003d3          	fmv.w.x	ft7,zero
  fmv.s.x f8, x0
    8000008c:	f0000453          	fmv.w.x	fs0,zero
  fmv.s.x f9, x0
    80000090:	f00004d3          	fmv.w.x	fs1,zero
  fmv.s.x f10,x0
    80000094:	f0000553          	fmv.w.x	fa0,zero
  fmv.s.x f11,x0
    80000098:	f00005d3          	fmv.w.x	fa1,zero
  fmv.s.x f12,x0
    8000009c:	f0000653          	fmv.w.x	fa2,zero
  fmv.s.x f13,x0
    800000a0:	f00006d3          	fmv.w.x	fa3,zero
  fmv.s.x f14,x0
    800000a4:	f0000753          	fmv.w.x	fa4,zero
  fmv.s.x f15,x0
    800000a8:	f00007d3          	fmv.w.x	fa5,zero
  fmv.s.x f16,x0
    800000ac:	f0000853          	fmv.w.x	fa6,zero
  fmv.s.x f17,x0
    800000b0:	f00008d3          	fmv.w.x	fa7,zero
  fmv.s.x f18,x0
    800000b4:	f0000953          	fmv.w.x	fs2,zero
  fmv.s.x f19,x0
    800000b8:	f00009d3          	fmv.w.x	fs3,zero
  fmv.s.x f20,x0
    800000bc:	f0000a53          	fmv.w.x	fs4,zero
  fmv.s.x f21,x0
    800000c0:	f0000ad3          	fmv.w.x	fs5,zero
  fmv.s.x f22,x0
    800000c4:	f0000b53          	fmv.w.x	fs6,zero
  fmv.s.x f23,x0
    800000c8:	f0000bd3          	fmv.w.x	fs7,zero
  fmv.s.x f24,x0
    800000cc:	f0000c53          	fmv.w.x	fs8,zero
  fmv.s.x f25,x0
    800000d0:	f0000cd3          	fmv.w.x	fs9,zero
  fmv.s.x f26,x0
    800000d4:	f0000d53          	fmv.w.x	fs10,zero
  fmv.s.x f27,x0
    800000d8:	f0000dd3          	fmv.w.x	fs11,zero
  fmv.s.x f28,x0
    800000dc:	f0000e53          	fmv.w.x	ft8,zero
  fmv.s.x f29,x0
    800000e0:	f0000ed3          	fmv.w.x	ft9,zero
  fmv.s.x f30,x0
    800000e4:	f0000f53          	fmv.w.x	ft10,zero
  fmv.s.x f31,x0
    800000e8:	f0000fd3          	fmv.w.x	ft11,zero
1:
#endif

  # initialize trap vector
  la t0, trap_entry
    800000ec:	00000297          	auipc	t0,0x0
    800000f0:	03c28293          	addi	t0,t0,60 # 80000128 <trap_entry>
  csrw mtvec, t0
    800000f4:	30529073          	csrw	mtvec,t0

  # initialize global pointer
.option push
.option norelax
  la gp, __global_pointer$
    800000f8:	00002197          	auipc	gp,0x2
    800000fc:	fd018193          	addi	gp,gp,-48 # 800020c8 <__global_pointer$>
.option pop

  la  tp, _end + 63
    80000100:	00002217          	auipc	tp,0x2
    80000104:	98320213          	addi	tp,tp,-1661 # 80001a83 <_end+0x3f>
  and tp, tp, -64
    80000108:	fc027213          	andi	tp,tp,-64

  # get core id
  csrr a0, mhartid
    8000010c:	f1402573          	csrr	a0,mhartid
#ifndef CORENUMS
  # for now, assume only 1 core
  li a1, 1
    80000110:	4585                	li	a1,1
1:bgeu a0, a1, 1b
    80000112:	00b57063          	bgeu	a0,a1,80000112 <_start+0x112>
#endif

  # give each core 128KB of stack + TLS
#define STKSHIFT 17
  add sp, a0, 1
    80000116:	00150113          	addi	sp,a0,1
  sll sp, sp, STKSHIFT
    8000011a:	0146                	slli	sp,sp,0x11
  add sp, sp, tp
    8000011c:	9112                	add	sp,sp,tp
  sll a2, a0, STKSHIFT
    8000011e:	01151613          	slli	a2,a0,0x11
  add tp, tp, a2
    80000122:	9232                	add	tp,tp,a2

  j _init
    80000124:	6140006f          	j	80000738 <_init>

0000000080000128 <trap_entry>:

  .align 2
trap_entry:
  addi sp, sp, -272
    80000128:	716d                	addi	sp,sp,-272

  # goto trap handler if not exit ecall
  csrr t5, mcause
    8000012a:	34202f73          	csrr	t5,mcause
  li t6, CAUSE_MACHINE_ECALL
    8000012e:	4fad                	li	t6,11
  bne t5, t6, 2f
    80000130:	03ff1b63          	bne	t5,t6,80000166 <trap_entry+0x3e>

  # skip flush signature cache lines if on spike
  csrr t2, marchid
    80000134:	f12023f3          	csrr	t2,marchid
  li t3, 5
    80000138:	4e15                	li	t3,5
  beq t2, t3, 3f
    8000013a:	03c38463          	beq	t2,t3,80000162 <trap_entry+0x3a>

  # flush signature cache lines
  la t0, begin_signature
    8000013e:	00002297          	auipc	t0,0x2
    80000142:	90628293          	addi	t0,t0,-1786 # 80001a44 <_end>
  la t1, end_signature
    80000146:	00002317          	auipc	t1,0x2
    8000014a:	8fe30313          	addi	t1,t1,-1794 # 80001a44 <_end>
  addi t1, t1, 0x40
    8000014e:	04030313          	addi	t1,t1,64
  li t2, 0x2010000
    80000152:	020103b7          	lui	t2,0x2010
4:
  sd t0, 0x200(t2)
    80000156:	2053b023          	sd	t0,512(t2) # 2010200 <putchar.buflen+0x20101c0>
  addi t0, t0, 64
    8000015a:	04028293          	addi	t0,t0,64
  blt t0, t1, 4b
    8000015e:	fe62cce3          	blt	t0,t1,80000156 <trap_entry+0x2e>

  # exit simulation
3:
  j tohost_exit
    80000162:	4ca0006f          	j	8000062c <tohost_exit>

2:

  SREG x1, 1*REGBYTES(sp)
    80000166:	e406                	sd	ra,8(sp)
  SREG x2, 2*REGBYTES(sp)
    80000168:	e80a                	sd	sp,16(sp)
  SREG x3, 3*REGBYTES(sp)
    8000016a:	ec0e                	sd	gp,24(sp)
  SREG x4, 4*REGBYTES(sp)
    8000016c:	f012                	sd	tp,32(sp)
  SREG x5, 5*REGBYTES(sp)
    8000016e:	f416                	sd	t0,40(sp)
  SREG x6, 6*REGBYTES(sp)
    80000170:	f81a                	sd	t1,48(sp)
  SREG x7, 7*REGBYTES(sp)
    80000172:	fc1e                	sd	t2,56(sp)
  SREG x8, 8*REGBYTES(sp)
    80000174:	e0a2                	sd	s0,64(sp)
  SREG x9, 9*REGBYTES(sp)
    80000176:	e4a6                	sd	s1,72(sp)
  SREG x10, 10*REGBYTES(sp)
    80000178:	e8aa                	sd	a0,80(sp)
  SREG x11, 11*REGBYTES(sp)
    8000017a:	ecae                	sd	a1,88(sp)
  SREG x12, 12*REGBYTES(sp)
    8000017c:	f0b2                	sd	a2,96(sp)
  SREG x13, 13*REGBYTES(sp)
    8000017e:	f4b6                	sd	a3,104(sp)
  SREG x14, 14*REGBYTES(sp)
    80000180:	f8ba                	sd	a4,112(sp)
  SREG x15, 15*REGBYTES(sp)
    80000182:	fcbe                	sd	a5,120(sp)
  SREG x16, 16*REGBYTES(sp)
    80000184:	e142                	sd	a6,128(sp)
  SREG x17, 17*REGBYTES(sp)
    80000186:	e546                	sd	a7,136(sp)
  SREG x18, 18*REGBYTES(sp)
    80000188:	e94a                	sd	s2,144(sp)
  SREG x19, 19*REGBYTES(sp)
    8000018a:	ed4e                	sd	s3,152(sp)
  SREG x20, 20*REGBYTES(sp)
    8000018c:	f152                	sd	s4,160(sp)
  SREG x21, 21*REGBYTES(sp)
    8000018e:	f556                	sd	s5,168(sp)
  SREG x22, 22*REGBYTES(sp)
    80000190:	f95a                	sd	s6,176(sp)
  SREG x23, 23*REGBYTES(sp)
    80000192:	fd5e                	sd	s7,184(sp)
  SREG x24, 24*REGBYTES(sp)
    80000194:	e1e2                	sd	s8,192(sp)
  SREG x25, 25*REGBYTES(sp)
    80000196:	e5e6                	sd	s9,200(sp)
  SREG x26, 26*REGBYTES(sp)
    80000198:	e9ea                	sd	s10,208(sp)
  SREG x27, 27*REGBYTES(sp)
    8000019a:	edee                	sd	s11,216(sp)
  SREG x28, 28*REGBYTES(sp)
    8000019c:	f1f2                	sd	t3,224(sp)
  SREG x29, 29*REGBYTES(sp)
    8000019e:	f5f6                	sd	t4,232(sp)
  SREG x30, 30*REGBYTES(sp)
    800001a0:	f9fa                	sd	t5,240(sp)
  SREG x31, 31*REGBYTES(sp)
    800001a2:	fdfe                	sd	t6,248(sp)

  csrr a0, mcause
    800001a4:	34202573          	csrr	a0,mcause
  csrr a1, mepc
    800001a8:	341025f3          	csrr	a1,mepc
  mv a2, sp
    800001ac:	860a                	mv	a2,sp
  jal handle_trap
    800001ae:	068010ef          	jal	80001216 <handle_trap>
  csrw mepc, a0
    800001b2:	34151073          	csrw	mepc,a0

  # Remain in M-mode after eret
  li t0, MSTATUS_MPP
    800001b6:	428d                	li	t0,3
    800001b8:	02ae                	slli	t0,t0,0xb
  csrs mstatus, t0
    800001ba:	3002a073          	csrs	mstatus,t0

  LREG x1, 1*REGBYTES(sp)
    800001be:	60a2                	ld	ra,8(sp)
  LREG x2, 2*REGBYTES(sp)
    800001c0:	6142                	ld	sp,16(sp)
  LREG x3, 3*REGBYTES(sp)
    800001c2:	61e2                	ld	gp,24(sp)
  LREG x4, 4*REGBYTES(sp)
    800001c4:	7202                	ld	tp,32(sp)
  LREG x5, 5*REGBYTES(sp)
    800001c6:	72a2                	ld	t0,40(sp)
  LREG x6, 6*REGBYTES(sp)
    800001c8:	7342                	ld	t1,48(sp)
  LREG x7, 7*REGBYTES(sp)
    800001ca:	73e2                	ld	t2,56(sp)
  LREG x8, 8*REGBYTES(sp)
    800001cc:	6406                	ld	s0,64(sp)
  LREG x9, 9*REGBYTES(sp)
    800001ce:	64a6                	ld	s1,72(sp)
  LREG x10, 10*REGBYTES(sp)
    800001d0:	6546                	ld	a0,80(sp)
  LREG x11, 11*REGBYTES(sp)
    800001d2:	65e6                	ld	a1,88(sp)
  LREG x12, 12*REGBYTES(sp)
    800001d4:	7606                	ld	a2,96(sp)
  LREG x13, 13*REGBYTES(sp)
    800001d6:	76a6                	ld	a3,104(sp)
  LREG x14, 14*REGBYTES(sp)
    800001d8:	7746                	ld	a4,112(sp)
  LREG x15, 15*REGBYTES(sp)
    800001da:	77e6                	ld	a5,120(sp)
  LREG x16, 16*REGBYTES(sp)
    800001dc:	680a                	ld	a6,128(sp)
  LREG x17, 17*REGBYTES(sp)
    800001de:	68aa                	ld	a7,136(sp)
  LREG x18, 18*REGBYTES(sp)
    800001e0:	694a                	ld	s2,144(sp)
  LREG x19, 19*REGBYTES(sp)
    800001e2:	69ea                	ld	s3,152(sp)
  LREG x20, 20*REGBYTES(sp)
    800001e4:	7a0a                	ld	s4,160(sp)
  LREG x21, 21*REGBYTES(sp)
    800001e6:	7aaa                	ld	s5,168(sp)
  LREG x22, 22*REGBYTES(sp)
    800001e8:	7b4a                	ld	s6,176(sp)
  LREG x23, 23*REGBYTES(sp)
    800001ea:	7bea                	ld	s7,184(sp)
  LREG x24, 24*REGBYTES(sp)
    800001ec:	6c0e                	ld	s8,192(sp)
  LREG x25, 25*REGBYTES(sp)
    800001ee:	6cae                	ld	s9,200(sp)
  LREG x26, 26*REGBYTES(sp)
    800001f0:	6d4e                	ld	s10,208(sp)
  LREG x27, 27*REGBYTES(sp)
    800001f2:	6dee                	ld	s11,216(sp)
  LREG x28, 28*REGBYTES(sp)
    800001f4:	7e0e                	ld	t3,224(sp)
  LREG x29, 29*REGBYTES(sp)
    800001f6:	7eae                	ld	t4,232(sp)
  LREG x30, 30*REGBYTES(sp)
    800001f8:	7f4e                	ld	t5,240(sp)
  LREG x31, 31*REGBYTES(sp)
    800001fa:	7fee                	ld	t6,248(sp)

  addi sp, sp, 272
    800001fc:	6151                	addi	sp,sp,272
  mret
    800001fe:	30200073          	mret

Disassembly of section .text:

0000000080000202 <write_reg_u8>:
#include "uart.h"

void write_reg_u8(uintptr_t addr, uint8_t value)
{
    volatile uint8_t *loc_addr = (volatile uint8_t *)addr;
    *loc_addr = value;
    80000202:	00b50023          	sb	a1,0(a0)
}
    80000206:	8082                	ret

0000000080000208 <read_reg_u8>:

uint8_t read_reg_u8(uintptr_t addr)
{
    return *(volatile uint8_t *)addr;
    80000208:	00054503          	lbu	a0,0(a0)
    8000020c:	8082                	ret

000000008000020e <is_transmit_empty>:
}

int is_transmit_empty()
{
    8000020e:	10000537          	lui	a0,0x10000
    return *(volatile uint8_t *)addr;
    80000212:	01454503          	lbu	a0,20(a0) # 10000014 <UART0_BASE+0x14>
    return read_reg_u8(UART_LINE_STATUS) & 0x20;
    80000216:	02057513          	andi	a0,a0,32
    8000021a:	8082                	ret

000000008000021c <is_transmit_empty_altera>:
}

char is_transmit_empty_altera()
{
    8000021c:	10000537          	lui	a0,0x10000
    return *(volatile uint8_t *)addr;
    80000220:	00754003          	lbu	zero,7(a0) # 10000007 <UART0_BASE+0x7>
    80000224:	00654503          	lbu	a0,6(a0)
    return ((read_reg_u8(UART_THR+7) << 8 ) + read_reg_u8(UART_THR+6));
    80000228:	8082                	ret

000000008000022a <is_receive_empty>:
}

int is_receive_empty()
{
    8000022a:	10000537          	lui	a0,0x10000
    return *(volatile uint8_t *)addr;
    8000022e:	01454503          	lbu	a0,20(a0) # 10000014 <UART0_BASE+0x14>
    80000232:	fff54513          	not	a0,a0
    #ifndef PLAT_AGILEX
        return !(read_reg_u8(UART_LINE_STATUS) & 0x1);
    80000236:	8905                	andi	a0,a0,1
    80000238:	8082                	ret

000000008000023a <write_serial>:
        return (read_reg_u8(UART_THR) == 0);
    #endif
}

void write_serial(char a)
{
    8000023a:	100005b7          	lui	a1,0x10000
    return *(volatile uint8_t *)addr;
    8000023e:	0145c603          	lbu	a2,20(a1) # 10000014 <UART0_BASE+0x14>
    return read_reg_u8(UART_LINE_STATUS) & 0x20;
    80000242:	02067613          	andi	a2,a2,32
    #ifndef PLAT_AGILEX
        while (is_transmit_empty() == 0) {};
    80000246:	de65                	beqz	a2,8000023e <write_serial+0x4>
    80000248:	100005b7          	lui	a1,0x10000
    *loc_addr = value;
    8000024c:	00a58023          	sb	a0,0(a1) # 10000000 <UART0_BASE>
    #else
        while (is_transmit_empty_altera() < 8) {};
    #endif
    write_reg_u8(UART_THR, a);
}
    80000250:	8082                	ret

0000000080000252 <read_serial>:

int read_serial(uint8_t *res)
{
    80000252:	100005b7          	lui	a1,0x10000
    return *(volatile uint8_t *)addr;
    80000256:	0145c603          	lbu	a2,20(a1) # 10000014 <UART0_BASE+0x14>
        return !(read_reg_u8(UART_LINE_STATUS) & 0x1);
    8000025a:	8a05                	andi	a2,a2,1
    if(is_receive_empty()) {
    8000025c:	e219                	bnez	a2,80000262 <read_serial+0x10>
    8000025e:	4501                	li	a0,0
        return 0;
    }

    *res = read_reg_u8(UART_RBR);
    return 1;
}
    80000260:	8082                	ret
    return *(volatile uint8_t *)addr;
    80000262:	0005c583          	lbu	a1,0(a1)
    *res = read_reg_u8(UART_RBR);
    80000266:	00b50023          	sb	a1,0(a0)
    8000026a:	4505                	li	a0,1
}
    8000026c:	8082                	ret

000000008000026e <init_uart>:

void init_uart(uint32_t freq, uint32_t baud)
{
    uint32_t divisor = freq / (baud << 4);
    8000026e:	0592                	slli	a1,a1,0x4
    80000270:	02b5553b          	divuw	a0,a0,a1
    80000274:	100005b7          	lui	a1,0x10000
    80000278:	08000613          	li	a2,128
    *loc_addr = value;
    8000027c:	00058223          	sb	zero,4(a1) # 10000004 <UART0_BASE+0x4>
    80000280:	00c58623          	sb	a2,12(a1)
    80000284:	460d                	li	a2,3
    80000286:	00a58023          	sb	a0,0(a1)

    write_reg_u8(UART_INTERRUPT_ENABLE, 0x00); // Disable all interrupts
    write_reg_u8(UART_LINE_CONTROL, 0x80);     // Enable DLAB (set baud rate divisor)
    write_reg_u8(UART_DLAB_LSB, divisor);         // divisor (lo byte)
    write_reg_u8(UART_DLAB_MSB, (divisor >> 8) & 0xFF);  // divisor (hi byte)
    8000028a:	8121                	srli	a0,a0,0x8
    *loc_addr = value;
    8000028c:	00a58223          	sb	a0,4(a1)
    80000290:	0c700513          	li	a0,199
    80000294:	00c58623          	sb	a2,12(a1)
    80000298:	02000613          	li	a2,32
    8000029c:	00a58423          	sb	a0,8(a1)
    800002a0:	00c58823          	sb	a2,16(a1)
    write_reg_u8(UART_LINE_CONTROL, 0x03);     // 8 bits, no parity, one stop bit
    write_reg_u8(UART_FIFO_CONTROL, 0xC7);     // Enable FIFO, clear them, with 14-byte threshold
    write_reg_u8(UART_MODEM_CONTROL, 0x20);    // Autoflow mode
}
    800002a4:	8082                	ret

00000000800002a6 <print_uart>:

void print_uart(const char *str)
{
    const char *cur = &str[0];
    while (*cur != '\0')
    800002a6:	00054583          	lbu	a1,0(a0)
    800002aa:	cd91                	beqz	a1,800002c6 <print_uart+0x20>
    800002ac:	10000637          	lui	a2,0x10000
    return *(volatile uint8_t *)addr;
    800002b0:	01464683          	lbu	a3,20(a2) # 10000014 <UART0_BASE+0x14>
    return read_reg_u8(UART_LINE_STATUS) & 0x20;
    800002b4:	0206f693          	andi	a3,a3,32
        while (is_transmit_empty() == 0) {};
    800002b8:	dee5                	beqz	a3,800002b0 <print_uart+0xa>
    *loc_addr = value;
    800002ba:	00b60023          	sb	a1,0(a2)
    while (*cur != '\0')
    800002be:	00154583          	lbu	a1,1(a0)
    {
        write_serial((uint8_t)*cur);
        ++cur;
    800002c2:	0505                	addi	a0,a0,1
    while (*cur != '\0')
    800002c4:	f5f5                	bnez	a1,800002b0 <print_uart+0xa>
    }
}
    800002c6:	8082                	ret

00000000800002c8 <bin_to_hex>:
uint8_t bin_to_hex_table[16] = {
    '0', '1', '2', '3', '4', '5', '6', '7', '8', '9', 'A', 'B', 'C', 'D', 'E', 'F'};

void bin_to_hex(uint8_t inp, uint8_t res[2])
{
    res[1] = bin_to_hex_table[inp & 0xf];
    800002c8:	00f57613          	andi	a2,a0,15
    800002cc:	00001697          	auipc	a3,0x1
    800002d0:	57c68693          	addi	a3,a3,1404 # 80001848 <bin_to_hex_table>
    800002d4:	9636                	add	a2,a2,a3
    800002d6:	00064603          	lbu	a2,0(a2)
    res[0] = bin_to_hex_table[(inp >> 4) & 0xf];
    800002da:	8111                	srli	a0,a0,0x4
    res[1] = bin_to_hex_table[inp & 0xf];
    800002dc:	00c580a3          	sb	a2,1(a1)
    res[0] = bin_to_hex_table[(inp >> 4) & 0xf];
    800002e0:	9536                	add	a0,a0,a3
    800002e2:	00054503          	lbu	a0,0(a0)
    800002e6:	00a58023          	sb	a0,0(a1)
    return;
    800002ea:	8082                	ret

00000000800002ec <print_uart_int>:
}

void print_uart_int(uint32_t addr)
{
    800002ec:	470d                	li	a4,3
    800002ee:	100005b7          	lui	a1,0x10000
    800002f2:	00001617          	auipc	a2,0x1
    800002f6:	55660813          	addi	a6,a2,1366 # 80001848 <bin_to_hex_table>
    800002fa:	86ba                	mv	a3,a4
    int i;
    for (i = 3; i > -1; i--)
    {
        uint8_t cur = (addr >> (i * 8)) & 0xff;
    800002fc:	070e                	slli	a4,a4,0x3
    800002fe:	00e5573b          	srlw	a4,a0,a4
    res[1] = bin_to_hex_table[inp & 0xf];
    80000302:	00f77793          	andi	a5,a4,15
    res[0] = bin_to_hex_table[(inp >> 4) & 0xf];
    80000306:	1762                	slli	a4,a4,0x38
    res[1] = bin_to_hex_table[inp & 0xf];
    80000308:	97c2                	add	a5,a5,a6
    res[0] = bin_to_hex_table[(inp >> 4) & 0xf];
    8000030a:	9371                	srli	a4,a4,0x3c
    8000030c:	00e80633          	add	a2,a6,a4
    res[1] = bin_to_hex_table[inp & 0xf];
    80000310:	0007c703          	lbu	a4,0(a5)
    res[0] = bin_to_hex_table[(inp >> 4) & 0xf];
    80000314:	00064783          	lbu	a5,0(a2)
    return *(volatile uint8_t *)addr;
    80000318:	0145c603          	lbu	a2,20(a1) # 10000014 <UART0_BASE+0x14>
    return read_reg_u8(UART_LINE_STATUS) & 0x20;
    8000031c:	02067613          	andi	a2,a2,32
        while (is_transmit_empty() == 0) {};
    80000320:	de65                	beqz	a2,80000318 <print_uart_int+0x2c>
    *loc_addr = value;
    80000322:	00f58023          	sb	a5,0(a1)
    return *(volatile uint8_t *)addr;
    80000326:	0145c603          	lbu	a2,20(a1)
    return read_reg_u8(UART_LINE_STATUS) & 0x20;
    8000032a:	02067613          	andi	a2,a2,32
        while (is_transmit_empty() == 0) {};
    8000032e:	de65                	beqz	a2,80000326 <print_uart_int+0x3a>
    *loc_addr = value;
    80000330:	00e58023          	sb	a4,0(a1)
    for (i = 3; i > -1; i--)
    80000334:	fff6871b          	addiw	a4,a3,-1
    80000338:	f2e9                	bnez	a3,800002fa <print_uart_int+0xe>
        uint8_t hex[2];
        bin_to_hex(cur, hex);
        write_serial(hex[0]);
        write_serial(hex[1]);
    }
}
    8000033a:	8082                	ret

000000008000033c <print_uart_addr>:
//把一个64位地址按16个大写十六进制字符输出到串口
void print_uart_addr(uint64_t addr)
{
    8000033c:	471d                	li	a4,7
    8000033e:	100005b7          	lui	a1,0x10000
    80000342:	00001617          	auipc	a2,0x1
    80000346:	50660813          	addi	a6,a2,1286 # 80001848 <bin_to_hex_table>
    8000034a:	86ba                	mv	a3,a4
    int i;
    for (i = 7; i > -1; i--)
    {
        uint8_t cur = (addr >> (i * 8)) & 0xff;
    8000034c:	070e                	slli	a4,a4,0x3
    8000034e:	00e55733          	srl	a4,a0,a4
    res[1] = bin_to_hex_table[inp & 0xf];
    80000352:	00f77793          	andi	a5,a4,15
    res[0] = bin_to_hex_table[(inp >> 4) & 0xf];
    80000356:	1762                	slli	a4,a4,0x38
    res[1] = bin_to_hex_table[inp & 0xf];
    80000358:	97c2                	add	a5,a5,a6
    res[0] = bin_to_hex_table[(inp >> 4) & 0xf];
    8000035a:	9371                	srli	a4,a4,0x3c
    8000035c:	00e80633          	add	a2,a6,a4
    res[1] = bin_to_hex_table[inp & 0xf];
    80000360:	0007c703          	lbu	a4,0(a5)
    res[0] = bin_to_hex_table[(inp >> 4) & 0xf];
    80000364:	00064783          	lbu	a5,0(a2)
    return *(volatile uint8_t *)addr;
    80000368:	0145c603          	lbu	a2,20(a1) # 10000014 <UART0_BASE+0x14>
    return read_reg_u8(UART_LINE_STATUS) & 0x20;
    8000036c:	02067613          	andi	a2,a2,32
        while (is_transmit_empty() == 0) {};
    80000370:	de65                	beqz	a2,80000368 <print_uart_addr+0x2c>
    *loc_addr = value;
    80000372:	00f58023          	sb	a5,0(a1)
    return *(volatile uint8_t *)addr;
    80000376:	0145c603          	lbu	a2,20(a1)
    return read_reg_u8(UART_LINE_STATUS) & 0x20;
    8000037a:	02067613          	andi	a2,a2,32
        while (is_transmit_empty() == 0) {};
    8000037e:	de65                	beqz	a2,80000376 <print_uart_addr+0x3a>
    *loc_addr = value;
    80000380:	00e58023          	sb	a4,0(a1)
    for (i = 7; i > -1; i--)
    80000384:	fff68713          	addi	a4,a3,-1
    80000388:	f2e9                	bnez	a3,8000034a <print_uart_addr+0xe>
        uint8_t hex[2];
        bin_to_hex(cur, hex);
        write_serial(hex[0]);
        write_serial(hex[1]);
    }
}
    8000038a:	8082                	ret

000000008000038c <print_uart_byte>:
    res[1] = bin_to_hex_table[inp & 0xf];
    8000038c:	00f57593          	andi	a1,a0,15
    80000390:	00001617          	auipc	a2,0x1
    res[0] = bin_to_hex_table[(inp >> 4) & 0xf];
    80000394:	8111                	srli	a0,a0,0x4
    res[1] = bin_to_hex_table[inp & 0xf];
    80000396:	4b860613          	addi	a2,a2,1208 # 80001848 <bin_to_hex_table>
    8000039a:	95b2                	add	a1,a1,a2
    res[0] = bin_to_hex_table[(inp >> 4) & 0xf];
    8000039c:	962a                	add	a2,a2,a0
    res[1] = bin_to_hex_table[inp & 0xf];
    8000039e:	0005c503          	lbu	a0,0(a1)
    res[0] = bin_to_hex_table[(inp >> 4) & 0xf];
    800003a2:	00064603          	lbu	a2,0(a2)
    800003a6:	100005b7          	lui	a1,0x10000
    return *(volatile uint8_t *)addr;
    800003aa:	0145c683          	lbu	a3,20(a1) # 10000014 <UART0_BASE+0x14>
    return read_reg_u8(UART_LINE_STATUS) & 0x20;
    800003ae:	0206f693          	andi	a3,a3,32
        while (is_transmit_empty() == 0) {};
    800003b2:	dee5                	beqz	a3,800003aa <print_uart_byte+0x1e>
    800003b4:	100006b7          	lui	a3,0x10000
    *loc_addr = value;
    800003b8:	00c68023          	sb	a2,0(a3) # 10000000 <UART0_BASE>
    return *(volatile uint8_t *)addr;
    800003bc:	0145c603          	lbu	a2,20(a1)
    return read_reg_u8(UART_LINE_STATUS) & 0x20;
    800003c0:	02067613          	andi	a2,a2,32
        while (is_transmit_empty() == 0) {};
    800003c4:	de65                	beqz	a2,800003bc <print_uart_byte+0x30>
    800003c6:	100005b7          	lui	a1,0x10000
    *loc_addr = value;
    800003ca:	00a58023          	sb	a0,0(a1) # 10000000 <UART0_BASE>
{
    uint8_t hex[2];
    bin_to_hex(byte, hex);
    write_serial(hex[0]);
    write_serial(hex[1]);
}
    800003ce:	8082                	ret

00000000800003d0 <main>:
        print_dec32(a[i]);
        if (i + 1 < n) uart_putc(' ');
    }
    print_uart("\r\n");
}
int main() {
    800003d0:	7179                	addi	sp,sp,-48
    800003d2:	f406                	sd	ra,40(sp)
    // 初始化向量数据
    int32_t data_a[8] = {1, 2, 3, 4, 5, 6, 7, 8};
    int32_t data_b[8] = {8, 7, 6, 5, 4, 3, 2, 1};
    
    // 将数据加载到向量中
    a = __riscv_vle32_v_i32m1(data_a, vl);
    800003d4:	00001517          	auipc	a0,0x1
    800003d8:	ea450513          	addi	a0,a0,-348 # 80001278 <handle_trap+0x62>
    800003dc:	cd047057          	vsetivli	zero,8,e32,m1,ta,ma
    800003e0:	02056407          	vle32.v	v8,(a0)
    b = __riscv_vle32_v_i32m1(data_b, vl);
    800003e4:	00001517          	auipc	a0,0x1
    800003e8:	e7450513          	addi	a0,a0,-396 # 80001258 <handle_trap+0x42>
    800003ec:	02056487          	vle32.v	v9,(a0)
    800003f0:	0028                	addi	a0,sp,8
    
    // 执行加法
    result = __riscv_vadd_vv_i32m1(a, b, vl);
    800003f2:	02848457          	vadd.vv	v8,v8,v9
    
    // 输出结果
    int32_t result_data[8];
    __riscv_vse32_v_i32m1(result_data, result, vl);
    800003f6:	02056427          	vse32.v	v8,(a0)
    800003fa:	000f4537          	lui	a0,0xf4
    800003fe:	24050513          	addi	a0,a0,576 # f4240 <putchar.buflen+0xf4200>
  for (unsigned i = 0; i < cycles; ++i) {
    80000402:	357d                	addiw	a0,a0,-1
    asm volatile("nop");
    80000404:	0001                	nop
  for (unsigned i = 0; i < cycles; ++i) {
    80000406:	fd75                	bnez	a0,80000402 <main+0x32>
    80000408:	100005b7          	lui	a1,0x10000
    8000040c:	08000613          	li	a2,128
    80000410:	46ed                	li	a3,27
    80000412:	470d                	li	a4,3
    *loc_addr = value;
    80000414:	00058223          	sb	zero,4(a1) # 10000004 <UART0_BASE+0x4>
    80000418:	00c58623          	sb	a2,12(a1)
    8000041c:	0c700793          	li	a5,199
    80000420:	00d58023          	sb	a3,0(a1)
    80000424:	02000693          	li	a3,32
    80000428:	00058223          	sb	zero,4(a1)
    8000042c:	00e58623          	sb	a4,12(a1)
    80000430:	05200613          	li	a2,82
    80000434:	00f58423          	sb	a5,8(a1)
    80000438:	00001717          	auipc	a4,0x1
    8000043c:	00d58823          	sb	a3,16(a1)
    80000440:	e7870693          	addi	a3,a4,-392 # 800012b0 <handle_trap+0x9a>
    80000444:	4739                	li	a4,14
    return *(volatile uint8_t *)addr;
    80000446:	0145c783          	lbu	a5,20(a1)
    return read_reg_u8(UART_LINE_STATUS) & 0x20;
    8000044a:	0207f793          	andi	a5,a5,32
        while (is_transmit_empty() == 0) {};
    8000044e:	dfe5                	beqz	a5,80000446 <main+0x76>
    *loc_addr = value;
    80000450:	00c58023          	sb	a2,0(a1)
        ++cur;
    80000454:	0505                	addi	a0,a0,1
    while (*cur != '\0')
    80000456:	00a68633          	add	a2,a3,a0
    8000045a:	00064603          	lbu	a2,0(a2)
    8000045e:	fee514e3          	bne	a0,a4,80000446 <main+0x76>

    debug_delay_cycles(1000000);
    init_uart(CLOCK_FREQUENCY, UART_BITRATE);
    print_uart("Result UART:\r\n");
    // UART 打印
    print_i32_array("data_a", data_a, 8);
    80000462:	00001517          	auipc	a0,0x1
    80000466:	00001597          	auipc	a1,0x1
    8000046a:	e4750513          	addi	a0,a0,-441 # 800012a9 <handle_trap+0x93>
    8000046e:	e1258593          	addi	a1,a1,-494 # 80001278 <handle_trap+0x62>
    80000472:	00000097          	auipc	ra,0x0
    80000476:	03a080e7          	jalr	58(ra) # 800004ac <print_i32_array>
    print_i32_array("data_b", data_b, 8);
    8000047a:	00001517          	auipc	a0,0x1
    8000047e:	00001597          	auipc	a1,0x1
    80000482:	e2550513          	addi	a0,a0,-475 # 8000129f <handle_trap+0x89>
    80000486:	dda58593          	addi	a1,a1,-550 # 80001258 <handle_trap+0x42>
    8000048a:	00000097          	auipc	ra,0x0
    8000048e:	022080e7          	jalr	34(ra) # 800004ac <print_i32_array>
    print_i32_array("result", result_data, 8);
    80000492:	00001517          	auipc	a0,0x1
    80000496:	e0650513          	addi	a0,a0,-506 # 80001298 <handle_trap+0x82>
    8000049a:	002c                	addi	a1,sp,8
    8000049c:	00000097          	auipc	ra,0x0
    800004a0:	010080e7          	jalr	16(ra) # 800004ac <print_i32_array>
    // for (int i = 0; i < 8; i++) {
    //     printf("%d ", result_data[i]);
    // }
    // printf("\n");

    return 0;
    800004a4:	4501                	li	a0,0
    800004a6:	70a2                	ld	ra,40(sp)
    800004a8:	6145                	addi	sp,sp,48
    800004aa:	8082                	ret

00000000800004ac <print_i32_array>:
static void print_i32_array(const char* name, const int32_t* a, int n) {
    800004ac:	7179                	addi	sp,sp,-48
    800004ae:	f422                	sd	s0,40(sp)
    800004b0:	f026                	sd	s1,32(sp)
    800004b2:	ec4a                	sd	s2,24(sp)
    800004b4:	e84e                	sd	s3,16(sp)
    800004b6:	00054683          	lbu	a3,0(a0)
    800004ba:	10000637          	lui	a2,0x10000
    800004be:	ce81                	beqz	a3,800004d6 <print_i32_array+0x2a>
    return *(volatile uint8_t *)addr;
    800004c0:	01464703          	lbu	a4,20(a2) # 10000014 <UART0_BASE+0x14>
    return read_reg_u8(UART_LINE_STATUS) & 0x20;
    800004c4:	02077713          	andi	a4,a4,32
        while (is_transmit_empty() == 0) {};
    800004c8:	df65                	beqz	a4,800004c0 <print_i32_array+0x14>
    *loc_addr = value;
    800004ca:	00d60023          	sb	a3,0(a2)
    while (*cur != '\0')
    800004ce:	00154683          	lbu	a3,1(a0)
        ++cur;
    800004d2:	0505                	addi	a0,a0,1
    while (*cur != '\0')
    800004d4:	f6f5                	bnez	a3,800004c0 <print_i32_array+0x14>
    800004d6:	4501                	li	a0,0
    800004d8:	03a00793          	li	a5,58
    800004dc:	00001697          	auipc	a3,0x1
    800004e0:	dfb68693          	addi	a3,a3,-517 # 800012d7 <handle_trap+0xc1>
    800004e4:	470d                	li	a4,3
    return *(volatile uint8_t *)addr;
    800004e6:	01464403          	lbu	s0,20(a2)
    return read_reg_u8(UART_LINE_STATUS) & 0x20;
    800004ea:	02047413          	andi	s0,s0,32
        while (is_transmit_empty() == 0) {};
    800004ee:	dc65                	beqz	s0,800004e6 <print_i32_array+0x3a>
    *loc_addr = value;
    800004f0:	00f60023          	sb	a5,0(a2)
        ++cur;
    800004f4:	0505                	addi	a0,a0,1
    while (*cur != '\0')
    800004f6:	00a687b3          	add	a5,a3,a0
    800004fa:	0007c783          	lbu	a5,0(a5)
    800004fe:	fee514e3          	bne	a0,a4,800004e6 <print_i32_array+0x3a>
    80000502:	4e01                	li	t3,0
    80000504:	10000eb7          	lui	t4,0x10000
    80000508:	03000813          	li	a6,48
    8000050c:	431d                	li	t1,7
    8000050e:	43a1                	li	t2,8
    80000510:	02000893          	li	a7,32
    80000514:	02d00293          	li	t0,45
    80000518:	ccccd537          	lui	a0,0xccccd
    8000051c:	890a                	mv	s2,sp
    8000051e:	4f29                	li	t5,10
    80000520:	ccd50513          	addi	a0,a0,-819 # ffffffffcccccccd <__global_pointer$+0xffffffff4cccac05>
    80000524:	02051993          	slli	s3,a0,0x20
    80000528:	4fbd                	li	t6,15
    8000052a:	a021                	j	80000532 <print_i32_array+0x86>
    8000052c:	0e05                	addi	t3,t3,1
    for (int i = 0; i < n; ++i) {
    8000052e:	087e0e63          	beq	t3,t2,800005ca <print_i32_array+0x11e>
        print_dec32(a[i]);
    80000532:	002e1693          	slli	a3,t3,0x2
    80000536:	96ae                	add	a3,a3,a1
    80000538:	4284                	lw	s1,0(a3)
    8000053a:	c4bd                	beqz	s1,800005a8 <print_i32_array+0xfc>
    if (v < 0) { uart_putc('-'); v = -v; }
    8000053c:	0004db63          	bgez	s1,80000552 <print_i32_array+0xa6>
    return *(volatile uint8_t *)addr;
    80000540:	01464683          	lbu	a3,20(a2)
    return read_reg_u8(UART_LINE_STATUS) & 0x20;
    80000544:	0206f693          	andi	a3,a3,32
        while (is_transmit_empty() == 0) {};
    80000548:	dee5                	beqz	a3,80000540 <print_i32_array+0x94>
    *loc_addr = value;
    8000054a:	005e8023          	sb	t0,0(t4) # 10000000 <UART0_BASE>
    8000054e:	409004bb          	negw	s1,s1
    80000552:	4681                	li	a3,0
    80000554:	8526                	mv	a0,s1
    80000556:	8436                	mv	s0,a3
    while (v && i < (int)sizeof(buf)) { buf[i++] = (char)('0' + (v % 10)); v /= 10; }
    80000558:	02049713          	slli	a4,s1,0x20
    8000055c:	0685                	addi	a3,a3,1
    8000055e:	03373733          	mulhu	a4,a4,s3
    80000562:	02375493          	srli	s1,a4,0x23
    80000566:	00149793          	slli	a5,s1,0x1
    8000056a:	00349713          	slli	a4,s1,0x3
    8000056e:	973e                	add	a4,a4,a5
    80000570:	40e50733          	sub	a4,a0,a4
    80000574:	03076713          	ori	a4,a4,48
    80000578:	008907b3          	add	a5,s2,s0
    8000057c:	00e78023          	sb	a4,0(a5)
    80000580:	01e56463          	bltu	a0,t5,80000588 <print_i32_array+0xdc>
    80000584:	fdf468e3          	bltu	s0,t6,80000554 <print_i32_array+0xa8>
    while (i--) uart_putc(buf[i]);
    80000588:	16fd                	addi	a3,a3,-1
    8000058a:	00d90533          	add	a0,s2,a3
    8000058e:	00054703          	lbu	a4,0(a0)
    return *(volatile uint8_t *)addr;
    80000592:	01464503          	lbu	a0,20(a2)
    return read_reg_u8(UART_LINE_STATUS) & 0x20;
    80000596:	02057513          	andi	a0,a0,32
        while (is_transmit_empty() == 0) {};
    8000059a:	dd65                	beqz	a0,80000592 <print_i32_array+0xe6>
    *loc_addr = value;
    8000059c:	00ee8023          	sb	a4,0(t4)
    800005a0:	f6e5                	bnez	a3,80000588 <print_i32_array+0xdc>
        if (i + 1 < n) uart_putc(' ');
    800005a2:	006e1c63          	bne	t3,t1,800005ba <print_i32_array+0x10e>
    800005a6:	b759                	j	8000052c <print_i32_array+0x80>
    return *(volatile uint8_t *)addr;
    800005a8:	01464683          	lbu	a3,20(a2)
    return read_reg_u8(UART_LINE_STATUS) & 0x20;
    800005ac:	0206f693          	andi	a3,a3,32
    800005b0:	dee5                	beqz	a3,800005a8 <print_i32_array+0xfc>
    *loc_addr = value;
    800005b2:	010e8023          	sb	a6,0(t4)
    800005b6:	f66e0be3          	beq	t3,t1,8000052c <print_i32_array+0x80>
    return *(volatile uint8_t *)addr;
    800005ba:	01464503          	lbu	a0,20(a2)
    return read_reg_u8(UART_LINE_STATUS) & 0x20;
    800005be:	02057513          	andi	a0,a0,32
        while (is_transmit_empty() == 0) {};
    800005c2:	dd65                	beqz	a0,800005ba <print_i32_array+0x10e>
    *loc_addr = value;
    800005c4:	011e8023          	sb	a7,0(t4)
    800005c8:	b795                	j	8000052c <print_i32_array+0x80>
    800005ca:	4501                	li	a0,0
    800005cc:	4735                	li	a4,13
    800005ce:	100005b7          	lui	a1,0x10000
    800005d2:	00001697          	auipc	a3,0x1
    800005d6:	cd468693          	addi	a3,a3,-812 # 800012a6 <handle_trap+0x90>
    800005da:	4789                	li	a5,2
    return *(volatile uint8_t *)addr;
    800005dc:	01464403          	lbu	s0,20(a2)
    return read_reg_u8(UART_LINE_STATUS) & 0x20;
    800005e0:	02047413          	andi	s0,s0,32
        while (is_transmit_empty() == 0) {};
    800005e4:	dc65                	beqz	s0,800005dc <print_i32_array+0x130>
    *loc_addr = value;
    800005e6:	00e58023          	sb	a4,0(a1) # 10000000 <UART0_BASE>
        ++cur;
    800005ea:	0505                	addi	a0,a0,1
    while (*cur != '\0')
    800005ec:	00a68733          	add	a4,a3,a0
    800005f0:	00074703          	lbu	a4,0(a4)
    800005f4:	fef514e3          	bne	a0,a5,800005dc <print_i32_array+0x130>
}
    800005f8:	7422                	ld	s0,40(sp)
    800005fa:	7482                	ld	s1,32(sp)
    800005fc:	6962                	ld	s2,24(sp)
    800005fe:	69c2                	ld	s3,16(sp)
    80000600:	6145                	addi	sp,sp,48
    80000602:	8082                	ret

0000000080000604 <setStats>:
    uintptr_t csr = read_csr(name); \
    if (!enable) { csr -= counters[i]; counter_names[i] = #name; } \
    counters[i++] = csr; \
  } while (0)

  READ_CTR(mcycle);
    80000604:	b00025f3          	csrr	a1,mcycle
    80000608:	00001617          	auipc	a2,0x1
    8000060c:	2c060613          	addi	a2,a2,704 # 800018c8 <counters.0>
    80000610:	6214                	ld	a3,0(a2)
    80000612:	00a03533          	snez	a0,a0
    80000616:	157d                	addi	a0,a0,-1
    80000618:	8ee9                	and	a3,a3,a0
    8000061a:	8d95                	sub	a1,a1,a3
    8000061c:	e20c                	sd	a1,0(a2)
  READ_CTR(minstret);
    8000061e:	b02025f3          	csrr	a1,minstret
    80000622:	6614                	ld	a3,8(a2)
    80000624:	8d75                	and	a0,a0,a3
    80000626:	8d89                	sub	a1,a1,a0
    80000628:	e60c                	sd	a1,8(a2)

#undef READ_CTR
}
    8000062a:	8082                	ret

000000008000062c <tohost_exit>:
  } while(pos < end_signature);
}

void __attribute__((noreturn)) tohost_exit(uintptr_t code)
{
  tohost = (code << 1) | 1;
    8000062c:	0506                	slli	a0,a0,0x1
    8000062e:	0505                	addi	a0,a0,1
    80000630:	00001597          	auipc	a1,0x1
    80000634:	24a5b823          	sd	a0,592(a1) # 80001880 <tohost>
  while (1);
    80000638:	a001                	j	80000638 <tohost_exit+0xc>
  tohost = (code << 1) | 1;
    8000063a:	00001517          	auipc	a0,0x1
    8000063e:	6585                	lui	a1,0x1
    80000640:	a7358593          	addi	a1,a1,-1421 # a73 <putchar.buflen+0xa33>
    80000644:	24b53323          	sd	a1,582(a0) # 80001880 <tohost>
  while (1);
    80000648:	a001                	j	80000648 <tohost_exit+0x1c>

000000008000064a <exit>:
}

void exit(int code)
{
  //flush_signature_cachelines();
  asm("ecall");
    8000064a:	00000073          	ecall
  tohost = (code << 1) | 1;
    8000064e:	0506                	slli	a0,a0,0x1
    80000650:	0505                	addi	a0,a0,1
    80000652:	00001597          	auipc	a1,0x1
    80000656:	22a5b723          	sd	a0,558(a1) # 80001880 <tohost>
  while (1);
    8000065a:	a001                	j	8000065a <exit+0x10>

000000008000065c <abort>:
  asm("ecall");
    8000065c:	00000073          	ecall
  tohost = (code << 1) | 1;
    80000660:	00001517          	auipc	a0,0x1
    80000664:	10d00593          	li	a1,269
    80000668:	22b53023          	sd	a1,544(a0) # 80001880 <tohost>
  while (1);
    8000066c:	a001                	j	8000066c <abort+0x10>

000000008000066e <printstr>:
{
  exit(128 + SIGABRT);
}

void printstr(const char* s)
{
    8000066e:	4581                	li	a1,0
}

size_t strlen(const char *s)
{
  const char *p = s;
  while (*p)
    80000670:	00b50633          	add	a2,a0,a1
    80000674:	00064603          	lbu	a2,0(a2)
    80000678:	0585                	addi	a1,a1,1
    8000067a:	fa7d                	bnez	a2,80000670 <printstr+0x2>
    8000067c:	7119                	addi	sp,sp,-128
    8000067e:	fc86                	sd	ra,120(sp)
    80000680:	f8a2                	sd	s0,112(sp)
    80000682:	0100                	addi	s0,sp,128
    80000684:	fc017113          	andi	sp,sp,-64
  volatile uint64_t magic_mem[8] __attribute__((aligned(64)));
    80000688:	15fd                	addi	a1,a1,-1
    8000068a:	04000613          	li	a2,64
  magic_mem[0] = which;
    8000068e:	e032                	sd	a2,0(sp)
    80000690:	4605                	li	a2,1
  magic_mem[1] = arg0;
    80000692:	e432                	sd	a2,8(sp)
  tohost = (uintptr_t)magic_mem;
    80000694:	00001617          	auipc	a2,0x1
  magic_mem[2] = arg1;
    80000698:	e82a                	sd	a0,16(sp)
    8000069a:	850a                	mv	a0,sp
  magic_mem[3] = arg2;
    8000069c:	ec2e                	sd	a1,24(sp)
  __sync_synchronize();
    8000069e:	0330000f          	fence	rw,rw
  tohost = (uintptr_t)magic_mem;
    800006a2:	1ea63623          	sd	a0,492(a2) # 80001880 <tohost>
    800006a6:	00001517          	auipc	a0,0x1
  while (fromhost == 0)
    800006aa:	21a53583          	ld	a1,538(a0) # 800018c0 <fromhost>
    800006ae:	ddf5                	beqz	a1,800006aa <printstr+0x3c>
  fromhost = 0;
    800006b0:	20053d23          	sd	zero,538(a0)
  __sync_synchronize();
    800006b4:	0330000f          	fence	rw,rw
  return magic_mem[0];
    800006b8:	00013003          	ld	zero,0(sp)
}
    800006bc:	f8040113          	addi	sp,s0,-128
    800006c0:	70e6                	ld	ra,120(sp)
    800006c2:	7446                	ld	s0,112(sp)
    800006c4:	6109                	addi	sp,sp,128
    800006c6:	8082                	ret

00000000800006c8 <strlen>:
{
    800006c8:	4581                	li	a1,0
  while (*p)
    800006ca:	00b50633          	add	a2,a0,a1
    800006ce:	00064603          	lbu	a2,0(a2)
    800006d2:	0585                	addi	a1,a1,1
    800006d4:	fa7d                	bnez	a2,800006ca <strlen+0x2>
    p++;
  return p - s;
    800006d6:	fff58513          	addi	a0,a1,-1
    800006da:	8082                	ret

00000000800006dc <thread_entry>:
  while (cid != 0);
    800006dc:	c111                	beqz	a0,800006e0 <thread_entry+0x4>
    800006de:	a001                	j	800006de <thread_entry+0x2>
}
    800006e0:	8082                	ret
{
    800006e2:	7119                	addi	sp,sp,-128
    800006e4:	fc86                	sd	ra,120(sp)
    800006e6:	f8a2                	sd	s0,112(sp)
    800006e8:	0100                	addi	s0,sp,128
    800006ea:	fc017113          	andi	sp,sp,-64
    800006ee:	04000513          	li	a0,64
    800006f2:	4585                	li	a1,1
  magic_mem[0] = which;
    800006f4:	e02a                	sd	a0,0(sp)
  magic_mem[2] = arg1;
    800006f6:	00001517          	auipc	a0,0x1
  magic_mem[1] = arg0;
    800006fa:	e42e                	sd	a1,8(sp)
    800006fc:	45dd                	li	a1,23
  magic_mem[2] = arg1;
    800006fe:	bc950513          	addi	a0,a0,-1079 # 800012bf <handle_trap+0xa9>
    80000702:	e82a                	sd	a0,16(sp)
  tohost = (uintptr_t)magic_mem;
    80000704:	00001517          	auipc	a0,0x1
  magic_mem[3] = arg2;
    80000708:	ec2e                	sd	a1,24(sp)
    8000070a:	858a                	mv	a1,sp
  __sync_synchronize();
    8000070c:	0330000f          	fence	rw,rw
  tohost = (uintptr_t)magic_mem;
    80000710:	16b53e23          	sd	a1,380(a0) # 80001880 <tohost>
    80000714:	00001517          	auipc	a0,0x1
  while (fromhost == 0)
    80000718:	1ac53583          	ld	a1,428(a0) # 800018c0 <fromhost>
    8000071c:	ddf5                	beqz	a1,80000718 <thread_entry+0x3c>
  fromhost = 0;
    8000071e:	1a053623          	sd	zero,428(a0)
  __sync_synchronize();
    80000722:	0330000f          	fence	rw,rw
  return magic_mem[0];
    80000726:	00013003          	ld	zero,0(sp)
  return -1;
    8000072a:	557d                	li	a0,-1
    8000072c:	f8040113          	addi	sp,s0,-128
    80000730:	70e6                	ld	ra,120(sp)
    80000732:	7446                	ld	s0,112(sp)
    80000734:	6109                	addi	sp,sp,128
    80000736:	8082                	ret

0000000080000738 <_init>:
{
    80000738:	1141                	addi	sp,sp,-16
    8000073a:	e406                	sd	ra,8(sp)
  asm volatile("mv %0, tp" : "=r"(thread_pointer));
    8000073c:	8892                	mv	a7,tp
  if ((((uintptr_t)dest | (uintptr_t)src | len) & (sizeof(uintptr_t)-1)) == 0) {
    8000073e:	00001617          	auipc	a2,0x1
    80000742:	00001717          	auipc	a4,0x1
    80000746:	2ae60793          	addi	a5,a2,686 # 800019ec <_tdata_begin>
    8000074a:	2aa70813          	addi	a6,a4,682 # 800019ec <_tdata_begin>
    8000074e:	40f80633          	sub	a2,a6,a5
    80000752:	0117e733          	or	a4,a5,a7
    80000756:	8f51                	or	a4,a4,a2
    80000758:	00777693          	andi	a3,a4,7
    8000075c:	00c882b3          	add	t0,a7,a2
    80000760:	ce91                	beqz	a3,8000077c <_init+0x44>
    while (d < (char*)(dest + len))
    80000762:	ce0d                	beqz	a2,8000079c <_init+0x64>
    80000764:	8646                	mv	a2,a7
      *d++ = *s++;
    80000766:	0007c683          	lbu	a3,0(a5)
    8000076a:	0785                	addi	a5,a5,1
    8000076c:	00160713          	addi	a4,a2,1
    80000770:	00d60023          	sb	a3,0(a2)
    80000774:	863a                	mv	a2,a4
    80000776:	fe5768e3          	bltu	a4,t0,80000766 <_init+0x2e>
    8000077a:	a00d                	j	8000079c <_init+0x64>
    8000077c:	00001797          	auipc	a5,0x1
    80000780:	27078793          	addi	a5,a5,624 # 800019ec <_tdata_begin>
    80000784:	40f80633          	sub	a2,a6,a5
    while (d < (uintptr_t*)(dest + len))
    80000788:	ca11                	beqz	a2,8000079c <_init+0x64>
    8000078a:	8646                	mv	a2,a7
      *d++ = *s++;
    8000078c:	6394                	ld	a3,0(a5)
    8000078e:	07a1                	addi	a5,a5,8
    80000790:	00860713          	addi	a4,a2,8
    80000794:	e214                	sd	a3,0(a2)
    80000796:	863a                	mv	a2,a4
    while (d < (uintptr_t*)(dest + len))
    80000798:	fe576ae3          	bltu	a4,t0,8000078c <_init+0x54>
  memset(thread_pointer + tdata_size, 0, tbss_size);
    8000079c:	00001617          	auipc	a2,0x1
  if ((((uintptr_t)dest | len) & (sizeof(uintptr_t)-1)) == 0) {
    800007a0:	00001697          	auipc	a3,0x1
  memset(thread_pointer + tdata_size, 0, tbss_size);
    800007a4:	25060613          	addi	a2,a2,592 # 800019ec <_tdata_begin>
  if ((((uintptr_t)dest | len) & (sizeof(uintptr_t)-1)) == 0) {
    800007a8:	2a468793          	addi	a5,a3,676 # 80001a44 <_end>
  memset(thread_pointer + tdata_size, 0, tbss_size);
    800007ac:	40c80733          	sub	a4,a6,a2
  if ((((uintptr_t)dest | len) & (sizeof(uintptr_t)-1)) == 0) {
    800007b0:	410786b3          	sub	a3,a5,a6
  memset(thread_pointer + tdata_size, 0, tbss_size);
    800007b4:	9746                	add	a4,a4,a7
  if ((((uintptr_t)dest | len) & (sizeof(uintptr_t)-1)) == 0) {
    800007b6:	8ed9                	or	a3,a3,a4
    800007b8:	8a9d                	andi	a3,a3,7
    800007ba:	40c78633          	sub	a2,a5,a2
    800007be:	9646                	add	a2,a2,a7
    800007c0:	ce81                	beqz	a3,800007d8 <_init+0xa0>
    800007c2:	410786b3          	sub	a3,a5,a6
    while (d < (char*)(dest + len))
    800007c6:	c29d                	beqz	a3,800007ec <_init+0xb4>
      *d++ = byte;
    800007c8:	00170693          	addi	a3,a4,1
    800007cc:	00070023          	sb	zero,0(a4)
    800007d0:	8736                	mv	a4,a3
    800007d2:	fec6ebe3          	bltu	a3,a2,800007c8 <_init+0x90>
    800007d6:	a819                	j	800007ec <_init+0xb4>
    800007d8:	410786b3          	sub	a3,a5,a6
    while (d < (uintptr_t*)(dest + len))
    800007dc:	ca81                	beqz	a3,800007ec <_init+0xb4>
      *d++ = word;
    800007de:	00870693          	addi	a3,a4,8
    800007e2:	00073023          	sd	zero,0(a4)
    800007e6:	8736                	mv	a4,a3
    while (d < (uintptr_t*)(dest + len))
    800007e8:	fec6ebe3          	bltu	a3,a2,800007de <_init+0xa6>
  thread_entry(cid, nc);
    800007ec:	00000097          	auipc	ra,0x0
    800007f0:	ef0080e7          	jalr	-272(ra) # 800006dc <thread_entry>
  int ret = main(0, 0);
    800007f4:	4501                	li	a0,0
    800007f6:	4581                	li	a1,0
    800007f8:	00000097          	auipc	ra,0x0
    800007fc:	bd8080e7          	jalr	-1064(ra) # 800003d0 <main>
  asm("ecall");
    80000800:	00000073          	ecall
  tohost = (code << 1) | 1;
    80000804:	0506                	slli	a0,a0,0x1
    80000806:	0505                	addi	a0,a0,1
    80000808:	00001597          	auipc	a1,0x1
    8000080c:	06a5bc23          	sd	a0,120(a1) # 80001880 <tohost>
  while (1);
    80000810:	a001                	j	80000810 <_init+0xd8>

0000000080000812 <putchar>:
  buf[buflen++] = ch;
    80000812:	000005b7          	lui	a1,0x0
    80000816:	004586b3          	add	a3,a1,tp
    8000081a:	0406a603          	lw	a2,64(a3)
    8000081e:	000005b7          	lui	a1,0x0
    80000822:	004585b3          	add	a1,a1,tp
    80000826:	00058593          	mv	a1,a1
    8000082a:	00c58733          	add	a4,a1,a2
    8000082e:	00a70023          	sb	a0,0(a4)
    80000832:	4729                	li	a4,10
    80000834:	2605                	addiw	a2,a2,1
    80000836:	04c6a023          	sw	a2,64(a3)
  if (ch == '\n' || buflen == sizeof(buf))
    8000083a:	00e50863          	beq	a0,a4,8000084a <putchar+0x38>
    8000083e:	04000513          	li	a0,64
    80000842:	00a60463          	beq	a2,a0,8000084a <putchar+0x38>
  return 0;
    80000846:	4501                	li	a0,0
    80000848:	8082                	ret
    8000084a:	7119                	addi	sp,sp,-128
    8000084c:	fc86                	sd	ra,120(sp)
    8000084e:	f8a2                	sd	s0,112(sp)
    80000850:	0100                	addi	s0,sp,128
    80000852:	fc017113          	andi	sp,sp,-64
    80000856:	04068513          	addi	a0,a3,64
    8000085a:	04000693          	li	a3,64
  magic_mem[0] = which;
    8000085e:	e036                	sd	a3,0(sp)
    80000860:	4685                	li	a3,1
  magic_mem[1] = arg0;
    80000862:	e436                	sd	a3,8(sp)
  tohost = (uintptr_t)magic_mem;
    80000864:	00001697          	auipc	a3,0x1
  magic_mem[2] = arg1;
    80000868:	e82e                	sd	a1,16(sp)
    8000086a:	858a                	mv	a1,sp
  magic_mem[3] = arg2;
    8000086c:	ec32                	sd	a2,24(sp)
  __sync_synchronize();
    8000086e:	0330000f          	fence	rw,rw
  tohost = (uintptr_t)magic_mem;
    80000872:	00b6be23          	sd	a1,28(a3) # 80001880 <tohost>
    80000876:	00001597          	auipc	a1,0x1
  while (fromhost == 0)
    8000087a:	04a5b603          	ld	a2,74(a1) # 800018c0 <fromhost>
    8000087e:	de75                	beqz	a2,8000087a <putchar+0x68>
  fromhost = 0;
    80000880:	0405b523          	sd	zero,74(a1)
  __sync_synchronize();
    80000884:	0330000f          	fence	rw,rw
  return magic_mem[0];
    80000888:	00013003          	ld	zero,0(sp)
    buflen = 0;
    8000088c:	00052023          	sw	zero,0(a0)
    80000890:	f8040113          	addi	sp,s0,-128
    80000894:	70e6                	ld	ra,120(sp)
    80000896:	7446                	ld	s0,112(sp)
    80000898:	6109                	addi	sp,sp,128
  return 0;
    8000089a:	4501                	li	a0,0
    8000089c:	8082                	ret

000000008000089e <printhex>:
{
    8000089e:	7131                	addi	sp,sp,-192
    800008a0:	fd06                	sd	ra,184(sp)
    800008a2:	f922                	sd	s0,176(sp)
    800008a4:	0180                	addi	s0,sp,192
    800008a6:	fc017113          	andi	sp,sp,-64
  for (i = 0; i < 16; i++)
    800008aa:	03e10593          	addi	a1,sp,62
    800008ae:	02e10613          	addi	a2,sp,46
    800008b2:	46a9                	li	a3,10
    800008b4:	a811                	j	800008c8 <printhex+0x2a>
    800008b6:	05700793          	li	a5,87
    str[15-i] = (x & 0xF) + ((x & 0xF) < 10 ? '0' : 'a'-10);
    800008ba:	973e                	add	a4,a4,a5
    800008bc:	00e58023          	sb	a4,0(a1)
  for (i = 0; i < 16; i++)
    800008c0:	15fd                	addi	a1,a1,-1
    x >>= 4;
    800008c2:	8111                	srli	a0,a0,0x4
  for (i = 0; i < 16; i++)
    800008c4:	00c58963          	beq	a1,a2,800008d6 <printhex+0x38>
    str[15-i] = (x & 0xF) + ((x & 0xF) < 10 ? '0' : 'a'-10);
    800008c8:	00f57713          	andi	a4,a0,15
    800008cc:	fed775e3          	bgeu	a4,a3,800008b6 <printhex+0x18>
    800008d0:	03000793          	li	a5,48
    800008d4:	b7dd                	j	800008ba <printhex+0x1c>
    800008d6:	4501                	li	a0,0
  str[16] = 0;
    800008d8:	02010fa3          	sb	zero,63(sp)
    800008dc:	02f10593          	addi	a1,sp,47
  while (*p)
    800008e0:	00a58633          	add	a2,a1,a0
    800008e4:	00064603          	lbu	a2,0(a2)
    800008e8:	0505                	addi	a0,a0,1
    800008ea:	fa7d                	bnez	a2,800008e0 <printhex+0x42>
  volatile uint64_t magic_mem[8] __attribute__((aligned(64)));
    800008ec:	157d                	addi	a0,a0,-1
    800008ee:	04000593          	li	a1,64
  magic_mem[0] = which;
    800008f2:	e0ae                	sd	a1,64(sp)
    800008f4:	4585                	li	a1,1
  magic_mem[1] = arg0;
    800008f6:	e4ae                	sd	a1,72(sp)
    800008f8:	02f10593          	addi	a1,sp,47
  magic_mem[2] = arg1;
    800008fc:	e8ae                	sd	a1,80(sp)
  tohost = (uintptr_t)magic_mem;
    800008fe:	00001597          	auipc	a1,0x1
  magic_mem[3] = arg2;
    80000902:	ecaa                	sd	a0,88(sp)
    80000904:	0088                	addi	a0,sp,64
  __sync_synchronize();
    80000906:	0330000f          	fence	rw,rw
  tohost = (uintptr_t)magic_mem;
    8000090a:	f8a5b123          	sd	a0,-126(a1) # 80001880 <tohost>
    8000090e:	00001517          	auipc	a0,0x1
  while (fromhost == 0)
    80000912:	fb253583          	ld	a1,-78(a0) # 800018c0 <fromhost>
    80000916:	ddf5                	beqz	a1,80000912 <printhex+0x74>
  fromhost = 0;
    80000918:	fa053923          	sd	zero,-78(a0)
  __sync_synchronize();
    8000091c:	0330000f          	fence	rw,rw
  return magic_mem[0];
    80000920:	04013003          	ld	zero,64(sp)
}
    80000924:	f4040113          	addi	sp,s0,-192
    80000928:	70ea                	ld	ra,184(sp)
    8000092a:	744a                	ld	s0,176(sp)
    8000092c:	6129                	addi	sp,sp,192
    8000092e:	8082                	ret

0000000080000930 <printf>:
{
    80000930:	715d                	addi	sp,sp,-80
    80000932:	e406                	sd	ra,8(sp)
    80000934:	82aa                	mv	t0,a0
    80000936:	fc3e                	sd	a5,56(sp)
    80000938:	e0c2                	sd	a6,64(sp)
    8000093a:	e4c6                	sd	a7,72(sp)
    8000093c:	ec2e                	sd	a1,24(sp)
    8000093e:	f032                	sd	a2,32(sp)
    80000940:	f436                	sd	a3,40(sp)
    80000942:	f83a                	sd	a4,48(sp)
    80000944:	0828                	addi	a0,sp,24
  va_start(ap, fmt);
    80000946:	e02a                	sd	a0,0(sp)
  vprintfmt((void*)putchar, 0, fmt, ap);
    80000948:	00000517          	auipc	a0,0x0
    8000094c:	eca50513          	addi	a0,a0,-310 # 80000812 <putchar>
    80000950:	0834                	addi	a3,sp,24
    80000952:	4581                	li	a1,0
    80000954:	8616                	mv	a2,t0
    80000956:	00000097          	auipc	ra,0x0
    8000095a:	010080e7          	jalr	16(ra) # 80000966 <vprintfmt>
  return 0; // incorrect return value, but who cares, anyway?
    8000095e:	4501                	li	a0,0
    80000960:	60a2                	ld	ra,8(sp)
    80000962:	6161                	addi	sp,sp,80
    80000964:	8082                	ret

0000000080000966 <vprintfmt>:
{
    80000966:	7149                	addi	sp,sp,-368
    80000968:	f686                	sd	ra,360(sp)
    8000096a:	f2a2                	sd	s0,352(sp)
    8000096c:	eea6                	sd	s1,344(sp)
    8000096e:	eaca                	sd	s2,336(sp)
    80000970:	e6ce                	sd	s3,328(sp)
    80000972:	e2d2                	sd	s4,320(sp)
    80000974:	fe56                	sd	s5,312(sp)
    80000976:	fa5a                	sd	s6,304(sp)
    80000978:	f65e                	sd	s7,296(sp)
    8000097a:	f262                	sd	s8,288(sp)
    8000097c:	ee66                	sd	s9,280(sp)
    8000097e:	ea6a                	sd	s10,272(sp)
    80000980:	e66e                	sd	s11,264(sp)
    80000982:	8a36                	mv	s4,a3
    80000984:	8b32                	mv	s6,a2
    80000986:	8cae                	mv	s9,a1
    80000988:	892a                	mv	s2,a0
    8000098a:	02500c13          	li	s8,37
    8000098e:	5d59                	li	s10,-10
    80000990:	4aa5                	li	s5,9
    while ((ch = *(unsigned char *) fmt) != '%') {
    80000992:	001b0993          	addi	s3,s6,1
    80000996:	fff9c503          	lbu	a0,-1(s3)
    8000099a:	01850b63          	beq	a0,s8,800009b0 <vprintfmt+0x4a>
    8000099e:	24050b63          	beqz	a0,80000bf4 <vprintfmt+0x28e>
      putch(ch, putdat);
    800009a2:	85e6                	mv	a1,s9
    800009a4:	9902                	jalr	s2
    while ((ch = *(unsigned char *) fmt) != '%') {
    800009a6:	0985                	addi	s3,s3,1
    800009a8:	fff9c503          	lbu	a0,-1(s3)
    800009ac:	ff8519e3          	bne	a0,s8,8000099e <vprintfmt+0x38>
    800009b0:	e052                	sd	s4,0(sp)
    800009b2:	4501                	li	a0,0
    800009b4:	02000a13          	li	s4,32
    800009b8:	5bfd                	li	s7,-1
    800009ba:	8b4e                	mv	s6,s3
    800009bc:	5dfd                	li	s11,-1
    800009be:	05500413          	li	s0,85
    800009c2:	a031                	j	800009ce <vprintfmt+0x68>
      if (width < 0)
    800009c4:	43fbd693          	srai	a3,s7,0x3f
    800009c8:	00c6edb3          	or	s11,a3,a2
    800009cc:	8bae                	mv	s7,a1
    800009ce:	017025b3          	sgtz	a1,s7
    800009d2:	40b005bb          	negw	a1,a1
    800009d6:	0175f633          	and	a2,a1,s7
    switch (ch = *(unsigned char *) fmt++) {
    800009da:	000b4583          	lbu	a1,0(s6)
    800009de:	fdd58713          	addi	a4,a1,-35
    800009e2:	18e46d63          	bltu	s0,a4,80000b7c <vprintfmt+0x216>
    800009e6:	86da                	mv	a3,s6
    800009e8:	070e                	slli	a4,a4,0x3
    800009ea:	00001797          	auipc	a5,0x1
    800009ee:	8fe78793          	addi	a5,a5,-1794 # 800012e8 <handle_trap+0xd2>
    800009f2:	973e                	add	a4,a4,a5
    800009f4:	6318                	ld	a4,0(a4)
    800009f6:	0b05                	addi	s6,s6,1
    800009f8:	8702                	jr	a4
    800009fa:	8a2e                	mv	s4,a1
    800009fc:	bff9                	j	800009da <vprintfmt+0x74>
    800009fe:	8bb2                	mv	s7,a2
    80000a00:	bfe9                	j	800009da <vprintfmt+0x74>
    80000a02:	4601                	li	a2,0
        precision = precision * 10 + ch - '0';
    80000a04:	00161713          	slli	a4,a2,0x1
    80000a08:	060e                	slli	a2,a2,0x3
    80000a0a:	963a                	add	a2,a2,a4
    80000a0c:	962e                	add	a2,a2,a1
        ch = *fmt;
    80000a0e:	0016c583          	lbu	a1,1(a3)
    80000a12:	0685                	addi	a3,a3,1
        if (ch < '0' || ch > '9')
    80000a14:	fc658713          	addi	a4,a1,-58
        precision = precision * 10 + ch - '0';
    80000a18:	fd06061b          	addiw	a2,a2,-48
        if (ch < '0' || ch > '9')
    80000a1c:	ffa774e3          	bgeu	a4,s10,80000a04 <vprintfmt+0x9e>
    80000a20:	8b36                	mv	s6,a3
    80000a22:	85b2                	mv	a1,a2
      if (width < 0)
    80000a24:	fa0bc0e3          	bltz	s7,800009c4 <vprintfmt+0x5e>
    80000a28:	85de                	mv	a1,s7
    80000a2a:	bf69                	j	800009c4 <vprintfmt+0x5e>
    80000a2c:	6582                	ld	a1,0(sp)
      precision = va_arg(ap, int);
    80000a2e:	4190                	lw	a2,0(a1)
    80000a30:	05a1                	addi	a1,a1,8
    80000a32:	e02e                	sd	a1,0(sp)
    80000a34:	85b2                	mv	a1,a2
      if (width < 0)
    80000a36:	f80bc7e3          	bltz	s7,800009c4 <vprintfmt+0x5e>
    80000a3a:	b7fd                	j	80000a28 <vprintfmt+0xc2>
      lflag++;
    80000a3c:	2505                	addiw	a0,a0,1
      goto reswitch;
    80000a3e:	bf41                	j	800009ce <vprintfmt+0x68>
    80000a40:	49a1                	li	s3,8
  if (lflag >= 2)
    80000a42:	4589                	li	a1,2
    80000a44:	08b54e63          	blt	a0,a1,80000ae0 <vprintfmt+0x17a>
    80000a48:	a869                	j	80000ae2 <vprintfmt+0x17c>
    80000a4a:	49a9                	li	s3,10
    80000a4c:	4589                	li	a1,2
    80000a4e:	08b54963          	blt	a0,a1,80000ae0 <vprintfmt+0x17a>
    80000a52:	a841                	j	80000ae2 <vprintfmt+0x17c>
    80000a54:	6502                	ld	a0,0(sp)
      if ((p = va_arg(ap, char *)) == NULL)
    80000a56:	00053983          	ld	s3,0(a0)
    80000a5a:	00099663          	bnez	s3,80000a66 <vprintfmt+0x100>
    80000a5e:	00001997          	auipc	s3,0x1
    80000a62:	87d98993          	addi	s3,s3,-1923 # 800012db <handle_trap+0xc5>
      if (width > 0 && padc != '-')
    80000a66:	15705e63          	blez	s7,80000bc2 <vprintfmt+0x25c>
    80000a6a:	02d00513          	li	a0,45
    80000a6e:	12aa0363          	beq	s4,a0,80000b94 <vprintfmt+0x22e>
    80000a72:	854e                	mv	a0,s3
}

size_t strnlen(const char *s, size_t n)
{
  const char *p = s;
  while (n-- && *p)
    80000a74:	000d8d63          	beqz	s11,80000a8e <vprintfmt+0x128>
    80000a78:	01b985b3          	add	a1,s3,s11
    80000a7c:	866e                	mv	a2,s11
    80000a7e:	854e                	mv	a0,s3
    80000a80:	00054683          	lbu	a3,0(a0)
    80000a84:	c689                	beqz	a3,80000a8e <vprintfmt+0x128>
    80000a86:	167d                	addi	a2,a2,-1
    p++;
    80000a88:	0505                	addi	a0,a0,1
  while (n-- && *p)
    80000a8a:	fa7d                	bnez	a2,80000a80 <vprintfmt+0x11a>
    80000a8c:	852e                	mv	a0,a1
  return p - s;
    80000a8e:	40a98533          	sub	a0,s3,a0
        for (width -= strnlen(p, precision); width > 0; width--)
    80000a92:	00ab843b          	addw	s0,s7,a0
    80000a96:	10805063          	blez	s0,80000b96 <vprintfmt+0x230>
    80000a9a:	955e                	add	a0,a0,s7
    80000a9c:	00150413          	addi	s0,a0,1
    80000aa0:	4485                	li	s1,1
          putch(padc, putdat);
    80000aa2:	8552                	mv	a0,s4
    80000aa4:	85e6                	mv	a1,s9
    80000aa6:	9902                	jalr	s2
        for (width -= strnlen(p, precision); width > 0; width--)
    80000aa8:	347d                	addiw	s0,s0,-1
    80000aaa:	fe84cce3          	blt	s1,s0,80000aa2 <vprintfmt+0x13c>
    80000aae:	4401                	li	s0,0
      for (; (ch = *p) != '\0' && (precision < 0 || --precision >= 0); width--) {
    80000ab0:	0009c503          	lbu	a0,0(s3)
    80000ab4:	e565                	bnez	a0,80000b9c <vprintfmt+0x236>
    80000ab6:	aa11                	j	80000bca <vprintfmt+0x264>
    80000ab8:	6402                	ld	s0,0(sp)
      putch(va_arg(ap, int), putdat);
    80000aba:	4008                	lw	a0,0(s0)
    80000abc:	00840a13          	addi	s4,s0,8
    80000ac0:	85e6                	mv	a1,s9
    80000ac2:	9902                	jalr	s2
      break;
    80000ac4:	b5f9                	j	80000992 <vprintfmt+0x2c>
      putch('0', putdat);
    80000ac6:	03000513          	li	a0,48
    80000aca:	85e6                	mv	a1,s9
    80000acc:	9902                	jalr	s2
      putch('x', putdat);
    80000ace:	07800513          	li	a0,120
    80000ad2:	85e6                	mv	a1,s9
    80000ad4:	9902                	jalr	s2
    80000ad6:	4505                	li	a0,1
    80000ad8:	49c1                	li	s3,16
  if (lflag >= 2)
    80000ada:	4589                	li	a1,2
    80000adc:	00b55363          	bge	a0,a1,80000ae2 <vprintfmt+0x17c>
  else if (lflag)
    80000ae0:	c54d                	beqz	a0,80000b8a <vprintfmt+0x224>
    80000ae2:	6482                	ld	s1,0(sp)
    80000ae4:	8da6                	mv	s11,s1
    80000ae6:	6084                	ld	s1,0(s1)
    digs[pos++] = num % base;
    80000ae8:	0334f533          	remu	a0,s1,s3
    80000aec:	c42a                	sw	a0,8(sp)
    80000aee:	4405                	li	s0,1
    if (num < base)
    80000af0:	0134ec63          	bltu	s1,s3,80000b08 <vprintfmt+0x1a2>
    80000af4:	0068                	addi	a0,sp,12
    num /= base;
    80000af6:	0334d4b3          	divu	s1,s1,s3
    digs[pos++] = num % base;
    80000afa:	0334f5b3          	remu	a1,s1,s3
    80000afe:	c10c                	sw	a1,0(a0)
    if (num < base)
    80000b00:	0511                	addi	a0,a0,4
    80000b02:	2405                	addiw	s0,s0,1
    80000b04:	ff34f9e3          	bgeu	s1,s3,80000af6 <vprintfmt+0x190>
  while (width-- > pos)
    80000b08:	01745863          	bge	s0,s7,80000b18 <vprintfmt+0x1b2>
    80000b0c:	3bfd                	addiw	s7,s7,-1
    putch(padc, putdat);
    80000b0e:	8552                	mv	a0,s4
    80000b10:	85e6                	mv	a1,s9
    80000b12:	9902                	jalr	s2
  while (width-- > pos)
    80000b14:	ff744ce3          	blt	s0,s7,80000b0c <vprintfmt+0x1a6>
    80000b18:	8522                	mv	a0,s0
    80000b1a:	8a6e                	mv	s4,s11
    80000b1c:	00805363          	blez	s0,80000b22 <vprintfmt+0x1bc>
    80000b20:	4505                	li	a0,1
    80000b22:	0a21                	addi	s4,s4,8
  while (pos-- > 0)
    80000b24:	040a                	slli	s0,s0,0x2
    80000b26:	050a                	slli	a0,a0,0x2
    80000b28:	004c                	addi	a1,sp,4
    80000b2a:	942e                	add	s0,s0,a1
    80000b2c:	848a                	mv	s1,sp
    80000b2e:	94aa                	add	s1,s1,a0
    80000b30:	a809                	j	80000b42 <vprintfmt+0x1dc>
    80000b32:	03000593          	li	a1,48
    putch(digs[pos] + (digs[pos] >= 10 ? 'a' - 10 : '0'), putdat);
    80000b36:	9d2d                	addw	a0,a0,a1
    80000b38:	85e6                	mv	a1,s9
    80000b3a:	9902                	jalr	s2
  while (pos-- > 0)
    80000b3c:	1471                	addi	s0,s0,-4
    80000b3e:	e4940ae3          	beq	s0,s1,80000992 <vprintfmt+0x2c>
    putch(digs[pos] + (digs[pos] >= 10 ? 'a' - 10 : '0'), putdat);
    80000b42:	4008                	lw	a0,0(s0)
    80000b44:	feaaf7e3          	bgeu	s5,a0,80000b32 <vprintfmt+0x1cc>
    80000b48:	05700593          	li	a1,87
    80000b4c:	b7ed                	j	80000b36 <vprintfmt+0x1d0>
      putch(ch, putdat);
    80000b4e:	02500513          	li	a0,37
    80000b52:	85e6                	mv	a1,s9
    80000b54:	9902                	jalr	s2
    80000b56:	6a02                	ld	s4,0(sp)
      break;
    80000b58:	bd2d                	j	80000992 <vprintfmt+0x2c>
  if (lflag >= 2)
    80000b5a:	4589                	li	a1,2
    80000b5c:	00b55363          	bge	a0,a1,80000b62 <vprintfmt+0x1fc>
  else if (lflag)
    80000b60:	c159                	beqz	a0,80000be6 <vprintfmt+0x280>
    80000b62:	6482                	ld	s1,0(sp)
    80000b64:	8da6                	mv	s11,s1
    80000b66:	6084                	ld	s1,0(s1)
    80000b68:	49a9                	li	s3,10
      if ((long long) num < 0) {
    80000b6a:	f604dfe3          	bgez	s1,80000ae8 <vprintfmt+0x182>
        putch('-', putdat);
    80000b6e:	02d00513          	li	a0,45
    80000b72:	85e6                	mv	a1,s9
    80000b74:	9902                	jalr	s2
        num = -(long long) num;
    80000b76:	409004b3          	neg	s1,s1
      }
    80000b7a:	b7bd                	j	80000ae8 <vprintfmt+0x182>
      putch('%', putdat);
    80000b7c:	02500513          	li	a0,37
    80000b80:	85e6                	mv	a1,s9
    80000b82:	9902                	jalr	s2
    80000b84:	8b4e                	mv	s6,s3
    80000b86:	6a02                	ld	s4,0(sp)
      break;
    80000b88:	b529                	j	80000992 <vprintfmt+0x2c>
    80000b8a:	6482                	ld	s1,0(sp)
    80000b8c:	8da6                	mv	s11,s1
    return va_arg(*ap, unsigned int);
    80000b8e:	0004e483          	lwu	s1,0(s1)
    80000b92:	bf99                	j	80000ae8 <vprintfmt+0x182>
    80000b94:	845e                	mv	s0,s7
      for (; (ch = *p) != '\0' && (precision < 0 || --precision >= 0); width--) {
    80000b96:	0009c503          	lbu	a0,0(s3)
    80000b9a:	c905                	beqz	a0,80000bca <vprintfmt+0x264>
    80000b9c:	0985                	addi	s3,s3,1
    80000b9e:	4485                	li	s1,1
    80000ba0:	6a02                	ld	s4,0(sp)
    80000ba2:	a811                	j	80000bb6 <vprintfmt+0x250>
    80000ba4:	0ff57513          	zext.b	a0,a0
        putch(ch, putdat);
    80000ba8:	85e6                	mv	a1,s9
    80000baa:	9902                	jalr	s2
      for (; (ch = *p) != '\0' && (precision < 0 || --precision >= 0); width--) {
    80000bac:	0009c503          	lbu	a0,0(s3)
    80000bb0:	347d                	addiw	s0,s0,-1
    80000bb2:	0985                	addi	s3,s3,1
    80000bb4:	cd09                	beqz	a0,80000bce <vprintfmt+0x268>
    80000bb6:	fe0dc7e3          	bltz	s11,80000ba4 <vprintfmt+0x23e>
    80000bba:	000d8a63          	beqz	s11,80000bce <vprintfmt+0x268>
    80000bbe:	3dfd                	addiw	s11,s11,-1
    80000bc0:	b7d5                	j	80000ba4 <vprintfmt+0x23e>
    80000bc2:	845e                	mv	s0,s7
    80000bc4:	0009c503          	lbu	a0,0(s3)
    80000bc8:	f971                	bnez	a0,80000b9c <vprintfmt+0x236>
    80000bca:	4485                	li	s1,1
    80000bcc:	6a02                	ld	s4,0(sp)
    80000bce:	0a21                	addi	s4,s4,8
      for (; width > 0; width--)
    80000bd0:	dc8051e3          	blez	s0,80000992 <vprintfmt+0x2c>
    80000bd4:	0405                	addi	s0,s0,1
        putch(' ', putdat);
    80000bd6:	02000513          	li	a0,32
    80000bda:	85e6                	mv	a1,s9
    80000bdc:	9902                	jalr	s2
      for (; width > 0; width--)
    80000bde:	347d                	addiw	s0,s0,-1
    80000be0:	fe84cbe3          	blt	s1,s0,80000bd6 <vprintfmt+0x270>
    80000be4:	b37d                	j	80000992 <vprintfmt+0x2c>
    80000be6:	6482                	ld	s1,0(sp)
    80000be8:	8da6                	mv	s11,s1
    return va_arg(*ap, int);
    80000bea:	4084                	lw	s1,0(s1)
    80000bec:	49a9                	li	s3,10
      if ((long long) num < 0) {
    80000bee:	ee04dde3          	bgez	s1,80000ae8 <vprintfmt+0x182>
    80000bf2:	bfb5                	j	80000b6e <vprintfmt+0x208>
}
    80000bf4:	70b6                	ld	ra,360(sp)
    80000bf6:	7416                	ld	s0,352(sp)
    80000bf8:	64f6                	ld	s1,344(sp)
    80000bfa:	6956                	ld	s2,336(sp)
    80000bfc:	69b6                	ld	s3,328(sp)
    80000bfe:	6a16                	ld	s4,320(sp)
    80000c00:	7af2                	ld	s5,312(sp)
    80000c02:	7b52                	ld	s6,304(sp)
    80000c04:	7bb2                	ld	s7,296(sp)
    80000c06:	7c12                	ld	s8,288(sp)
    80000c08:	6cf2                	ld	s9,280(sp)
    80000c0a:	6d52                	ld	s10,272(sp)
    80000c0c:	6db2                	ld	s11,264(sp)
    80000c0e:	6175                	addi	sp,sp,368
    80000c10:	8082                	ret

0000000080000c12 <sprintf_putch>:
  **pstr = ch;
    80000c12:	6190                	ld	a2,0(a1)
    80000c14:	00a60023          	sb	a0,0(a2)
  (*pstr)++;
    80000c18:	6188                	ld	a0,0(a1)
    80000c1a:	0505                	addi	a0,a0,1
    80000c1c:	e188                	sd	a0,0(a1)
}
    80000c1e:	8082                	ret

0000000080000c20 <sprintf>:
{
    80000c20:	7125                	addi	sp,sp,-416
    80000c22:	f6a2                	sd	s0,360(sp)
    80000c24:	f2a6                	sd	s1,352(sp)
    80000c26:	eeca                	sd	s2,344(sp)
    80000c28:	eace                	sd	s3,336(sp)
    80000c2a:	e6d2                	sd	s4,328(sp)
    80000c2c:	e2d6                	sd	s5,320(sp)
    80000c2e:	fe5a                	sd	s6,312(sp)
    80000c30:	fa5e                	sd	s7,304(sp)
    80000c32:	f662                	sd	s8,296(sp)
    80000c34:	f266                	sd	s9,288(sp)
    80000c36:	ee6a                	sd	s10,280(sp)
    80000c38:	ea6e                	sd	s11,272(sp)
    80000c3a:	eb42                	sd	a6,400(sp)
    80000c3c:	ef46                	sd	a7,408(sp)
    80000c3e:	fab2                	sd	a2,368(sp)
    80000c40:	feb6                	sd	a3,376(sp)
    80000c42:	e33a                	sd	a4,384(sp)
    80000c44:	e73e                	sd	a5,392(sp)
    80000c46:	17010e93          	addi	t4,sp,368
  while (1) {
    80000c4a:	40a002b3          	neg	t0,a0
    80000c4e:	01410813          	addi	a6,sp,20
    80000c52:	00c10893          	addi	a7,sp,12
    80000c56:	02500b93          	li	s7,37
    80000c5a:	05500313          	li	t1,85
    80000c5e:	5ad9                	li	s5,-10
    80000c60:	4389                	li	t2,2
    80000c62:	02d00e13          	li	t3,45
    80000c66:	49a5                	li	s3,9
    80000c68:	03000f13          	li	t5,48
    80000c6c:	07800f93          	li	t6,120
  va_start(ap, fmt);
    80000c70:	e476                	sd	t4,8(sp)
    80000c72:	02000913          	li	s2,32
    80000c76:	4d81                	li	s11,0
    while ((ch = *(unsigned char *) fmt) != '%') {
    80000c78:	00a2863b          	addw	a2,t0,a0
    80000c7c:	00158693          	addi	a3,a1,1
    80000c80:	84aa                	mv	s1,a0
    80000c82:	fff6c583          	lbu	a1,-1(a3)
    80000c86:	24058963          	beqz	a1,80000ed8 <sprintf+0x2b8>
    80000c8a:	01758c63          	beq	a1,s7,80000ca2 <sprintf+0x82>
  **pstr = ch;
    80000c8e:	00b48023          	sb	a1,0(s1)
  (*pstr)++;
    80000c92:	0485                	addi	s1,s1,1
    while ((ch = *(unsigned char *) fmt) != '%') {
    80000c94:	2605                	addiw	a2,a2,1
    80000c96:	0685                	addi	a3,a3,1
    80000c98:	0d85                	addi	s11,s11,1
    80000c9a:	fff6c583          	lbu	a1,-1(a3)
    80000c9e:	f5f5                	bnez	a1,80000c8a <sprintf+0x6a>
    80000ca0:	ac25                	j	80000ed8 <sprintf+0x2b8>
    80000ca2:	4b01                	li	s6,0
    80000ca4:	02000c13          	li	s8,32
    80000ca8:	5cfd                	li	s9,-1
    80000caa:	85b6                	mv	a1,a3
    80000cac:	5a7d                	li	s4,-1
    80000cae:	01902633          	sgtz	a2,s9
    80000cb2:	40c0063b          	negw	a2,a2
    80000cb6:	01967d33          	and	s10,a2,s9
    80000cba:	862e                	mv	a2,a1
    switch (ch = *(unsigned char *) fmt++) {
    80000cbc:	0005c403          	lbu	s0,0(a1)
    80000cc0:	fdd40593          	addi	a1,s0,-35
    80000cc4:	1cb36763          	bltu	t1,a1,80000e92 <sprintf+0x272>
    80000cc8:	058e                	slli	a1,a1,0x3
    80000cca:	00001797          	auipc	a5,0x1
    80000cce:	8ce78793          	addi	a5,a5,-1842 # 80001598 <handle_trap+0x382>
    80000cd2:	95be                	add	a1,a1,a5
    80000cd4:	619c                	ld	a5,0(a1)
    80000cd6:	00160593          	addi	a1,a2,1
    80000cda:	8782                	jr	a5
    80000cdc:	8c22                	mv	s8,s0
    80000cde:	bff1                	j	80000cba <sprintf+0x9a>
    80000ce0:	8cea                	mv	s9,s10
    80000ce2:	bfe1                	j	80000cba <sprintf+0x9a>
    80000ce4:	4781                	li	a5,0
        precision = precision * 10 + ch - '0';
    80000ce6:	00179593          	slli	a1,a5,0x1
    80000cea:	078e                	slli	a5,a5,0x3
    80000cec:	95be                	add	a1,a1,a5
    80000cee:	95a2                	add	a1,a1,s0
        ch = *fmt;
    80000cf0:	00164403          	lbu	s0,1(a2)
    80000cf4:	0605                	addi	a2,a2,1
        if (ch < '0' || ch > '9')
    80000cf6:	fc640713          	addi	a4,s0,-58
        precision = precision * 10 + ch - '0';
    80000cfa:	fd05879b          	addiw	a5,a1,-48
        if (ch < '0' || ch > '9')
    80000cfe:	ff5774e3          	bgeu	a4,s5,80000ce6 <sprintf+0xc6>
    80000d02:	85b2                	mv	a1,a2
    80000d04:	863e                	mv	a2,a5
      if (width < 0)
    80000d06:	000cc363          	bltz	s9,80000d0c <sprintf+0xec>
    80000d0a:	8666                	mv	a2,s9
    80000d0c:	43fcd713          	srai	a4,s9,0x3f
    80000d10:	00f76a33          	or	s4,a4,a5
    80000d14:	8cb2                	mv	s9,a2
    80000d16:	bf61                	j	80000cae <sprintf+0x8e>
      precision = va_arg(ap, int);
    80000d18:	000ea783          	lw	a5,0(t4)
    80000d1c:	0ea1                	addi	t4,t4,8
    80000d1e:	863e                	mv	a2,a5
      if (width < 0)
    80000d20:	fe0cd5e3          	bgez	s9,80000d0a <sprintf+0xea>
    80000d24:	b7e5                	j	80000d0c <sprintf+0xec>
      lflag++;
    80000d26:	2b05                	addiw	s6,s6,1
      goto reswitch;
    80000d28:	b759                	j	80000cae <sprintf+0x8e>
    80000d2a:	4521                	li	a0,8
  if (lflag >= 2)
    80000d2c:	027b5663          	bge	s6,t2,80000d58 <sprintf+0x138>
    80000d30:	a015                	j	80000d54 <sprintf+0x134>
    80000d32:	4541                	li	a0,16
    80000d34:	027b5263          	bge	s6,t2,80000d58 <sprintf+0x138>
    80000d38:	a831                	j	80000d54 <sprintf+0x134>
  **pstr = ch;
    80000d3a:	01e48023          	sb	t5,0(s1)
    80000d3e:	01f480a3          	sb	t6,1(s1)
  (*pstr)++;
    80000d42:	0489                	addi	s1,s1,2
    80000d44:	4b05                	li	s6,1
    80000d46:	4541                	li	a0,16
  if (lflag >= 2)
    80000d48:	007b4663          	blt	s6,t2,80000d54 <sprintf+0x134>
    80000d4c:	a031                	j	80000d58 <sprintf+0x138>
    80000d4e:	4529                	li	a0,10
    80000d50:	007b5463          	bge	s6,t2,80000d58 <sprintf+0x138>
  else if (lflag)
    80000d54:	140b0563          	beqz	s6,80000e9e <sprintf+0x27e>
    80000d58:	000eb683          	ld	a3,0(t4)
    digs[pos++] = num % base;
    80000d5c:	02a6f633          	remu	a2,a3,a0
    80000d60:	c832                	sw	a2,16(sp)
    80000d62:	4705                	li	a4,1
    80000d64:	00a6ec63          	bltu	a3,a0,80000d7c <sprintf+0x15c>
    80000d68:	8642                	mv	a2,a6
    num /= base;
    80000d6a:	02a6d6b3          	divu	a3,a3,a0
    digs[pos++] = num % base;
    80000d6e:	02a6f7b3          	remu	a5,a3,a0
    80000d72:	c21c                	sw	a5,0(a2)
    if (num < base)
    80000d74:	0611                	addi	a2,a2,4
    80000d76:	2705                	addiw	a4,a4,1
    80000d78:	fea6f9e3          	bgeu	a3,a0,80000d6a <sprintf+0x14a>
    80000d7c:	01975e63          	bge	a4,s9,80000d98 <sprintf+0x178>
  while (width-- > pos)
    80000d80:	fff74513          	not	a0,a4
    80000d84:	9566                	add	a0,a0,s9
    80000d86:	1502                	slli	a0,a0,0x20
    80000d88:	9101                	srli	a0,a0,0x20
    80000d8a:	9526                	add	a0,a0,s1
    80000d8c:	0505                	addi	a0,a0,1
  **pstr = ch;
    80000d8e:	01848023          	sb	s8,0(s1)
  (*pstr)++;
    80000d92:	0485                	addi	s1,s1,1
    80000d94:	fea49de3          	bne	s1,a0,80000d8e <sprintf+0x16e>
    80000d98:	853a                	mv	a0,a4
    80000d9a:	00e05363          	blez	a4,80000da0 <sprintf+0x180>
    80000d9e:	4505                	li	a0,1
    80000da0:	0ea1                	addi	t4,t4,8
  while (pos-- > 0)
    80000da2:	00271613          	slli	a2,a4,0x2
    80000da6:	8f09                	sub	a4,a4,a0
    80000da8:	00c88533          	add	a0,a7,a2
    80000dac:	00e48633          	add	a2,s1,a4
    80000db0:	0605                	addi	a2,a2,1
    80000db2:	a811                	j	80000dc6 <sprintf+0x1a6>
    80000db4:	03000713          	li	a4,48
    putch(digs[pos] + (digs[pos] >= 10 ? 'a' - 10 : '0'), putdat);
    80000db8:	96ba                	add	a3,a3,a4
  **pstr = ch;
    80000dba:	00d48023          	sb	a3,0(s1)
  (*pstr)++;
    80000dbe:	0485                	addi	s1,s1,1
  while (pos-- > 0)
    80000dc0:	1571                	addi	a0,a0,-4
    80000dc2:	00c48863          	beq	s1,a2,80000dd2 <sprintf+0x1b2>
    putch(digs[pos] + (digs[pos] >= 10 ? 'a' - 10 : '0'), putdat);
    80000dc6:	4114                	lw	a3,0(a0)
    80000dc8:	fed9f6e3          	bgeu	s3,a3,80000db4 <sprintf+0x194>
    80000dcc:	05700713          	li	a4,87
    80000dd0:	b7e5                	j	80000db8 <sprintf+0x198>
    80000dd2:	8526                	mv	a0,s1
      break;
    80000dd4:	b54d                	j	80000c76 <sprintf+0x56>
      putch(va_arg(ap, int), putdat);
    80000dd6:	000ec503          	lbu	a0,0(t4)
    80000dda:	0ea1                	addi	t4,t4,8
  **pstr = ch;
    80000ddc:	00a48023          	sb	a0,0(s1)
  (*pstr)++;
    80000de0:	00148513          	addi	a0,s1,1
      break;
    80000de4:	bd49                	j	80000c76 <sprintf+0x56>
      if ((p = va_arg(ap, char *)) == NULL)
    80000de6:	000eb683          	ld	a3,0(t4)
    80000dea:	e689                	bnez	a3,80000df4 <sprintf+0x1d4>
    80000dec:	00000697          	auipc	a3,0x0
    80000df0:	4ef68693          	addi	a3,a3,1263 # 800012db <handle_trap+0xc5>
      if (width > 0 && padc != '-')
    80000df4:	05905763          	blez	s9,80000e42 <sprintf+0x222>
    80000df8:	05cc0563          	beq	s8,t3,80000e42 <sprintf+0x222>
    80000dfc:	8636                	mv	a2,a3
  while (n-- && *p)
    80000dfe:	000a0d63          	beqz	s4,80000e18 <sprintf+0x1f8>
    80000e02:	014687b3          	add	a5,a3,s4
    80000e06:	8452                	mv	s0,s4
    80000e08:	8636                	mv	a2,a3
    80000e0a:	00064703          	lbu	a4,0(a2)
    80000e0e:	c709                	beqz	a4,80000e18 <sprintf+0x1f8>
    80000e10:	147d                	addi	s0,s0,-1
    p++;
    80000e12:	0605                	addi	a2,a2,1
  while (n-- && *p)
    80000e14:	f87d                	bnez	s0,80000e0a <sprintf+0x1ea>
    80000e16:	863e                	mv	a2,a5
  return p - s;
    80000e18:	40c68733          	sub	a4,a3,a2
        for (width -= strnlen(p, precision); width > 0; width--)
    80000e1c:	00ec87bb          	addw	a5,s9,a4
    80000e20:	08f05263          	blez	a5,80000ea4 <sprintf+0x284>
    80000e24:	956e                	add	a0,a0,s11
    80000e26:	fff64613          	not	a2,a2
    80000e2a:	9cb6                	add	s9,s9,a3
    80000e2c:	9666                	add	a2,a2,s9
    80000e2e:	1602                	slli	a2,a2,0x20
    80000e30:	9201                	srli	a2,a2,0x20
    80000e32:	9532                	add	a0,a0,a2
    80000e34:	0505                	addi	a0,a0,1
  **pstr = ch;
    80000e36:	01848023          	sb	s8,0(s1)
  (*pstr)++;
    80000e3a:	0485                	addi	s1,s1,1
        for (width -= strnlen(p, precision); width > 0; width--)
    80000e3c:	fea49de3          	bne	s1,a0,80000e36 <sprintf+0x216>
    80000e40:	4c81                	li	s9,0
      for (; (ch = *p) != '\0' && (precision < 0 || --precision >= 0); width--) {
    80000e42:	0006c703          	lbu	a4,0(a3)
    80000e46:	c33d                	beqz	a4,80000eac <sprintf+0x28c>
    80000e48:	0685                	addi	a3,a3,1
    80000e4a:	8526                	mv	a0,s1
    80000e4c:	a811                	j	80000e60 <sprintf+0x240>
    80000e4e:	3a7d                	addiw	s4,s4,-1
  **pstr = ch;
    80000e50:	00e50023          	sb	a4,0(a0)
      for (; (ch = *p) != '\0' && (precision < 0 || --precision >= 0); width--) {
    80000e54:	0006c703          	lbu	a4,0(a3)
  (*pstr)++;
    80000e58:	0505                	addi	a0,a0,1
      for (; (ch = *p) != '\0' && (precision < 0 || --precision >= 0); width--) {
    80000e5a:	3cfd                	addiw	s9,s9,-1
    80000e5c:	0685                	addi	a3,a3,1
    80000e5e:	cb21                	beqz	a4,80000eae <sprintf+0x28e>
    80000e60:	fe0a48e3          	bltz	s4,80000e50 <sprintf+0x230>
    80000e64:	fe0a15e3          	bnez	s4,80000e4e <sprintf+0x22e>
    80000e68:	a099                	j	80000eae <sprintf+0x28e>
  **pstr = ch;
    80000e6a:	01748023          	sb	s7,0(s1)
  (*pstr)++;
    80000e6e:	00148513          	addi	a0,s1,1
      break;
    80000e72:	b511                	j	80000c76 <sprintf+0x56>
  if (lflag >= 2)
    80000e74:	007b5463          	bge	s6,t2,80000e7c <sprintf+0x25c>
    80000e78:	040b0a63          	beqz	s6,80000ecc <sprintf+0x2ac>
    80000e7c:	000eb683          	ld	a3,0(t4)
    80000e80:	4529                	li	a0,10
      if ((long long) num < 0) {
    80000e82:	ec06dde3          	bgez	a3,80000d5c <sprintf+0x13c>
  **pstr = ch;
    80000e86:	01c48023          	sb	t3,0(s1)
  (*pstr)++;
    80000e8a:	0485                	addi	s1,s1,1
        num = -(long long) num;
    80000e8c:	40d006b3          	neg	a3,a3
    80000e90:	b5f1                	j	80000d5c <sprintf+0x13c>
  **pstr = ch;
    80000e92:	01748023          	sb	s7,0(s1)
  (*pstr)++;
    80000e96:	00148513          	addi	a0,s1,1
    80000e9a:	85b6                	mv	a1,a3
      break;
    80000e9c:	bbe9                	j	80000c76 <sprintf+0x56>
    return va_arg(*ap, unsigned int);
    80000e9e:	000ee683          	lwu	a3,0(t4)
    80000ea2:	bd6d                	j	80000d5c <sprintf+0x13c>
    80000ea4:	8cbe                	mv	s9,a5
      for (; (ch = *p) != '\0' && (precision < 0 || --precision >= 0); width--) {
    80000ea6:	0006c703          	lbu	a4,0(a3)
    80000eaa:	ff59                	bnez	a4,80000e48 <sprintf+0x228>
    80000eac:	8526                	mv	a0,s1
    80000eae:	0ea1                	addi	t4,t4,8
      for (; width > 0; width--)
    80000eb0:	dd9053e3          	blez	s9,80000c76 <sprintf+0x56>
    80000eb4:	1cfd                	addi	s9,s9,-1
    80000eb6:	1c82                	slli	s9,s9,0x20
    80000eb8:	020cd613          	srli	a2,s9,0x20
    80000ebc:	962a                	add	a2,a2,a0
    80000ebe:	0605                	addi	a2,a2,1
  **pstr = ch;
    80000ec0:	01250023          	sb	s2,0(a0)
  (*pstr)++;
    80000ec4:	0505                	addi	a0,a0,1
      for (; width > 0; width--)
    80000ec6:	fec51de3          	bne	a0,a2,80000ec0 <sprintf+0x2a0>
    80000eca:	b375                	j	80000c76 <sprintf+0x56>
    return va_arg(*ap, int);
    80000ecc:	000ea683          	lw	a3,0(t4)
    80000ed0:	4529                	li	a0,10
      if ((long long) num < 0) {
    80000ed2:	e806d5e3          	bgez	a3,80000d5c <sprintf+0x13c>
    80000ed6:	bf45                	j	80000e86 <sprintf+0x266>
  *str = 0;
    80000ed8:	00048023          	sb	zero,0(s1)
  return str - str0;
    80000edc:	8532                	mv	a0,a2
    80000ede:	7436                	ld	s0,360(sp)
    80000ee0:	7496                	ld	s1,352(sp)
    80000ee2:	6976                	ld	s2,344(sp)
    80000ee4:	69d6                	ld	s3,336(sp)
    80000ee6:	6a36                	ld	s4,328(sp)
    80000ee8:	6a96                	ld	s5,320(sp)
    80000eea:	7b72                	ld	s6,312(sp)
    80000eec:	7bd2                	ld	s7,304(sp)
    80000eee:	7c32                	ld	s8,296(sp)
    80000ef0:	7c92                	ld	s9,288(sp)
    80000ef2:	6d72                	ld	s10,280(sp)
    80000ef4:	6dd2                	ld	s11,272(sp)
    80000ef6:	611d                	addi	sp,sp,416
    80000ef8:	8082                	ret

0000000080000efa <memcpy>:
  if ((((uintptr_t)dest | (uintptr_t)src | len) & (sizeof(uintptr_t)-1)) == 0) {
    80000efa:	00a5e6b3          	or	a3,a1,a0
    80000efe:	8ed1                	or	a3,a3,a2
    80000f00:	0076f713          	andi	a4,a3,7
    80000f04:	00c506b3          	add	a3,a0,a2
    80000f08:	cf11                	beqz	a4,80000f24 <memcpy+0x2a>
    while (d < (char*)(dest + len))
    80000f0a:	c61d                	beqz	a2,80000f38 <memcpy+0x3e>
    80000f0c:	862a                	mv	a2,a0
      *d++ = *s++;
    80000f0e:	0005c703          	lbu	a4,0(a1)
    80000f12:	0585                	addi	a1,a1,1
    80000f14:	00160793          	addi	a5,a2,1
    80000f18:	00e60023          	sb	a4,0(a2)
    80000f1c:	863e                	mv	a2,a5
    80000f1e:	fed7e8e3          	bltu	a5,a3,80000f0e <memcpy+0x14>
    80000f22:	a819                	j	80000f38 <memcpy+0x3e>
    while (d < (uintptr_t*)(dest + len))
    80000f24:	ca11                	beqz	a2,80000f38 <memcpy+0x3e>
    80000f26:	862a                	mv	a2,a0
      *d++ = *s++;
    80000f28:	6198                	ld	a4,0(a1)
    80000f2a:	05a1                	addi	a1,a1,8
    80000f2c:	00860793          	addi	a5,a2,8
    80000f30:	e218                	sd	a4,0(a2)
    80000f32:	863e                	mv	a2,a5
    while (d < (uintptr_t*)(dest + len))
    80000f34:	fed7eae3          	bltu	a5,a3,80000f28 <memcpy+0x2e>
  return dest;
    80000f38:	8082                	ret

0000000080000f3a <memset>:
  if ((((uintptr_t)dest | len) & (sizeof(uintptr_t)-1)) == 0) {
    80000f3a:	00a666b3          	or	a3,a2,a0
    80000f3e:	8a9d                	andi	a3,a3,7
    80000f40:	ce81                	beqz	a3,80000f58 <memset+0x1e>
    while (d < (char*)(dest + len))
    80000f42:	ce1d                	beqz	a2,80000f80 <memset+0x46>
    80000f44:	962a                	add	a2,a2,a0
    80000f46:	86aa                	mv	a3,a0
      *d++ = byte;
    80000f48:	00168713          	addi	a4,a3,1
    80000f4c:	00b68023          	sb	a1,0(a3)
    80000f50:	86ba                	mv	a3,a4
    80000f52:	fec76be3          	bltu	a4,a2,80000f48 <memset+0xe>
    80000f56:	a02d                	j	80000f80 <memset+0x46>
    while (d < (uintptr_t*)(dest + len))
    80000f58:	c605                	beqz	a2,80000f80 <memset+0x46>
    80000f5a:	15e2                	slli	a1,a1,0x38
    80000f5c:	101016b7          	lui	a3,0x10101
    80000f60:	0692                	slli	a3,a3,0x4
    80000f62:	10068693          	addi	a3,a3,256 # 10101100 <UART0_BASE+0x101100>
    80000f66:	02d5b5b3          	mulhu	a1,a1,a3
    80000f6a:	02059693          	slli	a3,a1,0x20
    80000f6e:	8dd5                	or	a1,a1,a3
    80000f70:	962a                	add	a2,a2,a0
    80000f72:	86aa                	mv	a3,a0
      *d++ = word;
    80000f74:	00868713          	addi	a4,a3,8
    80000f78:	e28c                	sd	a1,0(a3)
    80000f7a:	86ba                	mv	a3,a4
    while (d < (uintptr_t*)(dest + len))
    80000f7c:	fec76ce3          	bltu	a4,a2,80000f74 <memset+0x3a>
  return dest;
    80000f80:	8082                	ret

0000000080000f82 <strnlen>:
{
    80000f82:	862a                	mv	a2,a0
  while (n-- && *p)
    80000f84:	c999                	beqz	a1,80000f9a <strnlen+0x18>
    80000f86:	00b506b3          	add	a3,a0,a1
    80000f8a:	862a                	mv	a2,a0
    80000f8c:	00064703          	lbu	a4,0(a2)
    80000f90:	c709                	beqz	a4,80000f9a <strnlen+0x18>
    80000f92:	15fd                	addi	a1,a1,-1
    p++;
    80000f94:	0605                	addi	a2,a2,1
  while (n-- && *p)
    80000f96:	f9fd                	bnez	a1,80000f8c <strnlen+0xa>
    80000f98:	8636                	mv	a2,a3
  return p - s;
    80000f9a:	40a60533          	sub	a0,a2,a0
    80000f9e:	8082                	ret

0000000080000fa0 <strcmp>:
int strcmp(const char* s1, const char* s2)
{
  unsigned char c1, c2;

  do {
    c1 = *s1++;
    80000fa0:	00054603          	lbu	a2,0(a0)
    c2 = *s2++;
    80000fa4:	0005c683          	lbu	a3,0(a1)
  } while (c1 != 0 && c1 == c2);
    80000fa8:	c609                	beqz	a2,80000fb2 <strcmp+0x12>
    80000faa:	0505                	addi	a0,a0,1
    80000fac:	0585                	addi	a1,a1,1
    80000fae:	fed609e3          	beq	a2,a3,80000fa0 <strcmp>

  return c1 - c2;
    80000fb2:	40d60533          	sub	a0,a2,a3
    80000fb6:	8082                	ret

0000000080000fb8 <strcpy>:
}

char* strcpy(char* dest, const char* src)
{
    80000fb8:	862a                	mv	a2,a0
  char* d = dest;
  while ((*d++ = *src++))
    80000fba:	0005c683          	lbu	a3,0(a1)
    80000fbe:	0585                	addi	a1,a1,1
    80000fc0:	00160713          	addi	a4,a2,1
    80000fc4:	00d60023          	sb	a3,0(a2)
    80000fc8:	863a                	mv	a2,a4
    80000fca:	fae5                	bnez	a3,80000fba <strcpy+0x2>
    ;
  return dest;
    80000fcc:	8082                	ret

0000000080000fce <atol>:
}

long atol(const char* str)
{
    80000fce:	02000613          	li	a2,32
  long res = 0;
  int sign = 0;

  while (*str == ' ')
    80000fd2:	00054583          	lbu	a1,0(a0)
    80000fd6:	00c59763          	bne	a1,a2,80000fe4 <atol+0x16>
    str++;
    80000fda:	0505                	addi	a0,a0,1
  while (*str == ' ')
    80000fdc:	00054583          	lbu	a1,0(a0)
    80000fe0:	fec58de3          	beq	a1,a2,80000fda <atol+0xc>
    80000fe4:	02b00613          	li	a2,43
    80000fe8:	00c58663          	beq	a1,a2,80000ff4 <atol+0x26>
    80000fec:	02d00613          	li	a2,45
    80000ff0:	02c59c63          	bne	a1,a2,80001028 <atol+0x5a>

  if (*str == '-' || *str == '+') {
    sign = *str == '-';
    80000ff4:	fd358593          	addi	a1,a1,-45
    80000ff8:	00b03633          	snez	a2,a1
    str++;
    80000ffc:	0505                	addi	a0,a0,1
  }

  while (*str) {
    80000ffe:	00054683          	lbu	a3,0(a0)
    80001002:	c69d                	beqz	a3,80001030 <atol+0x62>
    80001004:	4581                	li	a1,0
    80001006:	0505                	addi	a0,a0,1
    res *= 10;
    80001008:	00159713          	slli	a4,a1,0x1
    8000100c:	058e                	slli	a1,a1,0x3
    8000100e:	95ba                	add	a1,a1,a4
    res += *str++ - '0';
    80001010:	95b6                	add	a1,a1,a3
  while (*str) {
    80001012:	00054683          	lbu	a3,0(a0)
    res += *str++ - '0';
    80001016:	fd058593          	addi	a1,a1,-48
  while (*str) {
    8000101a:	0505                	addi	a0,a0,1
    8000101c:	f6f5                	bnez	a3,80001008 <atol+0x3a>
  }

  return sign ? -res : res;
    8000101e:	e219                	bnez	a2,80001024 <atol+0x56>
    80001020:	40b005b3          	neg	a1,a1
    80001024:	852e                	mv	a0,a1
    80001026:	8082                	ret
    80001028:	4605                	li	a2,1
  while (*str) {
    8000102a:	00054683          	lbu	a3,0(a0)
    8000102e:	faf9                	bnez	a3,80001004 <atol+0x36>
    80001030:	4581                	li	a1,0
  return sign ? -res : res;
    80001032:	d67d                	beqz	a2,80001020 <atol+0x52>
    80001034:	bfc5                	j	80001024 <atol+0x56>

0000000080001036 <_close>:
// Provided by linker script
extern char _end;            // end of bss
static char *heap_end;       // current heap pointer

int _close(int fd) {
    (void)fd; return -1;     // no files
    80001036:	557d                	li	a0,-1
    80001038:	8082                	ret

000000008000103a <_fstat>:
}

int _fstat(int fd, struct stat *st) {
    (void)fd; if (st) { st->st_mode = S_IFCHR; } return 0; // pretend char device
    8000103a:	c199                	beqz	a1,80001040 <_fstat+0x6>
    8000103c:	6509                	lui	a0,0x2
    8000103e:	c1c8                	sw	a0,4(a1)
    80001040:	4501                	li	a0,0
    80001042:	8082                	ret

0000000080001044 <_isatty>:
}

int _isatty(int fd) {
    (void)fd; return 1;      // yes, treat as tty
    80001044:	4505                	li	a0,1
    80001046:	8082                	ret

0000000080001048 <_lseek>:
}

off_t _lseek(int fd, off_t offset, int whence) {
    (void)fd; (void)offset; (void)whence; return 0; // not supported
    80001048:	4501                	li	a0,0
    8000104a:	8082                	ret

000000008000104c <_open>:
}

int _open(const char *path, int flags, int mode) {
    (void)path; (void)flags; (void)mode; return -1; // fail
    8000104c:	557d                	li	a0,-1
    8000104e:	8082                	ret

0000000080001050 <__errno>:

//     return (int)cnt;
// }
// Optional errno (newlib may look for it)
int *__errno(void) {
    static int e; return &e;
    80001050:	00001517          	auipc	a0,0x1
    80001054:	88850513          	addi	a0,a0,-1912 # 800018d8 <__errno.e>
    80001058:	8082                	ret

000000008000105a <handle_uart_irq>:
    rx_tail = (uint16_t)((rx_tail + 1) % RX_BUF_SZ);
    return c;
}

// ===== UART 中断服务：搬空 RX FIFO 到环形缓冲 =====
void handle_uart_irq(void) {
    8000105a:	10000537          	lui	a0,0x10000
static inline uint8_t rd8(volatile uint32_t *r) { return (uint8_t)(*r); }
    8000105e:	494c                	lw	a1,20(a0)
    while (rd8(UART_LSR) & LSR_DR) {
    80001060:	8985                	andi	a1,a1,1
    80001062:	e191                	bnez	a1,80001066 <handle_uart_irq+0xc>
        rx_push(rd8(UART_RBR_THR));
    }
}
    80001064:	8082                	ret
    80001066:	00001597          	auipc	a1,0x1
    8000106a:	88258593          	addi	a1,a1,-1918 # 800018e8 <rx_head>
    8000106e:	a021                	j	80001076 <handle_uart_irq+0x1c>
static inline uint8_t rd8(volatile uint32_t *r) { return (uint8_t)(*r); }
    80001070:	4950                	lw	a2,20(a0)
    while (rd8(UART_LSR) & LSR_DR) {
    80001072:	8a05                	andi	a2,a2,1
    80001074:	da65                	beqz	a2,80001064 <handle_uart_irq+0xa>
static inline uint8_t rd8(volatile uint32_t *r) { return (uint8_t)(*r); }
    80001076:	4110                	lw	a2,0(a0)
    uint16_t n = (uint16_t)((rx_head + 1) % RX_BUF_SZ);
    80001078:	00059683          	lh	a3,0(a1)
    if (n != rx_tail) { rx_buf[rx_head] = c; rx_head = n; } // 满则丢
    8000107c:	0025d703          	lhu	a4,2(a1)
    uint16_t n = (uint16_t)((rx_head + 1) % RX_BUF_SZ);
    80001080:	0685                	addi	a3,a3,1
    80001082:	0ff6f693          	zext.b	a3,a3
    if (n != rx_tail) { rx_buf[rx_head] = c; rx_head = n; } // 满则丢
    80001086:	fee685e3          	beq	a3,a4,80001070 <handle_uart_irq+0x16>
    8000108a:	0005d703          	lhu	a4,0(a1)
    8000108e:	972e                	add	a4,a4,a1
    80001090:	00c70223          	sb	a2,4(a4)
    80001094:	00d59023          	sh	a3,0(a1)
    80001098:	bfe1                	j	80001070 <handle_uart_irq+0x16>

000000008000109a <uart_init>:
    // 关中断
    wr8(UART_IER, 0x00);

    // 波特率（DLAB=1）
    wr8(UART_LCR, LCR_DLAB);
    uint16_t div = (uint16_t)(sys_clk_hz / (baud_rate * 16u));
    8000109a:	0592                	slli	a1,a1,0x4
    8000109c:	02b555bb          	divuw	a1,a0,a1
    800010a0:	10000537          	lui	a0,0x10000
    800010a4:	08000613          	li	a2,128
    800010a8:	02000693          	li	a3,32
static inline void wr8(volatile uint32_t *r, uint8_t v) { *r = v; }
    800010ac:	00052223          	sw	zero,4(a0) # 10000004 <UART0_BASE+0x4>
    800010b0:	c550                	sw	a2,12(a0)
    800010b2:	0ff5f613          	zext.b	a2,a1
    800010b6:	c110                	sw	a2,0(a0)
    800010b8:	460d                	li	a2,3
    800010ba:	15c2                	slli	a1,a1,0x30
    800010bc:	91e1                	srli	a1,a1,0x38
    800010be:	c14c                	sw	a1,4(a0)
    800010c0:	459d                	li	a1,7
    800010c2:	c514                	sw	a3,8(a0)
    800010c4:	46ad                	li	a3,11
    800010c6:	c550                	sw	a2,12(a0)
    800010c8:	4605                	li	a2,1
    800010ca:	c50c                	sw	a1,8(a0)
    800010cc:	c914                	sw	a3,16(a0)
    800010ce:	c150                	sw	a2,4(a0)
static inline uint8_t rd8(volatile uint32_t *r) { return (uint8_t)(*r); }
    800010d0:	01452003          	lw	zero,20(a0)
    800010d4:	00852003          	lw	zero,8(a0)
    800010d8:	494c                	lw	a1,20(a0)
    wr8(UART_IER, IER_ERBFI);

    // 清残留
    (void)rd8(UART_LSR);
    (void)rd8(UART_IIR_FCR);
    while (rd8(UART_LSR) & LSR_DR) (void)rd8(UART_RBR_THR);
    800010da:	8985                	andi	a1,a1,1
    800010dc:	c581                	beqz	a1,800010e4 <uart_init+0x4a>
static inline uint8_t rd8(volatile uint32_t *r) { return (uint8_t)(*r); }
    800010de:	00052003          	lw	zero,0(a0)
    800010e2:	bfdd                	j	800010d8 <uart_init+0x3e>
}
    800010e4:	8082                	ret

00000000800010e6 <_write>:

// ===== 轮询发送（供 printf 使用）=====
int _write(int fd, const void *buf, size_t cnt) {
    800010e6:	4685                	li	a3,1
    if (fd != 1) return -1;
    800010e8:	02d51563          	bne	a0,a3,80001112 <_write+0x2c>
    const uint8_t *p = (const uint8_t *)buf;
    for (size_t i = 0; i < cnt; i++) {
    800010ec:	c205                	beqz	a2,8000110c <_write+0x26>
    800010ee:	4501                	li	a0,0
    800010f0:	100006b7          	lui	a3,0x10000
static inline uint8_t rd8(volatile uint32_t *r) { return (uint8_t)(*r); }
    800010f4:	4ad8                	lw	a4,20(a3)
        while ((rd8(UART_LSR) & LSR_THRE) == 0) { }
    800010f6:	02077713          	andi	a4,a4,32
    800010fa:	df6d                	beqz	a4,800010f4 <_write+0xe>
        wr8(UART_RBR_THR, p[i]);
    800010fc:	00a58733          	add	a4,a1,a0
    80001100:	00074703          	lbu	a4,0(a4)
    for (size_t i = 0; i < cnt; i++) {
    80001104:	0505                	addi	a0,a0,1
static inline void wr8(volatile uint32_t *r, uint8_t v) { *r = v; }
    80001106:	c298                	sw	a4,0(a3)
    for (size_t i = 0; i < cnt; i++) {
    80001108:	fec516e3          	bne	a0,a2,800010f4 <_write+0xe>
    }
    return (int)cnt;
}
    8000110c:	0006051b          	sext.w	a0,a2
    80001110:	8082                	ret
    80001112:	567d                	li	a2,-1
    80001114:	0006051b          	sext.w	a0,a2
    80001118:	8082                	ret

000000008000111a <_read>:

// ===== 中断驱动读取：从环形缓冲取，空时 wfi 等待并轮询兜底 =====
int _read(int fd, void *buf, size_t cnt) {
    if (fd != 0) return -1;
    8000111a:	c509                	beqz	a0,80001124 <_read+0xa>
    8000111c:	567d                	li	a2,-1
            asm volatile("wfi"); // 等待中断
        }
        if (!rx_empty()) p[i++] = rx_pop();
    }
    return (int)cnt;
}
    8000111e:	0006051b          	sext.w	a0,a2
    80001122:	8082                	ret
    while (i < cnt) {
    80001124:	de6d                	beqz	a2,8000111e <_read+0x4>
    80001126:	4881                	li	a7,0
    80001128:	00000697          	auipc	a3,0x0
    8000112c:	7c068693          	addi	a3,a3,1984 # 800018e8 <rx_head>
    80001130:	10000737          	lui	a4,0x10000
    80001134:	a019                	j	8000113a <_read+0x20>
    80001136:	fec8f4e3          	bgeu	a7,a2,8000111e <_read+0x4>
static inline int rx_empty(void) { return rx_head == rx_tail; }
    8000113a:	0006d783          	lhu	a5,0(a3)
    8000113e:	0026d503          	lhu	a0,2(a3)
        while (rx_empty()) {
    80001142:	04a79063          	bne	a5,a0,80001182 <_read+0x68>
static inline uint8_t rd8(volatile uint32_t *r) { return (uint8_t)(*r); }
    80001146:	4b48                	lw	a0,20(a4)
            if (rd8(UART_LSR) & LSR_DR) {
    80001148:	8905                	andi	a0,a0,1
    8000114a:	e911                	bnez	a0,8000115e <_read+0x44>
            asm volatile("wfi"); // 等待中断
    8000114c:	10500073          	wfi
static inline int rx_empty(void) { return rx_head == rx_tail; }
    80001150:	0006d503          	lhu	a0,0(a3)
    80001154:	0026d783          	lhu	a5,2(a3)
        while (rx_empty()) {
    80001158:	fef507e3          	beq	a0,a5,80001146 <_read+0x2c>
    8000115c:	a01d                	j	80001182 <_read+0x68>
static inline uint8_t rd8(volatile uint32_t *r) { return (uint8_t)(*r); }
    8000115e:	00072803          	lw	a6,0(a4) # 10000000 <UART0_BASE>
    uint16_t n = (uint16_t)((rx_head + 1) % RX_BUF_SZ);
    80001162:	00069783          	lh	a5,0(a3)
    if (n != rx_tail) { rx_buf[rx_head] = c; rx_head = n; } // 满则丢
    80001166:	0026d503          	lhu	a0,2(a3)
    uint16_t n = (uint16_t)((rx_head + 1) % RX_BUF_SZ);
    8000116a:	0785                	addi	a5,a5,1
    8000116c:	0ff7f793          	zext.b	a5,a5
    if (n != rx_tail) { rx_buf[rx_head] = c; rx_head = n; } // 满则丢
    80001170:	00a78963          	beq	a5,a0,80001182 <_read+0x68>
    80001174:	0006d503          	lhu	a0,0(a3)
    80001178:	9536                	add	a0,a0,a3
    8000117a:	01050223          	sb	a6,4(a0)
    8000117e:	00f69023          	sh	a5,0(a3)
static inline int rx_empty(void) { return rx_head == rx_tail; }
    80001182:	0006d503          	lhu	a0,0(a3)
    80001186:	0026d783          	lhu	a5,2(a3)
        if (!rx_empty()) p[i++] = rx_pop();
    8000118a:	faf506e3          	beq	a0,a5,80001136 <_read+0x1c>
    uint8_t c = rx_buf[rx_tail];
    8000118e:	0026d503          	lhu	a0,2(a3)
    80001192:	9536                	add	a0,a0,a3
    80001194:	00454503          	lbu	a0,4(a0)
    rx_tail = (uint16_t)((rx_tail + 1) % RX_BUF_SZ);
    80001198:	00269783          	lh	a5,2(a3)
    8000119c:	0785                	addi	a5,a5,1
    8000119e:	0ff7f793          	zext.b	a5,a5
    800011a2:	00f69123          	sh	a5,2(a3)
        if (!rx_empty()) p[i++] = rx_pop();
    800011a6:	011587b3          	add	a5,a1,a7
    800011aa:	0885                	addi	a7,a7,1
    800011ac:	00a78023          	sb	a0,0(a5)
    800011b0:	b759                	j	80001136 <_read+0x1c>

00000000800011b2 <_sbrk>:

void* _sbrk(int incr) {
    extern char _end[];
    static char *heap_end;
    if (heap_end == 0) heap_end = _end;
    800011b2:	00000617          	auipc	a2,0x0
    800011b6:	72e63583          	ld	a1,1838(a2) # 800018e0 <_sbrk.heap_end>
    800011ba:	e599                	bnez	a1,800011c8 <_sbrk+0x16>
    800011bc:	00001597          	auipc	a1,0x1
    800011c0:	88858593          	addi	a1,a1,-1912 # 80001a44 <_end>
    800011c4:	72b63723          	sd	a1,1838(a2)
    char *prev_heap_end = heap_end;
    800011c8:	72e63583          	ld	a1,1838(a2)
    heap_end += incr;
    800011cc:	952e                	add	a0,a0,a1
    800011ce:	72a63723          	sd	a0,1838(a2)
    return (void *)prev_heap_end;
    800011d2:	852e                	mv	a0,a1
    800011d4:	8082                	ret

00000000800011d6 <plic_init_uart>:
#include "plic.h"

static inline void w32(uintptr_t a, uint32_t v){ *(volatile uint32_t*)a = v; }
static inline uint32_t r32(uintptr_t a){ return *(volatile uint32_t*)a; }

void plic_init_uart(void) {
    800011d6:	0c000537          	lui	a0,0xc000
    800011da:	4585                	li	a1,1
static inline void w32(uintptr_t a, uint32_t v){ *(volatile uint32_t*)a = v; }
    800011dc:	c14c                	sw	a1,4(a0)
    800011de:	0c002537          	lui	a0,0xc002
static inline uint32_t r32(uintptr_t a){ return *(volatile uint32_t*)a; }
    800011e2:	410c                	lw	a1,0(a0)
    // 1) priority > 0
    w32(PLIC_PRIORITY(UART0_IRQ_ID), 1);
    // 2) enable hart0 的该源（这里只示例 1..32）
    uintptr_t en = PLIC_ENABLE(HART0);
    uint32_t m = r32(en);
    m |= (1u << (UART0_IRQ_ID % 32));
    800011e4:	0025e593          	ori	a1,a1,2
static inline void w32(uintptr_t a, uint32_t v){ *(volatile uint32_t*)a = v; }
    800011e8:	c10c                	sw	a1,0(a0)
    800011ea:	0c200537          	lui	a0,0xc200
    800011ee:	00052023          	sw	zero,0(a0) # c200000 <putchar.buflen+0xc1fffc0>
    w32(en, m);
    // 3) threshold = 0
    w32(PLIC_THRESHOLD(CTX_M(HART0)), 0);
}
    800011f2:	8082                	ret

00000000800011f4 <plic_enable_machine_irqs>:

void plic_enable_machine_irqs(void) {
    800011f4:	4505                	li	a0,1
    800011f6:	052e                	slli	a0,a0,0xb
    const unsigned long MIE_MEIE = 1ul << 11;
    const unsigned long MSTATUS_MIE = 1ul << 3;
    asm volatile ("csrs mie, %0" :: "r"(MIE_MEIE) : "memory");
    800011f8:	30452073          	csrs	mie,a0
    800011fc:	4521                	li	a0,8
    asm volatile ("csrs mstatus, %0" :: "r"(MSTATUS_MIE) : "memory");
    800011fe:	30052073          	csrs	mstatus,a0
}
    80001202:	8082                	ret

0000000080001204 <plic_claim>:

uint32_t plic_claim(void) {
    80001204:	0c200537          	lui	a0,0xc200
static inline uint32_t r32(uintptr_t a){ return *(volatile uint32_t*)a; }
    80001208:	4148                	lw	a0,4(a0)
    return r32(PLIC_CLAIM(CTX_M(HART0)));
    8000120a:	8082                	ret

000000008000120c <plic_complete>:
}

void plic_complete(uint32_t id) {
    if (id) w32(PLIC_CLAIM(CTX_M(HART0)), id);
    8000120c:	c501                	beqz	a0,80001214 <plic_complete+0x8>
    8000120e:	0c2005b7          	lui	a1,0xc200
static inline void w32(uintptr_t a, uint32_t v){ *(volatile uint32_t*)a = v; }
    80001212:	c1c8                	sw	a0,4(a1)
    80001214:	8082                	ret

0000000080001216 <handle_trap>:

// 由 uart_driver.c 提供
void handle_uart_irq(void);

// 简化版陷阱处理：处理 Machine External Interrupt，其他直接返回
uintptr_t handle_trap(uintptr_t cause, uintptr_t epc, uintptr_t regs[32]) {
    80001216:	1101                	addi	sp,sp,-32
    80001218:	ec06                	sd	ra,24(sp)
    8000121a:	e822                	sd	s0,16(sp)
    8000121c:	e426                	sd	s1,8(sp)
    8000121e:	842e                	mv	s0,a1
    80001220:	55fd                	li	a1,-1
    80001222:	15fe                	slli	a1,a1,0x3f
    80001224:	05ad                	addi	a1,a1,11 # c20000b <putchar.buflen+0xc1fffcb>
    // 最高位=1 表示中断
    if (cause >> (sizeof(uintptr_t)*8 - 1)) {
    80001226:	02b51363          	bne	a0,a1,8000124c <handle_trap+0x36>
        uintptr_t code = cause & ((1UL << (sizeof(uintptr_t)*8 - 1)) - 1);
        if (code == 11) { // Machine external interrupt
            uint32_t id = plic_claim();
    8000122a:	00000097          	auipc	ra,0x0
    8000122e:	fda080e7          	jalr	-38(ra) # 80001204 <plic_claim>
    80001232:	4585                	li	a1,1
            if (id == UART0_IRQ_ID) {
    80001234:	00b51863          	bne	a0,a1,80001244 <handle_trap+0x2e>
    80001238:	84aa                	mv	s1,a0
                handle_uart_irq();
    8000123a:	00000097          	auipc	ra,0x0
    8000123e:	e20080e7          	jalr	-480(ra) # 8000105a <handle_uart_irq>
    80001242:	8526                	mv	a0,s1
            }
            plic_complete(id);
    80001244:	00000097          	auipc	ra,0x0
    80001248:	fc8080e7          	jalr	-56(ra) # 8000120c <plic_complete>
            return epc;
        }
    }
    return epc;
    8000124c:	8522                	mv	a0,s0
    8000124e:	60e2                	ld	ra,24(sp)
    80001250:	6442                	ld	s0,16(sp)
    80001252:	64a2                	ld	s1,8(sp)
    80001254:	6105                	addi	sp,sp,32
    80001256:	8082                	ret
