	.attribute	4, 16
	.attribute	5, "rv64i2p1_m2p0_a2p1_f2p2_d2p2_c2p0_v1p0_zicsr2p0_zifencei2p0_zmmul1p0_zaamo1p0_zalrsc1p0_zfh1p0_zfhmin1p0_zca1p0_zcd1p0_zve32f1p0_zve32x1p0_zve64d1p0_zve64f1p0_zve64x1p0_zvfh1p0_zvfhmin1p0_zvl128b1p0_zvl32b1p0_zvl64b1p0"
	.file	"test.c"
	.file	0 "/mnt/d/riscv-dnn/test/ops/softmax" "test.c" md5 0x19a7b367691ce9b992ad8a74440f44df
	.file	1 "/home/xl2025/opt/riscv/riscv64-unknown-elf/include/machine" "_default_types.h" md5 0xf7024d0682a918b41f94e8be9cd90461
	.file	2 "/home/xl2025/opt/riscv/riscv64-unknown-elf/include/sys" "_types.h" md5 0x17b5691773b3e3881dfdbe392c9e8d43
	.file	3 "/home/xl2025/opt/riscv/riscv64-unknown-elf/include" "strings.h" md5 0xdceb1b71cd72987b246237af8552faba
	.text
	.hidden	main                            # -- Begin function main
	.globl	main
	.p2align	1
	.type	main,@function
main:                                   # @main
.Lfunc_begin0:
	.loc	0 96 0                          # test.c:96:0
	.cfi_sections .debug_frame
	.cfi_startproc
# %bb.0:
	#DEBUG_VALUE: softmax_stable_rvv_fp32:n <- 16
	addi	sp, sp, -16
	.cfi_def_cfa_offset 16
.Ltmp0:
	.loc	0 104 26 prologue_end           # test.c:104:26 @[ test.c:97:5 ]
	vsetvli	a0, zero, e32, m1, ta, ma
.Ltmp1:
	#DEBUG_VALUE: softmax_stable_rvv_fp32:vlmax <- $x10
	.loc	0 0 26 is_stmt 0                # test.c:0:26
	lui	a1, 1046528
.Ltmp2:
	#DEBUG_VALUE: softmax_stable_rvv_fp32:BITS_NEG_INF <- -8388608
	#DEBUG_VALUE: softmax_stable_rvv_fp32:BITS_ILN2 <- 1069066811
	#DEBUG_VALUE: softmax_stable_rvv_fp32:BITS_LN2_HI <- 1060204544
	#DEBUG_VALUE: softmax_stable_rvv_fp32:BITS_LN2_LO <- 947915776
	#DEBUG_VALUE: softmax_stable_rvv_fp32:BITS_EPS <- 841731191
	#DEBUG_VALUE: softmax_stable_rvv_fp32:BITS_TWO <- 1073741824
	#DEBUG_VALUE: softmax_stable_rvv_fp32:C0 <- 1065353216
	#DEBUG_VALUE: softmax_stable_rvv_fp32:C1 <- 1065353216
	#DEBUG_VALUE: softmax_stable_rvv_fp32:C2 <- 1056964608
	#DEBUG_VALUE: softmax_stable_rvv_fp32:C3 <- 1042983595
	#DEBUG_VALUE: softmax_stable_rvv_fp32:C4 <- 1026206379
	#DEBUG_VALUE: softmax_stable_rvv_fp32:C5 <- 1007192201
	#DEBUG_VALUE: softmax_stable_rvv_fp32:C6 <- 985008993
	#DEBUG_VALUE: softmax_stable_rvv_fp32:C7 <- 974222804
	#DEBUG_VALUE: softmax_stable_rvv_fp32:C8 <- 958852494
	li	a0, 16
.Ltmp3:
	#DEBUG_VALUE: softmax_stable_rvv_fp32:vlmax <- $x10
	.loc	0 144 63 is_stmt 1              # test.c:144:63 @[ test.c:97:5 ]
	vmv.v.x	v11, a1
.Lpcrel_hi0:
	auipc	a1, %pcrel_hi(src)
	addi	a1, a1, %pcrel_lo(.Lpcrel_hi0)
.Ltmp4:
	#DEBUG_VALUE: softmax_stable_rvv_fp32:src <- $x11
	#DEBUG_VALUE: softmax_stable_rvv_fp32:src_orig <- $x11
	#DEBUG_VALUE: softmax_stable_rvv_fp32:avl <- 16
	#DEBUG_VALUE: softmax_stable_rvv_fp32:vneg_inf_int <- undef
	#DEBUG_VALUE: softmax_stable_rvv_fp32:vnegInf <- undef
	#DEBUG_VALUE: softmax_stable_rvv_fp32:vmax <- undef
	#DEBUG_VALUE: softmax_stable_rvv_fp32:dst <- undef
	.loc	0 0 63 is_stmt 0                # test.c:0:63
	vmv.v.v	v12, v11
.Ltmp5:
.LBB0_1:                                # =>This Inner Loop Header: Depth=1
	#DEBUG_VALUE: softmax_stable_rvv_fp32:src <- $x11
	#DEBUG_VALUE: softmax_stable_rvv_fp32:C8 <- 958852494
	#DEBUG_VALUE: softmax_stable_rvv_fp32:C7 <- 974222804
	#DEBUG_VALUE: softmax_stable_rvv_fp32:C6 <- 985008993
	#DEBUG_VALUE: softmax_stable_rvv_fp32:C5 <- 1007192201
	#DEBUG_VALUE: softmax_stable_rvv_fp32:C4 <- 1026206379
	#DEBUG_VALUE: softmax_stable_rvv_fp32:C3 <- 1042983595
	#DEBUG_VALUE: softmax_stable_rvv_fp32:C2 <- 1056964608
	#DEBUG_VALUE: softmax_stable_rvv_fp32:C1 <- 1065353216
	#DEBUG_VALUE: softmax_stable_rvv_fp32:C0 <- 1065353216
	#DEBUG_VALUE: softmax_stable_rvv_fp32:BITS_TWO <- 1073741824
	#DEBUG_VALUE: softmax_stable_rvv_fp32:BITS_EPS <- 841731191
	#DEBUG_VALUE: softmax_stable_rvv_fp32:BITS_LN2_LO <- 947915776
	#DEBUG_VALUE: softmax_stable_rvv_fp32:BITS_LN2_HI <- 1060204544
	#DEBUG_VALUE: softmax_stable_rvv_fp32:BITS_ILN2 <- 1069066811
	#DEBUG_VALUE: softmax_stable_rvv_fp32:BITS_NEG_INF <- -8388608
	#DEBUG_VALUE: softmax_stable_rvv_fp32:n <- 16
	#DEBUG_VALUE: softmax_stable_rvv_fp32:src <- $x11
	#DEBUG_VALUE: softmax_stable_rvv_fp32:avl <- $x10
	#DEBUG_VALUE: softmax_stable_rvv_fp32:vmax <- undef
	.loc	0 174 21 is_stmt 1              # test.c:174:21 @[ test.c:97:5 ]
	vsetvli	a2, a0, e32, m1, ta, ma
.Ltmp6:
	#DEBUG_VALUE: vl <- $x12
	.loc	0 175 27                        # test.c:175:27 @[ test.c:97:5 ]
	vle32.v	v8, (a1)
.Ltmp7:
	#DEBUG_VALUE: vx <- undef
	.loc	0 177 13                        # test.c:177:13 @[ test.c:97:5 ]
	sub	a0, a0, a2
.Ltmp8:
	#DEBUG_VALUE: softmax_stable_rvv_fp32:avl <- $x10
	.loc	0 176 16                        # test.c:176:16 @[ test.c:97:5 ]
	vfmax.vv	v12, v12, v8
	.loc	0 178 13                        # test.c:178:13 @[ test.c:97:5 ]
	slli	a2, a2, 2
.Ltmp9:
	add	a1, a1, a2
.Ltmp10:
	#DEBUG_VALUE: softmax_stable_rvv_fp32:src <- $x11
	.loc	0 173 5                         # test.c:173:5 @[ test.c:97:5 ]
	bnez	a0, .LBB0_1
.Ltmp11:
# %bb.2:
	#DEBUG_VALUE: softmax_stable_rvv_fp32:avl <- $x10
	#DEBUG_VALUE: softmax_stable_rvv_fp32:src <- $x11
	#DEBUG_VALUE: softmax_stable_rvv_fp32:C8 <- 958852494
	#DEBUG_VALUE: softmax_stable_rvv_fp32:C7 <- 974222804
	#DEBUG_VALUE: softmax_stable_rvv_fp32:C6 <- 985008993
	#DEBUG_VALUE: softmax_stable_rvv_fp32:C5 <- 1007192201
	#DEBUG_VALUE: softmax_stable_rvv_fp32:C4 <- 1026206379
	#DEBUG_VALUE: softmax_stable_rvv_fp32:C3 <- 1042983595
	#DEBUG_VALUE: softmax_stable_rvv_fp32:C2 <- 1056964608
	#DEBUG_VALUE: softmax_stable_rvv_fp32:C1 <- 1065353216
	#DEBUG_VALUE: softmax_stable_rvv_fp32:C0 <- 1065353216
	#DEBUG_VALUE: softmax_stable_rvv_fp32:BITS_TWO <- 1073741824
	#DEBUG_VALUE: softmax_stable_rvv_fp32:BITS_EPS <- 841731191
	#DEBUG_VALUE: softmax_stable_rvv_fp32:BITS_LN2_LO <- 947915776
	#DEBUG_VALUE: softmax_stable_rvv_fp32:BITS_LN2_HI <- 1060204544
	#DEBUG_VALUE: softmax_stable_rvv_fp32:BITS_ILN2 <- 1069066811
	#DEBUG_VALUE: softmax_stable_rvv_fp32:BITS_NEG_INF <- -8388608
	#DEBUG_VALUE: softmax_stable_rvv_fp32:n <- 16
	.loc	0 0 5 is_stmt 0                 # test.c:0:5
	li	t1, 0
	.loc	0 143 63 is_stmt 1              # test.c:143:63 @[ test.c:97:5 ]
	vsetvli	a1, zero, e32, m1, ta, ma
.Ltmp12:
	vmv.v.i	v8, 0
	lui	a1, 261003
	lui	a2, 258839
.Ltmp13:
	#DEBUG_VALUE: softmax_stable_rvv_fp32:viln2 <- undef
	.loc	0 0 63 is_stmt 0                # test.c:0:63
	lui	a6, 231425
	lui	a4, 260096
.Ltmp14:
	#DEBUG_VALUE: softmax_stable_rvv_fp32:vln2_lo <- undef
	lui	a5, 258048
.Ltmp15:
	#DEBUG_VALUE: softmax_stable_rvv_fp32:pc1 <- undef
	#DEBUG_VALUE: softmax_stable_rvv_fp32:pc0 <- undef
	.loc	0 146 63 is_stmt 1              # test.c:146:63 @[ test.c:97:5 ]
	vmv.v.x	v9, a2
	lui	a7, 254635
	.loc	0 148 59                        # test.c:148:59 @[ test.c:97:5 ]
	vmv.v.x	v10, a4
	lui	t0, 250539
	.loc	0 182 26                        # test.c:182:26 @[ test.c:97:5 ]
	vfredmax.vs	v11, v12, v11
.Ltmp16:
	#DEBUG_VALUE: softmax_stable_rvv_fp32:vmax1 <- undef
	#DEBUG_VALUE: softmax_stable_rvv_fp32:vredmax <- undef
	.loc	0 150 59                        # test.c:150:59 @[ test.c:97:5 ]
	vmv.v.x	v12, a5
	addi	a5, sp, 12
.Ltmp17:
	#DEBUG_VALUE: softmax_stable_rvv_fp32:vredmax_int <- undef
	.loc	0 192 5 is_stmt 0               # test.c:192:5 @[ test.c:97:5 ]
	vsetivli	zero, 1, e32, m1, ta, ma
	vse32.v	v11, (a5)
	lui	a5, 245897
	addi	a1, a1, -1477
.Ltmp18:
	#DEBUG_VALUE: softmax_stable_rvv_fp32:vzero <- undef
	.loc	0 145 63 is_stmt 1              # test.c:145:63 @[ test.c:97:5 ]
	vsetvli	a3, zero, e32, m1, ta, ma
	vmv.v.x	v13, a1
	lui	a3, 240481
	addi	a1, a6, -1024
.Ltmp19:
	#DEBUG_VALUE: softmax_stable_rvv_fp32:vln2_hi <- undef
	.loc	0 147 63                        # test.c:147:63 @[ test.c:97:5 ]
	vmv.v.x	v14, a1
	lui	a2, 237847
	addi	a1, a7, -1365
.Ltmp20:
	#DEBUG_VALUE: softmax_stable_rvv_fp32:pc2 <- undef
	.loc	0 151 59                        # test.c:151:59 @[ test.c:97:5 ]
	vmv.v.x	v15, a1
	lui	a6, 234095
	addi	a1, t0, -1365
.Ltmp21:
	#DEBUG_VALUE: softmax_stable_rvv_fp32:pc3 <- undef
	.loc	0 152 59                        # test.c:152:59 @[ test.c:97:5 ]
	vmv.v.x	v16, a1
	li	a1, 16
	addi	a5, a5, -1911
.Ltmp22:
	#DEBUG_VALUE: softmax_stable_rvv_fp32:pc4 <- undef
	.loc	0 153 59                        # test.c:153:59 @[ test.c:97:5 ]
	vmv.v.x	v17, a5
.Lpcrel_hi1:
	auipc	a7, %pcrel_hi(src)
	addi	a3, a3, -1183
.Ltmp23:
	#DEBUG_VALUE: softmax_stable_rvv_fp32:pc5 <- undef
	.loc	0 154 59                        # test.c:154:59 @[ test.c:97:5 ]
	vmv.v.x	v18, a3
.Lpcrel_hi2:
	auipc	a4, %pcrel_hi(dst)
	addi	a2, a2, 1492
.Ltmp24:
	#DEBUG_VALUE: softmax_stable_rvv_fp32:pc6 <- undef
	.loc	0 155 59                        # test.c:155:59 @[ test.c:97:5 ]
	vmv.v.x	v20, a2
	li	t0, 127
	addi	a5, a6, -626
.Ltmp25:
	#DEBUG_VALUE: softmax_stable_rvv_fp32:pc7 <- undef
	.loc	0 0 59 is_stmt 0                # test.c:0:59
	addi	a3, a7, %pcrel_lo(.Lpcrel_hi1)
.Ltmp26:
	#DEBUG_VALUE: softmax_stable_rvv_fp32:src <- $x13
	addi	a4, a4, %pcrel_lo(.Lpcrel_hi2)
.Ltmp27:
	#DEBUG_VALUE: softmax_stable_rvv_fp32:dst <- $x14
	#DEBUG_VALUE: softmax_stable_rvv_fp32:dst_orig <- $x14
	#DEBUG_VALUE: softmax_stable_rvv_fp32:max_x_union <- undef
	#DEBUG_VALUE: softmax_stable_rvv_fp32:max_x_as_int <- undef
	#DEBUG_VALUE: softmax_stable_rvv_fp32:avl2 <- 16
	#DEBUG_VALUE: softmax_stable_rvv_fp32:vsum1 <- undef
	.loc	0 156 59 is_stmt 1              # test.c:156:59 @[ test.c:97:5 ]
	vmv.v.x	v21, a5
.Ltmp28:
	#DEBUG_VALUE: softmax_stable_rvv_fp32:pc8 <- undef
	.loc	0 0 59 is_stmt 0                # test.c:0:59
	vsetivli	zero, 1, e32, m1, ta, ma
	vmv1r.v	v19, v8
.Ltmp29:
.LBB0_3:                                # =>This Inner Loop Header: Depth=1
	#DEBUG_VALUE: softmax_stable_rvv_fp32:dst <- $x14
	#DEBUG_VALUE: softmax_stable_rvv_fp32:src <- $x13
	#DEBUG_VALUE: softmax_stable_rvv_fp32:C8 <- 958852494
	#DEBUG_VALUE: softmax_stable_rvv_fp32:C7 <- 974222804
	#DEBUG_VALUE: softmax_stable_rvv_fp32:C6 <- 985008993
	#DEBUG_VALUE: softmax_stable_rvv_fp32:C5 <- 1007192201
	#DEBUG_VALUE: softmax_stable_rvv_fp32:C4 <- 1026206379
	#DEBUG_VALUE: softmax_stable_rvv_fp32:C3 <- 1042983595
	#DEBUG_VALUE: softmax_stable_rvv_fp32:C2 <- 1056964608
	#DEBUG_VALUE: softmax_stable_rvv_fp32:C1 <- 1065353216
	#DEBUG_VALUE: softmax_stable_rvv_fp32:C0 <- 1065353216
	#DEBUG_VALUE: softmax_stable_rvv_fp32:BITS_TWO <- 1073741824
	#DEBUG_VALUE: softmax_stable_rvv_fp32:BITS_EPS <- 841731191
	#DEBUG_VALUE: softmax_stable_rvv_fp32:BITS_LN2_LO <- 947915776
	#DEBUG_VALUE: softmax_stable_rvv_fp32:BITS_LN2_HI <- 1060204544
	#DEBUG_VALUE: softmax_stable_rvv_fp32:BITS_ILN2 <- 1069066811
	#DEBUG_VALUE: softmax_stable_rvv_fp32:BITS_NEG_INF <- -8388608
	#DEBUG_VALUE: softmax_stable_rvv_fp32:n <- 16
	#DEBUG_VALUE: softmax_stable_rvv_fp32:src <- $x13
	#DEBUG_VALUE: softmax_stable_rvv_fp32:dst <- $x14
	#DEBUG_VALUE: softmax_stable_rvv_fp32:avl2 <- $x11
	#DEBUG_VALUE: softmax_stable_rvv_fp32:vsum1 <- undef
	.loc	0 240 30 is_stmt 1              # test.c:240:30 @[ test.c:97:5 ]
	mv	a5, a1
	.loc	0 206 21                        # test.c:206:21 @[ test.c:97:5 ]
	vsetvli	a2, a1, e32, m1, ta, ma
.Ltmp30:
	#DEBUG_VALUE: vl <- $x12
	.loc	0 207 27                        # test.c:207:27 @[ test.c:97:5 ]
	vle32.v	v22, (a3)
.Ltmp31:
	#DEBUG_VALUE: vx <- undef
	.loc	0 210 31                        # test.c:210:31 @[ test.c:97:5 ]
	vrgather.vi	v23, v11, 0
.Ltmp32:
	#DEBUG_VALUE: vmax_x <- undef
	.loc	0 211 14                        # test.c:211:14 @[ test.c:97:5 ]
	vfsub.vv	v22, v22, v23
	.loc	0 216 31                        # test.c:216:31 @[ test.c:97:5 ]
	vfmul.vv	v23, v22, v13
.Ltmp33:
	#DEBUG_VALUE: vxiln2 <- undef
	.loc	0 217 31                        # test.c:217:31 @[ test.c:97:5 ]
	vfcvt.x.f.v	v23, v23
.Ltmp34:
	#DEBUG_VALUE: vk <- undef
	.loc	0 221 31                        # test.c:221:31 @[ test.c:97:5 ]
	vfcvt.f.x.v	v24, v23
.Ltmp35:
	#DEBUG_VALUE: vfk <- undef
	.loc	0 222 31                        # test.c:222:31 @[ test.c:97:5 ]
	vfmul.vv	v25, v24, v9
.Ltmp36:
	#DEBUG_VALUE: vkl2hi <- undef
	.loc	0 224 31                        # test.c:224:31 @[ test.c:97:5 ]
	vfsub.vv	v22, v22, v25
.Ltmp37:
	#DEBUG_VALUE: vr <- undef
	.loc	0 229 13                        # test.c:229:13 @[ test.c:97:5 ]
	vmv1r.v	v25, v21
	.loc	0 214 9                         # test.c:214:9 @[ test.c:97:5 ]
	#APP
	frrm	a0
	#NO_APP
.Ltmp38:
	#DEBUG_VALUE: old_frm <- $x10
	.loc	0 215 9                         # test.c:215:9 @[ test.c:97:5 ]
	#APP
	fsrm	t1
	#NO_APP
	.loc	0 251 14                        # test.c:251:14 @[ test.c:97:5 ]
	sub	a1, a1, a2
.Ltmp39:
	#DEBUG_VALUE: softmax_stable_rvv_fp32:avl2 <- $x11
	.loc	0 218 9                         # test.c:218:9 @[ test.c:97:5 ]
	#APP
	fsrm	a0
	#NO_APP
	.loc	0 252 14                        # test.c:252:14 @[ test.c:97:5 ]
	slli	a2, a2, 2
.Ltmp40:
	#DEBUG_VALUE: vl <- $x12
	add	a3, a3, a2
.Ltmp41:
	#DEBUG_VALUE: softmax_stable_rvv_fp32:src <- $x13
	.loc	0 240 30                        # test.c:240:30 @[ test.c:97:5 ]
	vsetvli	zero, a5, e32, m1, ta, ma
	vadd.vx	v23, v23, t0
.Ltmp42:
	#DEBUG_VALUE: vbiased <- undef
	.loc	0 223 31                        # test.c:223:31 @[ test.c:97:5 ]
	vfmul.vv	v24, v24, v14
.Ltmp43:
	#DEBUG_VALUE: vkl2lo <- undef
	.loc	0 241 30                        # test.c:241:30 @[ test.c:97:5 ]
	vsll.vi	v23, v23, 23
.Ltmp44:
	#DEBUG_VALUE: vexp2 <- undef
	#DEBUG_VALUE: vf2k <- undef
	.loc	0 225 14                        # test.c:225:14 @[ test.c:97:5 ]
	vfsub.vv	v22, v22, v24
.Ltmp45:
	#DEBUG_VALUE: p <- undef
	.loc	0 229 13                        # test.c:229:13 @[ test.c:97:5 ]
	vfmadd.vv	v25, v22, v20
	.loc	0 230 13                        # test.c:230:13 @[ test.c:97:5 ]
	vfmadd.vv	v25, v22, v18
	.loc	0 231 13                        # test.c:231:13 @[ test.c:97:5 ]
	vfmadd.vv	v25, v22, v17
	.loc	0 232 13                        # test.c:232:13 @[ test.c:97:5 ]
	vfmadd.vv	v25, v22, v16
	.loc	0 233 13                        # test.c:233:13 @[ test.c:97:5 ]
	vfmadd.vv	v25, v22, v15
	.loc	0 234 13                        # test.c:234:13 @[ test.c:97:5 ]
	vfmadd.vv	v25, v22, v12
	.loc	0 235 13                        # test.c:235:13 @[ test.c:97:5 ]
	vfmadd.vv	v25, v22, v10
	.loc	0 236 13                        # test.c:236:13 @[ test.c:97:5 ]
	vfmadd.vv	v25, v22, v10
.Ltmp46:
	#DEBUG_VALUE: exp_bias <- 127
	.loc	0 245 30                        # test.c:245:30 @[ test.c:97:5 ]
	vfmul.vv	v22, v25, v23
.Ltmp47:
	#DEBUG_VALUE: vexp <- undef
	.loc	0 247 9 is_stmt 0               # test.c:247:9 @[ test.c:97:5 ]
	vse32.v	v22, (a4)
	.loc	0 248 30 is_stmt 1              # test.c:248:30 @[ test.c:97:5 ]
	vfredosum.vs	v22, v22, v8
.Ltmp48:
	#DEBUG_VALUE: vblk <- undef
	.loc	0 249 17                        # test.c:249:17 @[ test.c:97:5 ]
	vsetivli	zero, 1, e32, m1, ta, ma
	vfadd.vv	v19, v19, v22
	.loc	0 253 14                        # test.c:253:14 @[ test.c:97:5 ]
	add	a4, a4, a2
.Ltmp49:
	#DEBUG_VALUE: softmax_stable_rvv_fp32:dst <- $x14
	.loc	0 205 5                         # test.c:205:5 @[ test.c:97:5 ]
	bnez	a1, .LBB0_3
.Ltmp50:
# %bb.4:
	#DEBUG_VALUE: softmax_stable_rvv_fp32:avl2 <- $x11
	#DEBUG_VALUE: softmax_stable_rvv_fp32:dst <- $x14
	#DEBUG_VALUE: softmax_stable_rvv_fp32:src <- $x13
	#DEBUG_VALUE: softmax_stable_rvv_fp32:C8 <- 958852494
	#DEBUG_VALUE: softmax_stable_rvv_fp32:C7 <- 974222804
	#DEBUG_VALUE: softmax_stable_rvv_fp32:C6 <- 985008993
	#DEBUG_VALUE: softmax_stable_rvv_fp32:C5 <- 1007192201
	#DEBUG_VALUE: softmax_stable_rvv_fp32:C4 <- 1026206379
	#DEBUG_VALUE: softmax_stable_rvv_fp32:C3 <- 1042983595
	#DEBUG_VALUE: softmax_stable_rvv_fp32:C2 <- 1056964608
	#DEBUG_VALUE: softmax_stable_rvv_fp32:C1 <- 1065353216
	#DEBUG_VALUE: softmax_stable_rvv_fp32:C0 <- 1065353216
	#DEBUG_VALUE: softmax_stable_rvv_fp32:BITS_TWO <- 1073741824
	#DEBUG_VALUE: softmax_stable_rvv_fp32:BITS_EPS <- 841731191
	#DEBUG_VALUE: softmax_stable_rvv_fp32:BITS_LN2_LO <- 947915776
	#DEBUG_VALUE: softmax_stable_rvv_fp32:BITS_LN2_HI <- 1060204544
	#DEBUG_VALUE: softmax_stable_rvv_fp32:BITS_ILN2 <- 1069066811
	#DEBUG_VALUE: softmax_stable_rvv_fp32:BITS_NEG_INF <- -8388608
	#DEBUG_VALUE: softmax_stable_rvv_fp32:n <- 16
	.loc	0 0 5 is_stmt 0                 # test.c:0:5
	lui	a0, 262144
	.loc	0 157 61 is_stmt 1              # test.c:157:61 @[ test.c:97:5 ]
	vsetvli	a1, zero, e32, m1, ta, ma
.Ltmp51:
	vmv.v.x	v8, a0
	lui	a0, 205501
	addi	a0, a0, -905
.Ltmp52:
	#DEBUG_VALUE: softmax_stable_rvv_fp32:vtwo1 <- undef
	.loc	0 158 61                        # test.c:158:61 @[ test.c:97:5 ]
	vmv.v.x	v9, a0
.Ltmp53:
	#DEBUG_VALUE: softmax_stable_rvv_fp32:vl1 <- undef
	#DEBUG_VALUE: softmax_stable_rvv_fp32:veps1 <- undef
	.loc	0 0 61 is_stmt 0                # test.c:0:61
	li	a0, 16
.Lpcrel_hi3:
	auipc	a1, %pcrel_hi(dst)
	.loc	0 257 30 is_stmt 1              # test.c:257:30 @[ test.c:97:5 ]
	vsetivli	zero, 1, e32, m1, ta, ma
	vfadd.vv	v9, v19, v9
.Ltmp54:
	#DEBUG_VALUE: softmax_stable_rvv_fp32:vsum1_eps <- undef
	.loc	0 258 26                        # test.c:258:26 @[ test.c:97:5 ]
	vfrec7.v	v10, v9
.Ltmp55:
	#DEBUG_VALUE: softmax_stable_rvv_fp32:vinv1 <- undef
	.loc	0 260 25                        # test.c:260:25 @[ test.c:97:5 ]
	vmv.v.v	v11, v9
	vfnmsub.vv	v11, v10, v8
.Ltmp56:
	#DEBUG_VALUE: softmax_stable_rvv_fp32:corr <- undef
	.loc	0 261 13                        # test.c:261:13 @[ test.c:97:5 ]
	vfmul.vv	v10, v10, v11
	.loc	0 262 13                        # test.c:262:13 @[ test.c:97:5 ]
	vfnmsub.vv	v9, v10, v8
	.loc	0 263 13                        # test.c:263:13 @[ test.c:97:5 ]
	vfmul.vv	v8, v10, v9
	addi	a1, a1, %pcrel_lo(.Lpcrel_hi3)
.Ltmp57:
	#DEBUG_VALUE: softmax_stable_rvv_fp32:dst <- $x11
	#DEBUG_VALUE: softmax_stable_rvv_fp32:avl3 <- 16
.LBB0_5:                                # =>This Inner Loop Header: Depth=1
	#DEBUG_VALUE: softmax_stable_rvv_fp32:dst <- $x11
	#DEBUG_VALUE: softmax_stable_rvv_fp32:src <- $x13
	#DEBUG_VALUE: softmax_stable_rvv_fp32:C8 <- 958852494
	#DEBUG_VALUE: softmax_stable_rvv_fp32:C7 <- 974222804
	#DEBUG_VALUE: softmax_stable_rvv_fp32:C6 <- 985008993
	#DEBUG_VALUE: softmax_stable_rvv_fp32:C5 <- 1007192201
	#DEBUG_VALUE: softmax_stable_rvv_fp32:C4 <- 1026206379
	#DEBUG_VALUE: softmax_stable_rvv_fp32:C3 <- 1042983595
	#DEBUG_VALUE: softmax_stable_rvv_fp32:C2 <- 1056964608
	#DEBUG_VALUE: softmax_stable_rvv_fp32:C1 <- 1065353216
	#DEBUG_VALUE: softmax_stable_rvv_fp32:C0 <- 1065353216
	#DEBUG_VALUE: softmax_stable_rvv_fp32:BITS_TWO <- 1073741824
	#DEBUG_VALUE: softmax_stable_rvv_fp32:BITS_EPS <- 841731191
	#DEBUG_VALUE: softmax_stable_rvv_fp32:BITS_LN2_LO <- 947915776
	#DEBUG_VALUE: softmax_stable_rvv_fp32:BITS_LN2_HI <- 1060204544
	#DEBUG_VALUE: softmax_stable_rvv_fp32:BITS_ILN2 <- 1069066811
	#DEBUG_VALUE: softmax_stable_rvv_fp32:BITS_NEG_INF <- -8388608
	#DEBUG_VALUE: softmax_stable_rvv_fp32:n <- 16
	#DEBUG_VALUE: softmax_stable_rvv_fp32:dst <- $x11
	#DEBUG_VALUE: softmax_stable_rvv_fp32:avl3 <- $x10
	.loc	0 269 21                        # test.c:269:21 @[ test.c:97:5 ]
	vsetvli	a2, a0, e32, m1, ta, ma
.Ltmp58:
	#DEBUG_VALUE: vl <- $x12
	.loc	0 270 30                        # test.c:270:30 @[ test.c:97:5 ]
	vle32.v	v9, (a1)
.Ltmp59:
	#DEBUG_VALUE: row <- undef
	.loc	0 271 30                        # test.c:271:30 @[ test.c:97:5 ]
	vrgather.vi	v10, v8, 0
.Ltmp60:
	#DEBUG_VALUE: vinvB <- undef
	.loc	0 274 14                        # test.c:274:14 @[ test.c:97:5 ]
	sub	a0, a0, a2
.Ltmp61:
	#DEBUG_VALUE: softmax_stable_rvv_fp32:avl3 <- $x10
	.loc	0 272 15                        # test.c:272:15 @[ test.c:97:5 ]
	vfmul.vv	v9, v9, v10
	.loc	0 273 9 is_stmt 0               # test.c:273:9 @[ test.c:97:5 ]
	vse32.v	v9, (a1)
	.loc	0 275 14 is_stmt 1              # test.c:275:14 @[ test.c:97:5 ]
	slli	a2, a2, 2
.Ltmp62:
	add	a1, a1, a2
.Ltmp63:
	#DEBUG_VALUE: softmax_stable_rvv_fp32:dst <- $x11
	.loc	0 268 5                         # test.c:268:5 @[ test.c:97:5 ]
	bnez	a0, .LBB0_5
.Ltmp64:
# %bb.6:
	#DEBUG_VALUE: softmax_stable_rvv_fp32:avl3 <- $x10
	#DEBUG_VALUE: softmax_stable_rvv_fp32:dst <- $x11
	#DEBUG_VALUE: softmax_stable_rvv_fp32:src <- $x13
	#DEBUG_VALUE: softmax_stable_rvv_fp32:C8 <- 958852494
	#DEBUG_VALUE: softmax_stable_rvv_fp32:C7 <- 974222804
	#DEBUG_VALUE: softmax_stable_rvv_fp32:C6 <- 985008993
	#DEBUG_VALUE: softmax_stable_rvv_fp32:C5 <- 1007192201
	#DEBUG_VALUE: softmax_stable_rvv_fp32:C4 <- 1026206379
	#DEBUG_VALUE: softmax_stable_rvv_fp32:C3 <- 1042983595
	#DEBUG_VALUE: softmax_stable_rvv_fp32:C2 <- 1056964608
	#DEBUG_VALUE: softmax_stable_rvv_fp32:C1 <- 1065353216
	#DEBUG_VALUE: softmax_stable_rvv_fp32:C0 <- 1065353216
	#DEBUG_VALUE: softmax_stable_rvv_fp32:BITS_TWO <- 1073741824
	#DEBUG_VALUE: softmax_stable_rvv_fp32:BITS_EPS <- 841731191
	#DEBUG_VALUE: softmax_stable_rvv_fp32:BITS_LN2_LO <- 947915776
	#DEBUG_VALUE: softmax_stable_rvv_fp32:BITS_LN2_HI <- 1060204544
	#DEBUG_VALUE: softmax_stable_rvv_fp32:BITS_ILN2 <- 1069066811
	#DEBUG_VALUE: softmax_stable_rvv_fp32:BITS_NEG_INF <- -8388608
	#DEBUG_VALUE: softmax_stable_rvv_fp32:n <- 16
	.loc	0 0 5 is_stmt 0                 # test.c:0:5
	li	a0, 1000
.Ltmp65:
.LBB0_7:                                # =>This Inner Loop Header: Depth=1
	#DEBUG_VALUE: softmax_stable_rvv_fp32:dst <- $x11
	#DEBUG_VALUE: softmax_stable_rvv_fp32:src <- $x13
	#DEBUG_VALUE: softmax_stable_rvv_fp32:C8 <- 958852494
	#DEBUG_VALUE: softmax_stable_rvv_fp32:C7 <- 974222804
	#DEBUG_VALUE: softmax_stable_rvv_fp32:C6 <- 985008993
	#DEBUG_VALUE: softmax_stable_rvv_fp32:C5 <- 1007192201
	#DEBUG_VALUE: softmax_stable_rvv_fp32:C4 <- 1026206379
	#DEBUG_VALUE: softmax_stable_rvv_fp32:C3 <- 1042983595
	#DEBUG_VALUE: softmax_stable_rvv_fp32:C2 <- 1056964608
	#DEBUG_VALUE: softmax_stable_rvv_fp32:C1 <- 1065353216
	#DEBUG_VALUE: softmax_stable_rvv_fp32:C0 <- 1065353216
	#DEBUG_VALUE: softmax_stable_rvv_fp32:BITS_TWO <- 1073741824
	#DEBUG_VALUE: softmax_stable_rvv_fp32:BITS_EPS <- 841731191
	#DEBUG_VALUE: softmax_stable_rvv_fp32:BITS_LN2_LO <- 947915776
	#DEBUG_VALUE: softmax_stable_rvv_fp32:BITS_LN2_HI <- 1060204544
	#DEBUG_VALUE: softmax_stable_rvv_fp32:BITS_ILN2 <- 1069066811
	#DEBUG_VALUE: softmax_stable_rvv_fp32:BITS_NEG_INF <- -8388608
	#DEBUG_VALUE: softmax_stable_rvv_fp32:n <- 16
	#DEBUG_VALUE: i <- [DW_OP_consts 1000, DW_OP_minus, DW_OP_consts 18446744073709551615, DW_OP_div, DW_OP_stack_value] $x10
	.loc	0 9 26 is_stmt 1                # test.c:9:26 @[ test.c:278:5 @[ test.c:97:5 ] ]
	addiw	a0, a0, -1
.Ltmp66:
	.loc	0 10 5                          # test.c:10:5 @[ test.c:278:5 @[ test.c:97:5 ] ]
	#APP
	nop
	#NO_APP
.Ltmp67:
	#DEBUG_VALUE: i <- [DW_OP_consts 1000, DW_OP_minus, DW_OP_consts 18446744073709551615, DW_OP_div, DW_OP_consts 1, DW_OP_plus, DW_OP_stack_value] $x10
	.loc	0 9 3                           # test.c:9:3 @[ test.c:278:5 @[ test.c:97:5 ] ]
	bnez	a0, .LBB0_7
.Ltmp68:
# %bb.8:
	#DEBUG_VALUE: i <- [DW_OP_consts 1000, DW_OP_minus, DW_OP_consts 18446744073709551615, DW_OP_div, DW_OP_consts 1, DW_OP_plus, DW_OP_stack_value] $x10
	#DEBUG_VALUE: softmax_stable_rvv_fp32:dst <- $x11
	#DEBUG_VALUE: softmax_stable_rvv_fp32:src <- $x13
	#DEBUG_VALUE: softmax_stable_rvv_fp32:C8 <- 958852494
	#DEBUG_VALUE: softmax_stable_rvv_fp32:C7 <- 974222804
	#DEBUG_VALUE: softmax_stable_rvv_fp32:C6 <- 985008993
	#DEBUG_VALUE: softmax_stable_rvv_fp32:C5 <- 1007192201
	#DEBUG_VALUE: softmax_stable_rvv_fp32:C4 <- 1026206379
	#DEBUG_VALUE: softmax_stable_rvv_fp32:C3 <- 1042983595
	#DEBUG_VALUE: softmax_stable_rvv_fp32:C2 <- 1056964608
	#DEBUG_VALUE: softmax_stable_rvv_fp32:C1 <- 1065353216
	#DEBUG_VALUE: softmax_stable_rvv_fp32:C0 <- 1065353216
	#DEBUG_VALUE: softmax_stable_rvv_fp32:BITS_TWO <- 1073741824
	#DEBUG_VALUE: softmax_stable_rvv_fp32:BITS_EPS <- 841731191
	#DEBUG_VALUE: softmax_stable_rvv_fp32:BITS_LN2_LO <- 947915776
	#DEBUG_VALUE: softmax_stable_rvv_fp32:BITS_LN2_HI <- 1060204544
	#DEBUG_VALUE: softmax_stable_rvv_fp32:BITS_ILN2 <- 1069066811
	#DEBUG_VALUE: softmax_stable_rvv_fp32:BITS_NEG_INF <- -8388608
	#DEBUG_VALUE: softmax_stable_rvv_fp32:n <- 16
	.loc	0 0 3 is_stmt 0                 # test.c:0:3
	li	a0, 16
.Lpcrel_hi4:
	auipc	a1, %pcrel_hi(dst)
.Ltmp69:
	addi	a1, a1, %pcrel_lo(.Lpcrel_hi4)
.Ltmp70:
.LBB0_9:                                # =>This Inner Loop Header: Depth=1
	#DEBUG_VALUE: softmax_stable_rvv_fp32:src <- $x13
	#DEBUG_VALUE: softmax_stable_rvv_fp32:C8 <- 958852494
	#DEBUG_VALUE: softmax_stable_rvv_fp32:C7 <- 974222804
	#DEBUG_VALUE: softmax_stable_rvv_fp32:C6 <- 985008993
	#DEBUG_VALUE: softmax_stable_rvv_fp32:C5 <- 1007192201
	#DEBUG_VALUE: softmax_stable_rvv_fp32:C4 <- 1026206379
	#DEBUG_VALUE: softmax_stable_rvv_fp32:C3 <- 1042983595
	#DEBUG_VALUE: softmax_stable_rvv_fp32:C2 <- 1056964608
	#DEBUG_VALUE: softmax_stable_rvv_fp32:C1 <- 1065353216
	#DEBUG_VALUE: softmax_stable_rvv_fp32:C0 <- 1065353216
	#DEBUG_VALUE: softmax_stable_rvv_fp32:BITS_TWO <- 1073741824
	#DEBUG_VALUE: softmax_stable_rvv_fp32:BITS_EPS <- 841731191
	#DEBUG_VALUE: softmax_stable_rvv_fp32:BITS_LN2_LO <- 947915776
	#DEBUG_VALUE: softmax_stable_rvv_fp32:BITS_LN2_HI <- 1060204544
	#DEBUG_VALUE: softmax_stable_rvv_fp32:BITS_ILN2 <- 1069066811
	#DEBUG_VALUE: softmax_stable_rvv_fp32:BITS_NEG_INF <- -8388608
	#DEBUG_VALUE: softmax_stable_rvv_fp32:n <- 16
	#DEBUG_VALUE: softmax_stable_rvv_fp32:dst <- $x11
	#DEBUG_VALUE: softmax_stable_rvv_fp32:avl4 <- $x10
	.loc	0 281 21 is_stmt 1              # test.c:281:21 @[ test.c:97:5 ]
	vsetvli	a2, a0, e32, m1, ta, ma
.Ltmp71:
	#DEBUG_VALUE: vl <- $x12
	.loc	0 282 29                        # test.c:282:29 @[ test.c:97:5 ]
	vle32.v	v8, (a1)
.Ltmp72:
	#DEBUG_VALUE: row2 <- undef
	.loc	0 284 14                        # test.c:284:14 @[ test.c:97:5 ]
	sub	a0, a0, a2
.Ltmp73:
	#DEBUG_VALUE: softmax_stable_rvv_fp32:avl4 <- $x10
	.loc	0 283 9 is_stmt 0               # test.c:283:9 @[ test.c:97:5 ]
	vse32.v	v8, (a1)
	.loc	0 285 14 is_stmt 1              # test.c:285:14 @[ test.c:97:5 ]
	slli	a2, a2, 2
.Ltmp74:
	add	a1, a1, a2
.Ltmp75:
	#DEBUG_VALUE: softmax_stable_rvv_fp32:dst <- $x11
	.loc	0 280 5                         # test.c:280:5 @[ test.c:97:5 ]
	bnez	a0, .LBB0_9
.Ltmp76:
# %bb.10:
	#DEBUG_VALUE: softmax_stable_rvv_fp32:dst <- undef
	.loc	0 98 5 epilogue_begin           # test.c:98:5
	addi	sp, sp, 16
	.cfi_def_cfa_offset 0
	ret
.Ltmp77:
.Lfunc_end0:
	.size	main, .Lfunc_end0-main
	.cfi_endproc
	.file	4 "/home/xl2025/opt/riscv-llvm/lib/clang/22/include" "riscv_vector.h" md5 0x255ceebde96f450c22e334dcdb0f3a56
                                        # -- End function
	.hidden	softmax_stable_rvv_fp32         # -- Begin function softmax_stable_rvv_fp32
	.globl	softmax_stable_rvv_fp32
	.p2align	1
	.type	softmax_stable_rvv_fp32,@function
softmax_stable_rvv_fp32:                # @softmax_stable_rvv_fp32
.Lfunc_begin1:
	.loc	0 103 0                         # test.c:103:0
	.cfi_startproc
# %bb.0:
	#DEBUG_VALUE: softmax_stable_rvv_fp32:dst <- $x10
	#DEBUG_VALUE: softmax_stable_rvv_fp32:src <- $x11
	#DEBUG_VALUE: softmax_stable_rvv_fp32:n <- $x12
	addi	sp, sp, -48
	.cfi_def_cfa_offset 48
	sd	s0, 40(sp)                      # 8-byte Folded Spill
	sd	s1, 32(sp)                      # 8-byte Folded Spill
	sd	s2, 24(sp)                      # 8-byte Folded Spill
	sd	s3, 16(sp)                      # 8-byte Folded Spill
	.cfi_offset s0, -8
	.cfi_offset s1, -16
	.cfi_offset s2, -24
	.cfi_offset s3, -32
.Ltmp78:
	.loc	0 104 26 prologue_end           # test.c:104:26
	vsetvli	a3, zero, e32, m1, ta, ma
.Ltmp79:
	#DEBUG_VALUE: softmax_stable_rvv_fp32:vlmax <- $x13
	#DEBUG_VALUE: softmax_stable_rvv_fp32:BITS_NEG_INF <- -8388608
	#DEBUG_VALUE: softmax_stable_rvv_fp32:BITS_ILN2 <- 1069066811
	#DEBUG_VALUE: softmax_stable_rvv_fp32:BITS_LN2_HI <- 1060204544
	#DEBUG_VALUE: softmax_stable_rvv_fp32:BITS_LN2_LO <- 947915776
	#DEBUG_VALUE: softmax_stable_rvv_fp32:BITS_EPS <- 841731191
	#DEBUG_VALUE: softmax_stable_rvv_fp32:BITS_TWO <- 1073741824
	#DEBUG_VALUE: softmax_stable_rvv_fp32:C0 <- 1065353216
	#DEBUG_VALUE: softmax_stable_rvv_fp32:C1 <- 1065353216
	#DEBUG_VALUE: softmax_stable_rvv_fp32:C2 <- 1056964608
	#DEBUG_VALUE: softmax_stable_rvv_fp32:C3 <- 1042983595
	#DEBUG_VALUE: softmax_stable_rvv_fp32:C4 <- 1026206379
	#DEBUG_VALUE: softmax_stable_rvv_fp32:C5 <- 1007192201
	#DEBUG_VALUE: softmax_stable_rvv_fp32:C6 <- 985008993
	#DEBUG_VALUE: softmax_stable_rvv_fp32:C7 <- 974222804
	#DEBUG_VALUE: softmax_stable_rvv_fp32:C8 <- 958852494
	.loc	0 0 26 is_stmt 0                # test.c:0:26
	lui	a3, 1046528
.Ltmp80:
	#DEBUG_VALUE: softmax_stable_rvv_fp32:vlmax <- $x13
	#DEBUG_VALUE: softmax_stable_rvv_fp32:vzero <- undef
	.loc	0 144 63 is_stmt 1              # test.c:144:63
	vmv.v.x	v9, a3
.Ltmp81:
	#DEBUG_VALUE: softmax_stable_rvv_fp32:vnegInf <- undef
	#DEBUG_VALUE: softmax_stable_rvv_fp32:viln2 <- undef
	#DEBUG_VALUE: softmax_stable_rvv_fp32:vln2_hi <- undef
	#DEBUG_VALUE: softmax_stable_rvv_fp32:vln2_lo <- undef
	#DEBUG_VALUE: softmax_stable_rvv_fp32:pc0 <- undef
	#DEBUG_VALUE: softmax_stable_rvv_fp32:pc1 <- undef
	#DEBUG_VALUE: softmax_stable_rvv_fp32:pc2 <- undef
	#DEBUG_VALUE: softmax_stable_rvv_fp32:pc3 <- undef
	#DEBUG_VALUE: softmax_stable_rvv_fp32:pc4 <- undef
	#DEBUG_VALUE: softmax_stable_rvv_fp32:pc5 <- undef
	#DEBUG_VALUE: softmax_stable_rvv_fp32:pc6 <- undef
	#DEBUG_VALUE: softmax_stable_rvv_fp32:pc7 <- undef
	#DEBUG_VALUE: softmax_stable_rvv_fp32:pc8 <- undef
	#DEBUG_VALUE: softmax_stable_rvv_fp32:vtwo1 <- undef
	#DEBUG_VALUE: softmax_stable_rvv_fp32:src_orig <- undef
	#DEBUG_VALUE: softmax_stable_rvv_fp32:avl <- $x12
	#DEBUG_VALUE: softmax_stable_rvv_fp32:vneg_inf_int <- undef
	#DEBUG_VALUE: softmax_stable_rvv_fp32:vmax <- undef
	#DEBUG_VALUE: softmax_stable_rvv_fp32:veps1 <- undef
	.loc	0 0 63 is_stmt 0                # test.c:0:63
	vmv.v.v	v10, v9
	.loc	0 173 5 is_stmt 1               # test.c:173:5
	beqz	a2, .LBB1_3
.Ltmp82:
# %bb.1:
	#DEBUG_VALUE: softmax_stable_rvv_fp32:avl <- $x12
	#DEBUG_VALUE: softmax_stable_rvv_fp32:C8 <- 958852494
	#DEBUG_VALUE: softmax_stable_rvv_fp32:C7 <- 974222804
	#DEBUG_VALUE: softmax_stable_rvv_fp32:C6 <- 985008993
	#DEBUG_VALUE: softmax_stable_rvv_fp32:C5 <- 1007192201
	#DEBUG_VALUE: softmax_stable_rvv_fp32:C4 <- 1026206379
	#DEBUG_VALUE: softmax_stable_rvv_fp32:C3 <- 1042983595
	#DEBUG_VALUE: softmax_stable_rvv_fp32:C2 <- 1056964608
	#DEBUG_VALUE: softmax_stable_rvv_fp32:C1 <- 1065353216
	#DEBUG_VALUE: softmax_stable_rvv_fp32:C0 <- 1065353216
	#DEBUG_VALUE: softmax_stable_rvv_fp32:BITS_TWO <- 1073741824
	#DEBUG_VALUE: softmax_stable_rvv_fp32:BITS_EPS <- 841731191
	#DEBUG_VALUE: softmax_stable_rvv_fp32:BITS_LN2_LO <- 947915776
	#DEBUG_VALUE: softmax_stable_rvv_fp32:BITS_LN2_HI <- 1060204544
	#DEBUG_VALUE: softmax_stable_rvv_fp32:BITS_ILN2 <- 1069066811
	#DEBUG_VALUE: softmax_stable_rvv_fp32:BITS_NEG_INF <- -8388608
	#DEBUG_VALUE: softmax_stable_rvv_fp32:vlmax <- $x13
	#DEBUG_VALUE: softmax_stable_rvv_fp32:n <- $x12
	#DEBUG_VALUE: softmax_stable_rvv_fp32:src <- $x11
	#DEBUG_VALUE: softmax_stable_rvv_fp32:dst <- $x10
	.loc	0 0 5 is_stmt 0                 # test.c:0:5
	mv	a3, a1
.Ltmp83:
	mv	a4, a2
	vmv1r.v	v10, v9
.Ltmp84:
.LBB1_2:                                # =>This Inner Loop Header: Depth=1
	#DEBUG_VALUE: softmax_stable_rvv_fp32:C8 <- 958852494
	#DEBUG_VALUE: softmax_stable_rvv_fp32:C7 <- 974222804
	#DEBUG_VALUE: softmax_stable_rvv_fp32:C6 <- 985008993
	#DEBUG_VALUE: softmax_stable_rvv_fp32:C5 <- 1007192201
	#DEBUG_VALUE: softmax_stable_rvv_fp32:C4 <- 1026206379
	#DEBUG_VALUE: softmax_stable_rvv_fp32:C3 <- 1042983595
	#DEBUG_VALUE: softmax_stable_rvv_fp32:C2 <- 1056964608
	#DEBUG_VALUE: softmax_stable_rvv_fp32:C1 <- 1065353216
	#DEBUG_VALUE: softmax_stable_rvv_fp32:C0 <- 1065353216
	#DEBUG_VALUE: softmax_stable_rvv_fp32:BITS_TWO <- 1073741824
	#DEBUG_VALUE: softmax_stable_rvv_fp32:BITS_EPS <- 841731191
	#DEBUG_VALUE: softmax_stable_rvv_fp32:BITS_LN2_LO <- 947915776
	#DEBUG_VALUE: softmax_stable_rvv_fp32:BITS_LN2_HI <- 1060204544
	#DEBUG_VALUE: softmax_stable_rvv_fp32:BITS_ILN2 <- 1069066811
	#DEBUG_VALUE: softmax_stable_rvv_fp32:BITS_NEG_INF <- -8388608
	#DEBUG_VALUE: softmax_stable_rvv_fp32:n <- $x12
	#DEBUG_VALUE: softmax_stable_rvv_fp32:dst <- $x10
	#DEBUG_VALUE: softmax_stable_rvv_fp32:src <- $x13
	#DEBUG_VALUE: softmax_stable_rvv_fp32:avl <- $x14
	#DEBUG_VALUE: softmax_stable_rvv_fp32:vmax <- undef
	.loc	0 174 21 is_stmt 1              # test.c:174:21
	vsetvli	a5, a4, e32, m1, ta, ma
.Ltmp85:
	#DEBUG_VALUE: vl <- $x15
	.loc	0 175 27                        # test.c:175:27
	vle32.v	v8, (a3)
.Ltmp86:
	#DEBUG_VALUE: vx <- undef
	.loc	0 177 13                        # test.c:177:13
	sub	a4, a4, a5
.Ltmp87:
	#DEBUG_VALUE: softmax_stable_rvv_fp32:avl <- $x14
	.loc	0 176 16                        # test.c:176:16
	vfmax.vv	v10, v10, v8
	.loc	0 178 13                        # test.c:178:13
	slli	a5, a5, 2
.Ltmp88:
	add	a3, a3, a5
.Ltmp89:
	#DEBUG_VALUE: softmax_stable_rvv_fp32:src <- $x13
	.loc	0 173 5                         # test.c:173:5
	bnez	a4, .LBB1_2
.Ltmp90:
.LBB1_3:
	#DEBUG_VALUE: softmax_stable_rvv_fp32:C8 <- 958852494
	#DEBUG_VALUE: softmax_stable_rvv_fp32:C7 <- 974222804
	#DEBUG_VALUE: softmax_stable_rvv_fp32:C6 <- 985008993
	#DEBUG_VALUE: softmax_stable_rvv_fp32:C5 <- 1007192201
	#DEBUG_VALUE: softmax_stable_rvv_fp32:C4 <- 1026206379
	#DEBUG_VALUE: softmax_stable_rvv_fp32:C3 <- 1042983595
	#DEBUG_VALUE: softmax_stable_rvv_fp32:C2 <- 1056964608
	#DEBUG_VALUE: softmax_stable_rvv_fp32:C1 <- 1065353216
	#DEBUG_VALUE: softmax_stable_rvv_fp32:C0 <- 1065353216
	#DEBUG_VALUE: softmax_stable_rvv_fp32:BITS_TWO <- 1073741824
	#DEBUG_VALUE: softmax_stable_rvv_fp32:BITS_EPS <- 841731191
	#DEBUG_VALUE: softmax_stable_rvv_fp32:BITS_LN2_LO <- 947915776
	#DEBUG_VALUE: softmax_stable_rvv_fp32:BITS_LN2_HI <- 1060204544
	#DEBUG_VALUE: softmax_stable_rvv_fp32:BITS_ILN2 <- 1069066811
	#DEBUG_VALUE: softmax_stable_rvv_fp32:BITS_NEG_INF <- -8388608
	#DEBUG_VALUE: softmax_stable_rvv_fp32:n <- $x12
	#DEBUG_VALUE: softmax_stable_rvv_fp32:dst <- $x10
	.loc	0 0 0 is_stmt 0                 # test.c:0
	vsetvli	a3, zero, e32, m1, ta, ma
	vmv.v.i	v8, 0
.Ltmp91:
	#DEBUG_VALUE: softmax_stable_rvv_fp32:vzero <- undef
	#DEBUG_VALUE: softmax_stable_rvv_fp32:viln2 <- undef
	#DEBUG_VALUE: softmax_stable_rvv_fp32:vln2_hi <- undef
	#DEBUG_VALUE: softmax_stable_rvv_fp32:vln2_lo <- undef
	#DEBUG_VALUE: softmax_stable_rvv_fp32:pc0 <- undef
	#DEBUG_VALUE: softmax_stable_rvv_fp32:pc1 <- undef
	#DEBUG_VALUE: softmax_stable_rvv_fp32:pc2 <- undef
	#DEBUG_VALUE: softmax_stable_rvv_fp32:pc3 <- undef
	#DEBUG_VALUE: softmax_stable_rvv_fp32:pc4 <- undef
	#DEBUG_VALUE: softmax_stable_rvv_fp32:pc5 <- undef
	#DEBUG_VALUE: softmax_stable_rvv_fp32:pc6 <- undef
	#DEBUG_VALUE: softmax_stable_rvv_fp32:pc7 <- undef
	#DEBUG_VALUE: softmax_stable_rvv_fp32:pc8 <- undef
	#DEBUG_VALUE: softmax_stable_rvv_fp32:vtwo1 <- undef
	#DEBUG_VALUE: softmax_stable_rvv_fp32:veps1 <- undef
	.loc	0 182 26 is_stmt 1              # test.c:182:26
	vfredmax.vs	v9, v10, v9
.Ltmp92:
	#DEBUG_VALUE: softmax_stable_rvv_fp32:vmax1 <- undef
	#DEBUG_VALUE: softmax_stable_rvv_fp32:vredmax <- undef
	.loc	0 0 26 is_stmt 0                # test.c:0:26
	addi	a3, sp, 12
.Ltmp93:
	#DEBUG_VALUE: softmax_stable_rvv_fp32:vredmax_int <- undef
	.loc	0 192 5                         # test.c:192:5
	vsetivli	zero, 1, e32, m1, ta, ma
	vse32.v	v9, (a3)
.Ltmp94:
	#DEBUG_VALUE: softmax_stable_rvv_fp32:dst <- undef
	#DEBUG_VALUE: softmax_stable_rvv_fp32:src <- undef
	#DEBUG_VALUE: softmax_stable_rvv_fp32:max_x_union <- undef
	#DEBUG_VALUE: softmax_stable_rvv_fp32:max_x_as_int <- undef
	#DEBUG_VALUE: softmax_stable_rvv_fp32:vsum1 <- undef
	#DEBUG_VALUE: softmax_stable_rvv_fp32:dst_orig <- $x10
	#DEBUG_VALUE: softmax_stable_rvv_fp32:avl2 <- $x12
	.loc	0 205 5 is_stmt 1               # test.c:205:5
	beqz	a2, .LBB1_7
.Ltmp95:
# %bb.4:
	#DEBUG_VALUE: softmax_stable_rvv_fp32:avl2 <- $x12
	#DEBUG_VALUE: softmax_stable_rvv_fp32:dst_orig <- $x10
	#DEBUG_VALUE: softmax_stable_rvv_fp32:C8 <- 958852494
	#DEBUG_VALUE: softmax_stable_rvv_fp32:C7 <- 974222804
	#DEBUG_VALUE: softmax_stable_rvv_fp32:C6 <- 985008993
	#DEBUG_VALUE: softmax_stable_rvv_fp32:C5 <- 1007192201
	#DEBUG_VALUE: softmax_stable_rvv_fp32:C4 <- 1026206379
	#DEBUG_VALUE: softmax_stable_rvv_fp32:C3 <- 1042983595
	#DEBUG_VALUE: softmax_stable_rvv_fp32:C2 <- 1056964608
	#DEBUG_VALUE: softmax_stable_rvv_fp32:C1 <- 1065353216
	#DEBUG_VALUE: softmax_stable_rvv_fp32:C0 <- 1065353216
	#DEBUG_VALUE: softmax_stable_rvv_fp32:BITS_TWO <- 1073741824
	#DEBUG_VALUE: softmax_stable_rvv_fp32:BITS_EPS <- 841731191
	#DEBUG_VALUE: softmax_stable_rvv_fp32:BITS_LN2_LO <- 947915776
	#DEBUG_VALUE: softmax_stable_rvv_fp32:BITS_LN2_HI <- 1060204544
	#DEBUG_VALUE: softmax_stable_rvv_fp32:BITS_ILN2 <- 1069066811
	#DEBUG_VALUE: softmax_stable_rvv_fp32:BITS_NEG_INF <- -8388608
	#DEBUG_VALUE: softmax_stable_rvv_fp32:n <- $x12
	.loc	0 0 5 is_stmt 0                 # test.c:0:5
	li	s3, 0
	lui	t5, 261003
	lui	t6, 231425
	lui	a7, 254635
	lui	t0, 250539
	lui	t1, 245897
	lui	t2, 240481
	lui	t3, 237847
	lui	t4, 234095
	lui	a4, 258839
	lui	a6, 260096
	vsetvli	a5, zero, e32, m1, ta, ma
	vmv.v.x	v10, a4
.Ltmp96:
	#DEBUG_VALUE: softmax_stable_rvv_fp32:vln2_hi <- undef
	lui	s2, 258048
	vmv.v.x	v11, a6
.Ltmp97:
	#DEBUG_VALUE: softmax_stable_rvv_fp32:pc0 <- undef
	#DEBUG_VALUE: softmax_stable_rvv_fp32:pc1 <- undef
	li	a6, 127
	addi	a5, t5, -1477
	addi	a4, t6, -1024
	addi	s0, a7, -1365
	addi	s1, t0, -1365
	addi	a7, t1, -1911
	addi	t0, t2, -1183
	addi	t1, t3, 1492
	addi	t2, t4, -626
	vmv.v.x	v12, s2
.Ltmp98:
	#DEBUG_VALUE: softmax_stable_rvv_fp32:pc2 <- undef
	vmv.v.x	v14, a5
.Ltmp99:
	#DEBUG_VALUE: softmax_stable_rvv_fp32:viln2 <- undef
	vmv.v.x	v15, a4
.Ltmp100:
	#DEBUG_VALUE: softmax_stable_rvv_fp32:vln2_lo <- undef
	vmv.v.x	v16, s0
.Ltmp101:
	#DEBUG_VALUE: softmax_stable_rvv_fp32:pc3 <- undef
	vmv.v.x	v17, s1
.Ltmp102:
	#DEBUG_VALUE: softmax_stable_rvv_fp32:pc4 <- undef
	vmv.v.x	v18, a7
.Ltmp103:
	#DEBUG_VALUE: softmax_stable_rvv_fp32:pc5 <- undef
	vmv.v.x	v19, t0
.Ltmp104:
	#DEBUG_VALUE: softmax_stable_rvv_fp32:pc6 <- undef
	vmv.v.x	v20, t1
.Ltmp105:
	#DEBUG_VALUE: softmax_stable_rvv_fp32:pc7 <- undef
	vmv.v.x	v21, t2
.Ltmp106:
	#DEBUG_VALUE: softmax_stable_rvv_fp32:pc8 <- undef
	vsetivli	zero, 1, e32, m1, ta, ma
	mv	a5, a0
	mv	a4, a2
	vmv1r.v	v13, v8
.Ltmp107:
.LBB1_5:                                # =>This Inner Loop Header: Depth=1
	#DEBUG_VALUE: softmax_stable_rvv_fp32:dst_orig <- $x10
	#DEBUG_VALUE: softmax_stable_rvv_fp32:C8 <- 958852494
	#DEBUG_VALUE: softmax_stable_rvv_fp32:C7 <- 974222804
	#DEBUG_VALUE: softmax_stable_rvv_fp32:C6 <- 985008993
	#DEBUG_VALUE: softmax_stable_rvv_fp32:C5 <- 1007192201
	#DEBUG_VALUE: softmax_stable_rvv_fp32:C4 <- 1026206379
	#DEBUG_VALUE: softmax_stable_rvv_fp32:C3 <- 1042983595
	#DEBUG_VALUE: softmax_stable_rvv_fp32:C2 <- 1056964608
	#DEBUG_VALUE: softmax_stable_rvv_fp32:C1 <- 1065353216
	#DEBUG_VALUE: softmax_stable_rvv_fp32:C0 <- 1065353216
	#DEBUG_VALUE: softmax_stable_rvv_fp32:BITS_TWO <- 1073741824
	#DEBUG_VALUE: softmax_stable_rvv_fp32:BITS_EPS <- 841731191
	#DEBUG_VALUE: softmax_stable_rvv_fp32:BITS_LN2_LO <- 947915776
	#DEBUG_VALUE: softmax_stable_rvv_fp32:BITS_LN2_HI <- 1060204544
	#DEBUG_VALUE: softmax_stable_rvv_fp32:BITS_ILN2 <- 1069066811
	#DEBUG_VALUE: softmax_stable_rvv_fp32:BITS_NEG_INF <- -8388608
	#DEBUG_VALUE: softmax_stable_rvv_fp32:n <- $x12
	#DEBUG_VALUE: softmax_stable_rvv_fp32:dst <- $x15
	#DEBUG_VALUE: softmax_stable_rvv_fp32:src <- $x11
	#DEBUG_VALUE: softmax_stable_rvv_fp32:vsum1 <- undef
	#DEBUG_VALUE: softmax_stable_rvv_fp32:avl2 <- $x14
	.loc	0 240 30 is_stmt 1              # test.c:240:30
	mv	s1, a4
	.loc	0 206 21                        # test.c:206:21
	vsetvli	s0, a4, e32, m1, ta, ma
.Ltmp108:
	#DEBUG_VALUE: vl <- $x8
	.loc	0 207 27                        # test.c:207:27
	vle32.v	v22, (a1)
.Ltmp109:
	#DEBUG_VALUE: vx <- undef
	.loc	0 210 31                        # test.c:210:31
	vrgather.vi	v23, v9, 0
.Ltmp110:
	#DEBUG_VALUE: vmax_x <- undef
	.loc	0 211 14                        # test.c:211:14
	vfsub.vv	v22, v22, v23
	.loc	0 216 31                        # test.c:216:31
	vfmul.vv	v23, v22, v14
.Ltmp111:
	#DEBUG_VALUE: vxiln2 <- undef
	.loc	0 217 31                        # test.c:217:31
	vfcvt.x.f.v	v23, v23
.Ltmp112:
	#DEBUG_VALUE: vk <- undef
	.loc	0 221 31                        # test.c:221:31
	vfcvt.f.x.v	v24, v23
.Ltmp113:
	#DEBUG_VALUE: vfk <- undef
	.loc	0 222 31                        # test.c:222:31
	vfmul.vv	v25, v24, v10
.Ltmp114:
	#DEBUG_VALUE: vkl2hi <- undef
	.loc	0 224 31                        # test.c:224:31
	vfsub.vv	v22, v22, v25
.Ltmp115:
	#DEBUG_VALUE: vr <- undef
	.loc	0 229 13                        # test.c:229:13
	vmv1r.v	v25, v21
	.loc	0 214 9                         # test.c:214:9
	#APP
	frrm	a3
	#NO_APP
.Ltmp116:
	#DEBUG_VALUE: old_frm <- $x13
	.loc	0 215 9                         # test.c:215:9
	#APP
	fsrm	s3
	#NO_APP
	.loc	0 251 14                        # test.c:251:14
	sub	a4, a4, s0
.Ltmp117:
	#DEBUG_VALUE: softmax_stable_rvv_fp32:avl2 <- $x14
	.loc	0 218 9                         # test.c:218:9
	#APP
	fsrm	a3
	#NO_APP
	.loc	0 252 14                        # test.c:252:14
	slli	s0, s0, 2
.Ltmp118:
	#DEBUG_VALUE: vl <- $x8
	add	a1, a1, s0
.Ltmp119:
	#DEBUG_VALUE: softmax_stable_rvv_fp32:src <- $x11
	.loc	0 240 30                        # test.c:240:30
	vsetvli	zero, s1, e32, m1, ta, ma
	vadd.vx	v23, v23, a6
.Ltmp120:
	#DEBUG_VALUE: vbiased <- undef
	.loc	0 223 31                        # test.c:223:31
	vfmul.vv	v24, v24, v15
.Ltmp121:
	#DEBUG_VALUE: vkl2lo <- undef
	.loc	0 241 30                        # test.c:241:30
	vsll.vi	v23, v23, 23
.Ltmp122:
	#DEBUG_VALUE: vexp2 <- undef
	#DEBUG_VALUE: vf2k <- undef
	.loc	0 225 14                        # test.c:225:14
	vfsub.vv	v22, v22, v24
.Ltmp123:
	#DEBUG_VALUE: p <- undef
	.loc	0 229 13                        # test.c:229:13
	vfmadd.vv	v25, v22, v20
	.loc	0 230 13                        # test.c:230:13
	vfmadd.vv	v25, v22, v19
	.loc	0 231 13                        # test.c:231:13
	vfmadd.vv	v25, v22, v18
	.loc	0 232 13                        # test.c:232:13
	vfmadd.vv	v25, v22, v17
	.loc	0 233 13                        # test.c:233:13
	vfmadd.vv	v25, v22, v16
	.loc	0 234 13                        # test.c:234:13
	vfmadd.vv	v25, v22, v12
	.loc	0 235 13                        # test.c:235:13
	vfmadd.vv	v25, v22, v11
	.loc	0 236 13                        # test.c:236:13
	vfmadd.vv	v25, v22, v11
.Ltmp124:
	#DEBUG_VALUE: exp_bias <- 127
	.loc	0 245 30                        # test.c:245:30
	vfmul.vv	v22, v25, v23
.Ltmp125:
	#DEBUG_VALUE: vexp <- undef
	.loc	0 247 9 is_stmt 0               # test.c:247:9
	vse32.v	v22, (a5)
	.loc	0 248 30 is_stmt 1              # test.c:248:30
	vfredosum.vs	v22, v22, v8
.Ltmp126:
	#DEBUG_VALUE: vblk <- undef
	.loc	0 249 17                        # test.c:249:17
	vsetivli	zero, 1, e32, m1, ta, ma
	vfadd.vv	v13, v13, v22
	.loc	0 253 14                        # test.c:253:14
	add	a5, a5, s0
.Ltmp127:
	#DEBUG_VALUE: softmax_stable_rvv_fp32:dst <- $x15
	.loc	0 205 5                         # test.c:205:5
	bnez	a4, .LBB1_5
.Ltmp128:
# %bb.6:
	#DEBUG_VALUE: softmax_stable_rvv_fp32:avl2 <- $x14
	#DEBUG_VALUE: softmax_stable_rvv_fp32:dst <- $x15
	#DEBUG_VALUE: softmax_stable_rvv_fp32:dst_orig <- $x10
	#DEBUG_VALUE: softmax_stable_rvv_fp32:C8 <- 958852494
	#DEBUG_VALUE: softmax_stable_rvv_fp32:C7 <- 974222804
	#DEBUG_VALUE: softmax_stable_rvv_fp32:C6 <- 985008993
	#DEBUG_VALUE: softmax_stable_rvv_fp32:C5 <- 1007192201
	#DEBUG_VALUE: softmax_stable_rvv_fp32:C4 <- 1026206379
	#DEBUG_VALUE: softmax_stable_rvv_fp32:C3 <- 1042983595
	#DEBUG_VALUE: softmax_stable_rvv_fp32:C2 <- 1056964608
	#DEBUG_VALUE: softmax_stable_rvv_fp32:C1 <- 1065353216
	#DEBUG_VALUE: softmax_stable_rvv_fp32:C0 <- 1065353216
	#DEBUG_VALUE: softmax_stable_rvv_fp32:BITS_TWO <- 1073741824
	#DEBUG_VALUE: softmax_stable_rvv_fp32:BITS_EPS <- 841731191
	#DEBUG_VALUE: softmax_stable_rvv_fp32:BITS_LN2_LO <- 947915776
	#DEBUG_VALUE: softmax_stable_rvv_fp32:BITS_LN2_HI <- 1060204544
	#DEBUG_VALUE: softmax_stable_rvv_fp32:BITS_ILN2 <- 1069066811
	#DEBUG_VALUE: softmax_stable_rvv_fp32:BITS_NEG_INF <- -8388608
	#DEBUG_VALUE: softmax_stable_rvv_fp32:n <- $x12
	#DEBUG_VALUE: softmax_stable_rvv_fp32:src <- $x11
	#DEBUG_VALUE: softmax_stable_rvv_fp32:dst <- undef
	#DEBUG_VALUE: softmax_stable_rvv_fp32:vtwo1 <- undef
	#DEBUG_VALUE: softmax_stable_rvv_fp32:veps1 <- undef
	#DEBUG_VALUE: softmax_stable_rvv_fp32:vl1 <- undef
	#DEBUG_VALUE: softmax_stable_rvv_fp32:vsum1_eps <- undef
	#DEBUG_VALUE: softmax_stable_rvv_fp32:vinv1 <- undef
	#DEBUG_VALUE: softmax_stable_rvv_fp32:corr <- undef
	#DEBUG_VALUE: softmax_stable_rvv_fp32:avl3 <- $x12
	.loc	0 268 5                         # test.c:268:5
	bnez	a2, .LBB1_8
	j	.LBB1_10
.Ltmp129:
.LBB1_7:
	#DEBUG_VALUE: softmax_stable_rvv_fp32:avl2 <- $x12
	#DEBUG_VALUE: softmax_stable_rvv_fp32:dst_orig <- $x10
	#DEBUG_VALUE: softmax_stable_rvv_fp32:C8 <- 958852494
	#DEBUG_VALUE: softmax_stable_rvv_fp32:C7 <- 974222804
	#DEBUG_VALUE: softmax_stable_rvv_fp32:C6 <- 985008993
	#DEBUG_VALUE: softmax_stable_rvv_fp32:C5 <- 1007192201
	#DEBUG_VALUE: softmax_stable_rvv_fp32:C4 <- 1026206379
	#DEBUG_VALUE: softmax_stable_rvv_fp32:C3 <- 1042983595
	#DEBUG_VALUE: softmax_stable_rvv_fp32:C2 <- 1056964608
	#DEBUG_VALUE: softmax_stable_rvv_fp32:C1 <- 1065353216
	#DEBUG_VALUE: softmax_stable_rvv_fp32:C0 <- 1065353216
	#DEBUG_VALUE: softmax_stable_rvv_fp32:BITS_TWO <- 1073741824
	#DEBUG_VALUE: softmax_stable_rvv_fp32:BITS_EPS <- 841731191
	#DEBUG_VALUE: softmax_stable_rvv_fp32:BITS_LN2_LO <- 947915776
	#DEBUG_VALUE: softmax_stable_rvv_fp32:BITS_LN2_HI <- 1060204544
	#DEBUG_VALUE: softmax_stable_rvv_fp32:BITS_ILN2 <- 1069066811
	#DEBUG_VALUE: softmax_stable_rvv_fp32:BITS_NEG_INF <- -8388608
	#DEBUG_VALUE: softmax_stable_rvv_fp32:n <- $x12
	.loc	0 0 5 is_stmt 0                 # test.c:0:5
	vmv1r.v	v13, v8
.Ltmp130:
	#DEBUG_VALUE: softmax_stable_rvv_fp32:dst <- undef
	#DEBUG_VALUE: softmax_stable_rvv_fp32:vtwo1 <- undef
	#DEBUG_VALUE: softmax_stable_rvv_fp32:veps1 <- undef
	#DEBUG_VALUE: softmax_stable_rvv_fp32:vl1 <- undef
	#DEBUG_VALUE: softmax_stable_rvv_fp32:vsum1_eps <- undef
	#DEBUG_VALUE: softmax_stable_rvv_fp32:vinv1 <- undef
	#DEBUG_VALUE: softmax_stable_rvv_fp32:corr <- undef
	#DEBUG_VALUE: softmax_stable_rvv_fp32:avl3 <- $x12
	.loc	0 268 5 is_stmt 1               # test.c:268:5
	beqz	a2, .LBB1_10
.Ltmp131:
.LBB1_8:
	#DEBUG_VALUE: softmax_stable_rvv_fp32:avl3 <- $x12
	#DEBUG_VALUE: softmax_stable_rvv_fp32:dst_orig <- $x10
	#DEBUG_VALUE: softmax_stable_rvv_fp32:C8 <- 958852494
	#DEBUG_VALUE: softmax_stable_rvv_fp32:C7 <- 974222804
	#DEBUG_VALUE: softmax_stable_rvv_fp32:C6 <- 985008993
	#DEBUG_VALUE: softmax_stable_rvv_fp32:C5 <- 1007192201
	#DEBUG_VALUE: softmax_stable_rvv_fp32:C4 <- 1026206379
	#DEBUG_VALUE: softmax_stable_rvv_fp32:C3 <- 1042983595
	#DEBUG_VALUE: softmax_stable_rvv_fp32:C2 <- 1056964608
	#DEBUG_VALUE: softmax_stable_rvv_fp32:C1 <- 1065353216
	#DEBUG_VALUE: softmax_stable_rvv_fp32:C0 <- 1065353216
	#DEBUG_VALUE: softmax_stable_rvv_fp32:BITS_TWO <- 1073741824
	#DEBUG_VALUE: softmax_stable_rvv_fp32:BITS_EPS <- 841731191
	#DEBUG_VALUE: softmax_stable_rvv_fp32:BITS_LN2_LO <- 947915776
	#DEBUG_VALUE: softmax_stable_rvv_fp32:BITS_LN2_HI <- 1060204544
	#DEBUG_VALUE: softmax_stable_rvv_fp32:BITS_ILN2 <- 1069066811
	#DEBUG_VALUE: softmax_stable_rvv_fp32:BITS_NEG_INF <- -8388608
	#DEBUG_VALUE: softmax_stable_rvv_fp32:n <- $x12
	.loc	0 0 5 is_stmt 0                 # test.c:0:5
	lui	a1, 205501
	lui	a3, 262144
	addi	a1, a1, -905
	vsetvli	a4, zero, e32, m1, ta, ma
	vmv.v.x	v8, a3
.Ltmp132:
	#DEBUG_VALUE: softmax_stable_rvv_fp32:vtwo1 <- undef
	vmv.v.x	v9, a1
.Ltmp133:
	#DEBUG_VALUE: softmax_stable_rvv_fp32:veps1 <- undef
	vsetivli	zero, 1, e32, m1, ta, ma
.Ltmp134:
	#DEBUG_VALUE: softmax_stable_rvv_fp32:vl1 <- undef
	vfadd.vv	v9, v13, v9
.Ltmp135:
	#DEBUG_VALUE: softmax_stable_rvv_fp32:vsum1_eps <- undef
	vfrec7.v	v10, v9
	vmv.v.v	v11, v9
	vfnmsub.vv	v11, v10, v8
	vfmul.vv	v10, v10, v11
	vfnmsub.vv	v9, v10, v8
.Ltmp136:
	#DEBUG_VALUE: softmax_stable_rvv_fp32:corr <- undef
	vfmul.vv	v8, v10, v9
.Ltmp137:
	#DEBUG_VALUE: softmax_stable_rvv_fp32:vinv1 <- undef
	mv	a1, a0
	mv	a3, a2
.Ltmp138:
.LBB1_9:                                # =>This Inner Loop Header: Depth=1
	#DEBUG_VALUE: softmax_stable_rvv_fp32:dst_orig <- $x10
	#DEBUG_VALUE: softmax_stable_rvv_fp32:C8 <- 958852494
	#DEBUG_VALUE: softmax_stable_rvv_fp32:C7 <- 974222804
	#DEBUG_VALUE: softmax_stable_rvv_fp32:C6 <- 985008993
	#DEBUG_VALUE: softmax_stable_rvv_fp32:C5 <- 1007192201
	#DEBUG_VALUE: softmax_stable_rvv_fp32:C4 <- 1026206379
	#DEBUG_VALUE: softmax_stable_rvv_fp32:C3 <- 1042983595
	#DEBUG_VALUE: softmax_stable_rvv_fp32:C2 <- 1056964608
	#DEBUG_VALUE: softmax_stable_rvv_fp32:C1 <- 1065353216
	#DEBUG_VALUE: softmax_stable_rvv_fp32:C0 <- 1065353216
	#DEBUG_VALUE: softmax_stable_rvv_fp32:BITS_TWO <- 1073741824
	#DEBUG_VALUE: softmax_stable_rvv_fp32:BITS_EPS <- 841731191
	#DEBUG_VALUE: softmax_stable_rvv_fp32:BITS_LN2_LO <- 947915776
	#DEBUG_VALUE: softmax_stable_rvv_fp32:BITS_LN2_HI <- 1060204544
	#DEBUG_VALUE: softmax_stable_rvv_fp32:BITS_ILN2 <- 1069066811
	#DEBUG_VALUE: softmax_stable_rvv_fp32:BITS_NEG_INF <- -8388608
	#DEBUG_VALUE: softmax_stable_rvv_fp32:n <- $x12
	#DEBUG_VALUE: softmax_stable_rvv_fp32:dst <- $x11
	#DEBUG_VALUE: softmax_stable_rvv_fp32:avl3 <- $x13
	.loc	0 269 21 is_stmt 1              # test.c:269:21
	vsetvli	a4, a3, e32, m1, ta, ma
.Ltmp139:
	#DEBUG_VALUE: vl <- $x14
	.loc	0 270 30                        # test.c:270:30
	vle32.v	v9, (a1)
.Ltmp140:
	#DEBUG_VALUE: row <- undef
	.loc	0 271 30                        # test.c:271:30
	vrgather.vi	v10, v8, 0
.Ltmp141:
	#DEBUG_VALUE: vinvB <- undef
	.loc	0 274 14                        # test.c:274:14
	sub	a3, a3, a4
.Ltmp142:
	#DEBUG_VALUE: softmax_stable_rvv_fp32:avl3 <- $x13
	.loc	0 272 15                        # test.c:272:15
	vfmul.vv	v9, v9, v10
	.loc	0 273 9 is_stmt 0               # test.c:273:9
	vse32.v	v9, (a1)
	.loc	0 275 14 is_stmt 1              # test.c:275:14
	slli	a4, a4, 2
.Ltmp143:
	add	a1, a1, a4
.Ltmp144:
	#DEBUG_VALUE: softmax_stable_rvv_fp32:dst <- $x11
	.loc	0 268 5                         # test.c:268:5
	bnez	a3, .LBB1_9
.Ltmp145:
.LBB1_10:
	#DEBUG_VALUE: softmax_stable_rvv_fp32:dst_orig <- $x10
	#DEBUG_VALUE: softmax_stable_rvv_fp32:C8 <- 958852494
	#DEBUG_VALUE: softmax_stable_rvv_fp32:C7 <- 974222804
	#DEBUG_VALUE: softmax_stable_rvv_fp32:C6 <- 985008993
	#DEBUG_VALUE: softmax_stable_rvv_fp32:C5 <- 1007192201
	#DEBUG_VALUE: softmax_stable_rvv_fp32:C4 <- 1026206379
	#DEBUG_VALUE: softmax_stable_rvv_fp32:C3 <- 1042983595
	#DEBUG_VALUE: softmax_stable_rvv_fp32:C2 <- 1056964608
	#DEBUG_VALUE: softmax_stable_rvv_fp32:C1 <- 1065353216
	#DEBUG_VALUE: softmax_stable_rvv_fp32:C0 <- 1065353216
	#DEBUG_VALUE: softmax_stable_rvv_fp32:BITS_TWO <- 1073741824
	#DEBUG_VALUE: softmax_stable_rvv_fp32:BITS_EPS <- 841731191
	#DEBUG_VALUE: softmax_stable_rvv_fp32:BITS_LN2_LO <- 947915776
	#DEBUG_VALUE: softmax_stable_rvv_fp32:BITS_LN2_HI <- 1060204544
	#DEBUG_VALUE: softmax_stable_rvv_fp32:BITS_ILN2 <- 1069066811
	#DEBUG_VALUE: softmax_stable_rvv_fp32:BITS_NEG_INF <- -8388608
	#DEBUG_VALUE: softmax_stable_rvv_fp32:n <- $x12
	.loc	0 0 5 is_stmt 0                 # test.c:0:5
	li	a1, 1000
.Ltmp146:
.LBB1_11:                               # =>This Inner Loop Header: Depth=1
	#DEBUG_VALUE: softmax_stable_rvv_fp32:dst_orig <- $x10
	#DEBUG_VALUE: softmax_stable_rvv_fp32:C8 <- 958852494
	#DEBUG_VALUE: softmax_stable_rvv_fp32:C7 <- 974222804
	#DEBUG_VALUE: softmax_stable_rvv_fp32:C6 <- 985008993
	#DEBUG_VALUE: softmax_stable_rvv_fp32:C5 <- 1007192201
	#DEBUG_VALUE: softmax_stable_rvv_fp32:C4 <- 1026206379
	#DEBUG_VALUE: softmax_stable_rvv_fp32:C3 <- 1042983595
	#DEBUG_VALUE: softmax_stable_rvv_fp32:C2 <- 1056964608
	#DEBUG_VALUE: softmax_stable_rvv_fp32:C1 <- 1065353216
	#DEBUG_VALUE: softmax_stable_rvv_fp32:C0 <- 1065353216
	#DEBUG_VALUE: softmax_stable_rvv_fp32:BITS_TWO <- 1073741824
	#DEBUG_VALUE: softmax_stable_rvv_fp32:BITS_EPS <- 841731191
	#DEBUG_VALUE: softmax_stable_rvv_fp32:BITS_LN2_LO <- 947915776
	#DEBUG_VALUE: softmax_stable_rvv_fp32:BITS_LN2_HI <- 1060204544
	#DEBUG_VALUE: softmax_stable_rvv_fp32:BITS_ILN2 <- 1069066811
	#DEBUG_VALUE: softmax_stable_rvv_fp32:BITS_NEG_INF <- -8388608
	#DEBUG_VALUE: softmax_stable_rvv_fp32:n <- $x12
	#DEBUG_VALUE: i <- [DW_OP_consts 1000, DW_OP_minus, DW_OP_consts 18446744073709551615, DW_OP_div, DW_OP_stack_value] $x11
	.loc	0 9 26 is_stmt 1                # test.c:9:26 @[ test.c:278:5 ]
	addiw	a1, a1, -1
.Ltmp147:
	.loc	0 10 5                          # test.c:10:5 @[ test.c:278:5 ]
	#APP
	nop
	#NO_APP
.Ltmp148:
	#DEBUG_VALUE: i <- [DW_OP_consts 1000, DW_OP_minus, DW_OP_consts 18446744073709551615, DW_OP_div, DW_OP_consts 1, DW_OP_plus, DW_OP_stack_value] $x11
	.loc	0 9 3                           # test.c:9:3 @[ test.c:278:5 ]
	bnez	a1, .LBB1_11
.Ltmp149:
# %bb.12:
	#DEBUG_VALUE: softmax_stable_rvv_fp32:dst_orig <- $x10
	#DEBUG_VALUE: softmax_stable_rvv_fp32:C8 <- 958852494
	#DEBUG_VALUE: softmax_stable_rvv_fp32:C7 <- 974222804
	#DEBUG_VALUE: softmax_stable_rvv_fp32:C6 <- 985008993
	#DEBUG_VALUE: softmax_stable_rvv_fp32:C5 <- 1007192201
	#DEBUG_VALUE: softmax_stable_rvv_fp32:C4 <- 1026206379
	#DEBUG_VALUE: softmax_stable_rvv_fp32:C3 <- 1042983595
	#DEBUG_VALUE: softmax_stable_rvv_fp32:C2 <- 1056964608
	#DEBUG_VALUE: softmax_stable_rvv_fp32:C1 <- 1065353216
	#DEBUG_VALUE: softmax_stable_rvv_fp32:C0 <- 1065353216
	#DEBUG_VALUE: softmax_stable_rvv_fp32:BITS_TWO <- 1073741824
	#DEBUG_VALUE: softmax_stable_rvv_fp32:BITS_EPS <- 841731191
	#DEBUG_VALUE: softmax_stable_rvv_fp32:BITS_LN2_LO <- 947915776
	#DEBUG_VALUE: softmax_stable_rvv_fp32:BITS_LN2_HI <- 1060204544
	#DEBUG_VALUE: softmax_stable_rvv_fp32:BITS_ILN2 <- 1069066811
	#DEBUG_VALUE: softmax_stable_rvv_fp32:BITS_NEG_INF <- -8388608
	#DEBUG_VALUE: softmax_stable_rvv_fp32:n <- $x12
	#DEBUG_VALUE: softmax_stable_rvv_fp32:dst <- undef
	#DEBUG_VALUE: softmax_stable_rvv_fp32:avl4 <- $x12
	.loc	0 280 5                         # test.c:280:5
	beqz	a2, .LBB1_14
.Ltmp150:
.LBB1_13:                               # =>This Inner Loop Header: Depth=1
	#DEBUG_VALUE: softmax_stable_rvv_fp32:avl4 <- $x12
	#DEBUG_VALUE: softmax_stable_rvv_fp32:C8 <- 958852494
	#DEBUG_VALUE: softmax_stable_rvv_fp32:C7 <- 974222804
	#DEBUG_VALUE: softmax_stable_rvv_fp32:C6 <- 985008993
	#DEBUG_VALUE: softmax_stable_rvv_fp32:C5 <- 1007192201
	#DEBUG_VALUE: softmax_stable_rvv_fp32:C4 <- 1026206379
	#DEBUG_VALUE: softmax_stable_rvv_fp32:C3 <- 1042983595
	#DEBUG_VALUE: softmax_stable_rvv_fp32:C2 <- 1056964608
	#DEBUG_VALUE: softmax_stable_rvv_fp32:C1 <- 1065353216
	#DEBUG_VALUE: softmax_stable_rvv_fp32:C0 <- 1065353216
	#DEBUG_VALUE: softmax_stable_rvv_fp32:BITS_TWO <- 1073741824
	#DEBUG_VALUE: softmax_stable_rvv_fp32:BITS_EPS <- 841731191
	#DEBUG_VALUE: softmax_stable_rvv_fp32:BITS_LN2_LO <- 947915776
	#DEBUG_VALUE: softmax_stable_rvv_fp32:BITS_LN2_HI <- 1060204544
	#DEBUG_VALUE: softmax_stable_rvv_fp32:BITS_ILN2 <- 1069066811
	#DEBUG_VALUE: softmax_stable_rvv_fp32:BITS_NEG_INF <- -8388608
	#DEBUG_VALUE: softmax_stable_rvv_fp32:dst <- $x10
	#DEBUG_VALUE: softmax_stable_rvv_fp32:avl4 <- $x12
	.loc	0 281 21                        # test.c:281:21
	vsetvli	a1, a2, e32, m1, ta, ma
.Ltmp151:
	#DEBUG_VALUE: vl <- $x11
	.loc	0 282 29                        # test.c:282:29
	vle32.v	v8, (a0)
.Ltmp152:
	#DEBUG_VALUE: row2 <- undef
	.loc	0 284 14                        # test.c:284:14
	sub	a2, a2, a1
.Ltmp153:
	#DEBUG_VALUE: softmax_stable_rvv_fp32:avl4 <- $x12
	.loc	0 283 9 is_stmt 0               # test.c:283:9
	vse32.v	v8, (a0)
	.loc	0 285 14 is_stmt 1              # test.c:285:14
	slli	a1, a1, 2
.Ltmp154:
	add	a0, a0, a1
.Ltmp155:
	#DEBUG_VALUE: softmax_stable_rvv_fp32:dst <- $x10
	.loc	0 280 5                         # test.c:280:5
	bnez	a2, .LBB1_13
.Ltmp156:
.LBB1_14:
	#DEBUG_VALUE: softmax_stable_rvv_fp32:avl4 <- $x12
	#DEBUG_VALUE: softmax_stable_rvv_fp32:C8 <- 958852494
	#DEBUG_VALUE: softmax_stable_rvv_fp32:C7 <- 974222804
	#DEBUG_VALUE: softmax_stable_rvv_fp32:C6 <- 985008993
	#DEBUG_VALUE: softmax_stable_rvv_fp32:C5 <- 1007192201
	#DEBUG_VALUE: softmax_stable_rvv_fp32:C4 <- 1026206379
	#DEBUG_VALUE: softmax_stable_rvv_fp32:C3 <- 1042983595
	#DEBUG_VALUE: softmax_stable_rvv_fp32:C2 <- 1056964608
	#DEBUG_VALUE: softmax_stable_rvv_fp32:C1 <- 1065353216
	#DEBUG_VALUE: softmax_stable_rvv_fp32:C0 <- 1065353216
	#DEBUG_VALUE: softmax_stable_rvv_fp32:BITS_TWO <- 1073741824
	#DEBUG_VALUE: softmax_stable_rvv_fp32:BITS_EPS <- 841731191
	#DEBUG_VALUE: softmax_stable_rvv_fp32:BITS_LN2_LO <- 947915776
	#DEBUG_VALUE: softmax_stable_rvv_fp32:BITS_LN2_HI <- 1060204544
	#DEBUG_VALUE: softmax_stable_rvv_fp32:BITS_ILN2 <- 1069066811
	#DEBUG_VALUE: softmax_stable_rvv_fp32:BITS_NEG_INF <- -8388608
	#DEBUG_VALUE: softmax_stable_rvv_fp32:dst <- undef
	.loc	0 345 1 epilogue_begin          # test.c:345:1
	ld	s0, 40(sp)                      # 8-byte Folded Reload
	ld	s1, 32(sp)                      # 8-byte Folded Reload
	ld	s2, 24(sp)                      # 8-byte Folded Reload
	ld	s3, 16(sp)                      # 8-byte Folded Reload
	.cfi_restore s0
	.cfi_restore s1
	.cfi_restore s2
	.cfi_restore s3
	addi	sp, sp, 48
	.cfi_def_cfa_offset 0
	ret
.Ltmp157:
.Lfunc_end1:
	.size	softmax_stable_rvv_fp32, .Lfunc_end1-softmax_stable_rvv_fp32
	.cfi_endproc
                                        # -- End function
	.hidden	src                             # @src
	.type	src,@object
	.data
	.globl	src
	.p2align	2, 0x0
src:
	.word	0xbf00788e                      # float -0.501839519
	.word	0x3fe6c407                      # float 1.80285728
	.word	0x3f6d8fd2                      # float 0.927975773
	.word	0x3eca0d76                      # float 0.394633949
	.word	0xbfb01e53                      # float -1.37592542
	.word	0xbfb0217c                      # float -1.37602186
	.word	0xbfe242dd                      # float -1.76766551
	.word	0x3fbb7b71                      # float 1.46470463
	.word	0x3ecf1563                      # float 0.404460043
	.word	0x3f5510fa                      # float 0.832290291
	.word	0xbff575f3                      # float -1.91766202
	.word	0x3ff09806                      # float 1.87963939
	.word	0x3faa35ec                      # float 1.32977057
	.word	0xbf93484a                      # float -1.15064359
	.word	0xbfa2e7d7                      # float -1.27270019
	.word	0xbfa218ce                      # float -1.26638198
	.size	src, 64

	.hidden	dst                             # @dst
	.type	dst,@object
	.bss
	.globl	dst
	.p2align	2, 0x0
dst:
	.zero	64
	.size	dst, 64

	.hidden	golden                          # @golden
	.type	golden,@object
	.data
	.globl	golden
	.p2align	2, 0x0
golden:
	.word	0x3ca0cef2                      # float 0.0196299292
	.word	0x3e496f75                      # float 0.196714237
	.word	0x3da7f61f                      # float 0.0820124074
	.word	0x3d4510f1                      # float 0.0481118597
	.word	0x3c063147                      # float 0.00819045957
	.word	0x3c062dec                      # float 0.00818965956
	.word	0x3bb56552                      # float 0.00553575996
	.word	0x3e0fa40d                      # float 0.140274242
	.word	0x3d470319                      # float 0.0485869385
	.word	0x3d98a289                      # float 0.0745287612
	.word	0x3b9c211e                      # float 0.00476469006
	.word	0x3e5982e3                      # float 0.212413356
	.word	0x3dfb04e5                      # float 0.122567929
	.word	0x3c28197a                      # float 0.0102599803
	.word	0x3c14c8da                      # float 0.00908108986
	.word	0x3c15ba47                      # float 0.00913865026
	.size	golden, 64

	.hidden	diff_mem                        # @diff_mem
	.type	diff_mem,@object
	.bss
	.globl	diff_mem
	.p2align	2, 0x0
diff_mem:
	.zero	64
	.size	diff_mem, 64

	.section	".note.GNU-stack","",@progbits
	.addrsig
	.addrsig_sym src
	.addrsig_sym dst