
build/matmul-ABT-1024/test.elf:     file format elf64-littleriscv


Disassembly of section .text.init:

0000000080000000 <_start>:
#endif

  .section ".text.init"
  .globl _start
_start:
  li  x1, 0
    80000000:	4081                	li	ra,0
  li  x2, 0
    80000002:	4101                	li	sp,0
  li  x3, 0
    80000004:	4181                	li	gp,0
  li  x4, 0
    80000006:	4201                	li	tp,0
  li  x5, 0
    80000008:	4281                	li	t0,0
  li  x6, 0
    8000000a:	4301                	li	t1,0
  li  x7, 0
    8000000c:	4381                	li	t2,0
  li  x8, 0
    8000000e:	4401                	li	s0,0
  li  x9, 0
    80000010:	4481                	li	s1,0
  li  x10,0
    80000012:	4501                	li	a0,0
  li  x11,0
    80000014:	4581                	li	a1,0
  li  x12,0
    80000016:	4601                	li	a2,0
  li  x13,0
    80000018:	4681                	li	a3,0
  li  x14,0
    8000001a:	4701                	li	a4,0
  li  x15,0
    8000001c:	4781                	li	a5,0
  li  x16,0
    8000001e:	4801                	li	a6,0
  li  x17,0
    80000020:	4881                	li	a7,0
  li  x18,0
    80000022:	4901                	li	s2,0
  li  x19,0
    80000024:	4981                	li	s3,0
  li  x20,0
    80000026:	4a01                	li	s4,0
  li  x21,0
    80000028:	4a81                	li	s5,0
  li  x22,0
    8000002a:	4b01                	li	s6,0
  li  x23,0
    8000002c:	4b81                	li	s7,0
  li  x24,0
    8000002e:	4c01                	li	s8,0
  li  x25,0
    80000030:	4c81                	li	s9,0
  li  x26,0
    80000032:	4d01                	li	s10,0
  li  x27,0
    80000034:	4d81                	li	s11,0
  li  x28,0
    80000036:	4e01                	li	t3,0
  li  x29,0
    80000038:	4e81                	li	t4,0
  li  x30,0
    8000003a:	4f01                	li	t5,0
  li  x31,0
    8000003c:	4f81                	li	t6,0

  # enable FPU and accelerator if present
  li t0, MSTATUS_FS | MSTATUS_XS | MSTATUS_VS
    8000003e:	62f9                	lui	t0,0x1e
    80000040:	6002829b          	addiw	t0,t0,1536 # 1e600 <.Lline_table_start0+0x1bee0>
  csrs mstatus, t0
    80000044:	3002a073          	csrs	mstatus,t0

  # make sure XLEN agrees with compilation choice
  li t0, 1
    80000048:	4285                	li	t0,1
  slli t0, t0, 31
    8000004a:	02fe                	slli	t0,t0,0x1f
#if __riscv_xlen == 64
  bgez t0, 1f
    8000004c:	0002d863          	bgez	t0,8000005c <.Lpcrel_hi0+0xa>
#else
  bltz t0, 1f
#endif
2:
  li a0, 1
    80000050:	4505                	li	a0,1

0000000080000052 <.Lpcrel_hi0>:
  sw a0, tohost, t0
    80000052:	00002297          	auipc	t0,0x2
    80000056:	7aa2a723          	sw	a0,1966(t0) # 80002800 <_matB_end>
  j 2b
    8000005a:	bfdd                	j	80000050 <_start+0x50>
1:

#ifdef __riscv_flen
  # initialize FPU if we have one
  la t0, 1f
    8000005c:	00000297          	auipc	t0,0x0
    80000060:	09028293          	addi	t0,t0,144 # 800000ec <.Lpcrel_hi0+0x9a>
  csrw mtvec, t0
    80000064:	30529073          	csrw	mtvec,t0

  fssr    x0
    80000068:	00301073          	fscsr	zero
  fmv.s.x f0, x0
    8000006c:	f0000053          	fmv.w.x	ft0,zero
  fmv.s.x f1, x0
    80000070:	f00000d3          	fmv.w.x	ft1,zero
  fmv.s.x f2, x0
    80000074:	f0000153          	fmv.w.x	ft2,zero
  fmv.s.x f3, x0
    80000078:	f00001d3          	fmv.w.x	ft3,zero
  fmv.s.x f4, x0
    8000007c:	f0000253          	fmv.w.x	ft4,zero
  fmv.s.x f5, x0
    80000080:	f00002d3          	fmv.w.x	ft5,zero
  fmv.s.x f6, x0
    80000084:	f0000353          	fmv.w.x	ft6,zero
  fmv.s.x f7, x0
    80000088:	f00003d3          	fmv.w.x	ft7,zero
  fmv.s.x f8, x0
    8000008c:	f0000453          	fmv.w.x	fs0,zero
  fmv.s.x f9, x0
    80000090:	f00004d3          	fmv.w.x	fs1,zero
  fmv.s.x f10,x0
    80000094:	f0000553          	fmv.w.x	fa0,zero
  fmv.s.x f11,x0
    80000098:	f00005d3          	fmv.w.x	fa1,zero
  fmv.s.x f12,x0
    8000009c:	f0000653          	fmv.w.x	fa2,zero
  fmv.s.x f13,x0
    800000a0:	f00006d3          	fmv.w.x	fa3,zero
  fmv.s.x f14,x0
    800000a4:	f0000753          	fmv.w.x	fa4,zero
  fmv.s.x f15,x0
    800000a8:	f00007d3          	fmv.w.x	fa5,zero
  fmv.s.x f16,x0
    800000ac:	f0000853          	fmv.w.x	fa6,zero
  fmv.s.x f17,x0
    800000b0:	f00008d3          	fmv.w.x	fa7,zero
  fmv.s.x f18,x0
    800000b4:	f0000953          	fmv.w.x	fs2,zero
  fmv.s.x f19,x0
    800000b8:	f00009d3          	fmv.w.x	fs3,zero
  fmv.s.x f20,x0
    800000bc:	f0000a53          	fmv.w.x	fs4,zero
  fmv.s.x f21,x0
    800000c0:	f0000ad3          	fmv.w.x	fs5,zero
  fmv.s.x f22,x0
    800000c4:	f0000b53          	fmv.w.x	fs6,zero
  fmv.s.x f23,x0
    800000c8:	f0000bd3          	fmv.w.x	fs7,zero
  fmv.s.x f24,x0
    800000cc:	f0000c53          	fmv.w.x	fs8,zero
  fmv.s.x f25,x0
    800000d0:	f0000cd3          	fmv.w.x	fs9,zero
  fmv.s.x f26,x0
    800000d4:	f0000d53          	fmv.w.x	fs10,zero
  fmv.s.x f27,x0
    800000d8:	f0000dd3          	fmv.w.x	fs11,zero
  fmv.s.x f28,x0
    800000dc:	f0000e53          	fmv.w.x	ft8,zero
  fmv.s.x f29,x0
    800000e0:	f0000ed3          	fmv.w.x	ft9,zero
  fmv.s.x f30,x0
    800000e4:	f0000f53          	fmv.w.x	ft10,zero
  fmv.s.x f31,x0
    800000e8:	f0000fd3          	fmv.w.x	ft11,zero
1:
#endif

  # initialize trap vector
  la t0, trap_entry
    800000ec:	00000297          	auipc	t0,0x0
    800000f0:	03c28293          	addi	t0,t0,60 # 80000128 <trap_entry>
  csrw mtvec, t0
    800000f4:	30529073          	csrw	mtvec,t0

00000000800000f8 <.Lpcrel_hi3>:

  # initialize global pointer
.option push
.option norelax
  la gp, __global_pointer$
    800000f8:	00003197          	auipc	gp,0x3
    800000fc:	ce818193          	addi	gp,gp,-792 # 80002de0 <__global_pointer$>

0000000080000100 <.Lpcrel_hi4>:
.option pop

  la  tp, _end + 63
    80000100:	00003217          	auipc	tp,0x3
    80000104:	d4320213          	addi	tp,tp,-701 # 80002e43 <_end+0x3f>
  and tp, tp, -64
    80000108:	fc027213          	andi	tp,tp,-64

  # get core id
  csrr a0, mhartid
    8000010c:	f1402573          	csrr	a0,mhartid
#ifndef CORENUMS
  # for now, assume only 1 core
  li a1, 1
    80000110:	4585                	li	a1,1
1:bgeu a0, a1, 1b
    80000112:	00b57063          	bgeu	a0,a1,80000112 <.Lpcrel_hi4+0x12>
#endif

  # give each core 128KB of stack + TLS
#define STKSHIFT 17
  add sp, a0, 1
    80000116:	00150113          	addi	sp,a0,1
  sll sp, sp, STKSHIFT
    8000011a:	0146                	slli	sp,sp,0x11
  add sp, sp, tp
    8000011c:	9112                	add	sp,sp,tp
  sll a2, a0, STKSHIFT
    8000011e:	01151613          	slli	a2,a0,0x11
  add tp, tp, a2
    80000122:	9232                	add	tp,tp,a2

  j _init
    80000124:	1630006f          	j	80000a86 <_init>

0000000080000128 <trap_entry>:

  .align 2
trap_entry:
  addi sp, sp, -272
    80000128:	716d                	addi	sp,sp,-272

  # goto trap handler if not exit ecall
  csrr t5, mcause
    8000012a:	34202f73          	csrr	t5,mcause
  li t6, CAUSE_MACHINE_ECALL
    8000012e:	4fad                	li	t6,11
  bne t5, t6, 2f
    80000130:	03ff1b63          	bne	t5,t6,80000166 <.Lpcrel_hi6+0x20>

  # skip flush signature cache lines if on spike
  csrr t2, marchid
    80000134:	f12023f3          	csrr	t2,marchid
  li t3, 5
    80000138:	4e15                	li	t3,5
  beq t2, t3, 3f
    8000013a:	03c38463          	beq	t2,t3,80000162 <.Lpcrel_hi6+0x1c>

000000008000013e <.Lpcrel_hi5>:

  # flush signature cache lines
  la t0, begin_signature
    8000013e:	00003297          	auipc	t0,0x3
    80000142:	cc628293          	addi	t0,t0,-826 # 80002e04 <_end>

0000000080000146 <.Lpcrel_hi6>:
  la t1, end_signature
    80000146:	00003317          	auipc	t1,0x3
    8000014a:	cbe30313          	addi	t1,t1,-834 # 80002e04 <_end>
  addi t1, t1, 0x40
    8000014e:	04030313          	addi	t1,t1,64
  li t2, 0x2010000
    80000152:	020103b7          	lui	t2,0x2010
4:
  sd t0, 0x200(t2)
    80000156:	2053b023          	sd	t0,512(t2) # 2010200 <.Lline_table_start0+0x200dae0>
  addi t0, t0, 64
    8000015a:	04028293          	addi	t0,t0,64
  blt t0, t1, 4b
    8000015e:	fe62cce3          	blt	t0,t1,80000156 <.Lpcrel_hi6+0x10>

  # exit simulation
3:
  j tohost_exit
    80000162:	0090006f          	j	8000096a <tohost_exit>

2:

  SREG x1, 1*REGBYTES(sp)
    80000166:	e406                	sd	ra,8(sp)
  SREG x2, 2*REGBYTES(sp)
    80000168:	e80a                	sd	sp,16(sp)
  SREG x3, 3*REGBYTES(sp)
    8000016a:	ec0e                	sd	gp,24(sp)
  SREG x4, 4*REGBYTES(sp)
    8000016c:	f012                	sd	tp,32(sp)
  SREG x5, 5*REGBYTES(sp)
    8000016e:	f416                	sd	t0,40(sp)
  SREG x6, 6*REGBYTES(sp)
    80000170:	f81a                	sd	t1,48(sp)
  SREG x7, 7*REGBYTES(sp)
    80000172:	fc1e                	sd	t2,56(sp)
  SREG x8, 8*REGBYTES(sp)
    80000174:	e0a2                	sd	s0,64(sp)
  SREG x9, 9*REGBYTES(sp)
    80000176:	e4a6                	sd	s1,72(sp)
  SREG x10, 10*REGBYTES(sp)
    80000178:	e8aa                	sd	a0,80(sp)
  SREG x11, 11*REGBYTES(sp)
    8000017a:	ecae                	sd	a1,88(sp)
  SREG x12, 12*REGBYTES(sp)
    8000017c:	f0b2                	sd	a2,96(sp)
  SREG x13, 13*REGBYTES(sp)
    8000017e:	f4b6                	sd	a3,104(sp)
  SREG x14, 14*REGBYTES(sp)
    80000180:	f8ba                	sd	a4,112(sp)
  SREG x15, 15*REGBYTES(sp)
    80000182:	fcbe                	sd	a5,120(sp)
  SREG x16, 16*REGBYTES(sp)
    80000184:	e142                	sd	a6,128(sp)
  SREG x17, 17*REGBYTES(sp)
    80000186:	e546                	sd	a7,136(sp)
  SREG x18, 18*REGBYTES(sp)
    80000188:	e94a                	sd	s2,144(sp)
  SREG x19, 19*REGBYTES(sp)
    8000018a:	ed4e                	sd	s3,152(sp)
  SREG x20, 20*REGBYTES(sp)
    8000018c:	f152                	sd	s4,160(sp)
  SREG x21, 21*REGBYTES(sp)
    8000018e:	f556                	sd	s5,168(sp)
  SREG x22, 22*REGBYTES(sp)
    80000190:	f95a                	sd	s6,176(sp)
  SREG x23, 23*REGBYTES(sp)
    80000192:	fd5e                	sd	s7,184(sp)
  SREG x24, 24*REGBYTES(sp)
    80000194:	e1e2                	sd	s8,192(sp)
  SREG x25, 25*REGBYTES(sp)
    80000196:	e5e6                	sd	s9,200(sp)
  SREG x26, 26*REGBYTES(sp)
    80000198:	e9ea                	sd	s10,208(sp)
  SREG x27, 27*REGBYTES(sp)
    8000019a:	edee                	sd	s11,216(sp)
  SREG x28, 28*REGBYTES(sp)
    8000019c:	f1f2                	sd	t3,224(sp)
  SREG x29, 29*REGBYTES(sp)
    8000019e:	f5f6                	sd	t4,232(sp)
  SREG x30, 30*REGBYTES(sp)
    800001a0:	f9fa                	sd	t5,240(sp)
  SREG x31, 31*REGBYTES(sp)
    800001a2:	fdfe                	sd	t6,248(sp)

  csrr a0, mcause
    800001a4:	34202573          	csrr	a0,mcause
  csrr a1, mepc
    800001a8:	341025f3          	csrr	a1,mepc
  mv a2, sp
    800001ac:	860a                	mv	a2,sp
  jal handle_trap
    800001ae:	40e010ef          	jal	800015bc <handle_trap>
  csrw mepc, a0
    800001b2:	34151073          	csrw	mepc,a0

  # Remain in M-mode after eret
  li t0, MSTATUS_MPP
    800001b6:	6289                	lui	t0,0x2
    800001b8:	8002829b          	addiw	t0,t0,-2048 # 1800 <.Lline_table_start0+0xb46>
  csrs mstatus, t0
    800001bc:	3002a073          	csrs	mstatus,t0

  LREG x1, 1*REGBYTES(sp)
    800001c0:	60a2                	ld	ra,8(sp)
  LREG x2, 2*REGBYTES(sp)
    800001c2:	6142                	ld	sp,16(sp)
  LREG x3, 3*REGBYTES(sp)
    800001c4:	61e2                	ld	gp,24(sp)
  LREG x4, 4*REGBYTES(sp)
    800001c6:	7202                	ld	tp,32(sp)
  LREG x5, 5*REGBYTES(sp)
    800001c8:	72a2                	ld	t0,40(sp)
  LREG x6, 6*REGBYTES(sp)
    800001ca:	7342                	ld	t1,48(sp)
  LREG x7, 7*REGBYTES(sp)
    800001cc:	73e2                	ld	t2,56(sp)
  LREG x8, 8*REGBYTES(sp)
    800001ce:	6406                	ld	s0,64(sp)
  LREG x9, 9*REGBYTES(sp)
    800001d0:	64a6                	ld	s1,72(sp)
  LREG x10, 10*REGBYTES(sp)
    800001d2:	6546                	ld	a0,80(sp)
  LREG x11, 11*REGBYTES(sp)
    800001d4:	65e6                	ld	a1,88(sp)
  LREG x12, 12*REGBYTES(sp)
    800001d6:	7606                	ld	a2,96(sp)
  LREG x13, 13*REGBYTES(sp)
    800001d8:	76a6                	ld	a3,104(sp)
  LREG x14, 14*REGBYTES(sp)
    800001da:	7746                	ld	a4,112(sp)
  LREG x15, 15*REGBYTES(sp)
    800001dc:	77e6                	ld	a5,120(sp)
  LREG x16, 16*REGBYTES(sp)
    800001de:	680a                	ld	a6,128(sp)
  LREG x17, 17*REGBYTES(sp)
    800001e0:	68aa                	ld	a7,136(sp)
  LREG x18, 18*REGBYTES(sp)
    800001e2:	694a                	ld	s2,144(sp)
  LREG x19, 19*REGBYTES(sp)
    800001e4:	69ea                	ld	s3,152(sp)
  LREG x20, 20*REGBYTES(sp)
    800001e6:	7a0a                	ld	s4,160(sp)
  LREG x21, 21*REGBYTES(sp)
    800001e8:	7aaa                	ld	s5,168(sp)
  LREG x22, 22*REGBYTES(sp)
    800001ea:	7b4a                	ld	s6,176(sp)
  LREG x23, 23*REGBYTES(sp)
    800001ec:	7bea                	ld	s7,184(sp)
  LREG x24, 24*REGBYTES(sp)
    800001ee:	6c0e                	ld	s8,192(sp)
  LREG x25, 25*REGBYTES(sp)
    800001f0:	6cae                	ld	s9,200(sp)
  LREG x26, 26*REGBYTES(sp)
    800001f2:	6d4e                	ld	s10,208(sp)
  LREG x27, 27*REGBYTES(sp)
    800001f4:	6dee                	ld	s11,216(sp)
  LREG x28, 28*REGBYTES(sp)
    800001f6:	7e0e                	ld	t3,224(sp)
  LREG x29, 29*REGBYTES(sp)
    800001f8:	7eae                	ld	t4,232(sp)
  LREG x30, 30*REGBYTES(sp)
    800001fa:	7f4e                	ld	t5,240(sp)
  LREG x31, 31*REGBYTES(sp)
    800001fc:	7fee                	ld	t6,248(sp)

  addi sp, sp, 272
    800001fe:	6151                	addi	sp,sp,272
  mret
    80000200:	30200073          	mret

Disassembly of section .text:

0000000080000204 <write_reg_u8>:
#include "uart.h"

void write_reg_u8(uintptr_t addr, uint8_t value)
{
    volatile uint8_t *loc_addr = (volatile uint8_t *)addr;
    *loc_addr = value;
    80000204:	00b50023          	sb	a1,0(a0)
}
    80000208:	8082                	ret

000000008000020a <read_reg_u8>:

uint8_t read_reg_u8(uintptr_t addr)
{
    return *(volatile uint8_t *)addr;
    8000020a:	00054503          	lbu	a0,0(a0)
    8000020e:	8082                	ret

0000000080000210 <is_transmit_empty>:
}

int is_transmit_empty()
{
    80000210:	10000537          	lui	a0,0x10000
    80000214:	2551                	addiw	a0,a0,20 # 10000014 <UART0_BASE+0x14>
    return *(volatile uint8_t *)addr;
    80000216:	00054503          	lbu	a0,0(a0)
    return read_reg_u8(UART_LINE_STATUS) & 0x20;
    8000021a:	02057513          	andi	a0,a0,32
    8000021e:	8082                	ret

0000000080000220 <is_transmit_empty_altera>:
}

char is_transmit_empty_altera()
{
    80000220:	10000537          	lui	a0,0x10000
    80000224:	0075059b          	addiw	a1,a0,7 # 10000007 <UART0_BASE+0x7>
    return *(volatile uint8_t *)addr;
    80000228:	00058583          	lb	a1,0(a1)
    8000022c:	2519                	addiw	a0,a0,6
    8000022e:	00054503          	lbu	a0,0(a0)
    return ((read_reg_u8(UART_THR+7) << 8 ) + read_reg_u8(UART_THR+6));
    80000232:	8082                	ret

0000000080000234 <is_receive_empty>:
}

int is_receive_empty()
{
    80000234:	10000537          	lui	a0,0x10000
    80000238:	2551                	addiw	a0,a0,20 # 10000014 <UART0_BASE+0x14>
    return *(volatile uint8_t *)addr;
    8000023a:	00050503          	lb	a0,0(a0)
    8000023e:	fff54513          	not	a0,a0
    #ifndef PLAT_AGILEX
        return !(read_reg_u8(UART_LINE_STATUS) & 0x1);
    80000242:	8905                	andi	a0,a0,1
    80000244:	8082                	ret

0000000080000246 <write_serial>:
        return (read_reg_u8(UART_THR) == 0);
    #endif
}

void write_serial(char a)
{
    80000246:	100005b7          	lui	a1,0x10000
    8000024a:	25d1                	addiw	a1,a1,20 # 10000014 <UART0_BASE+0x14>
    return *(volatile uint8_t *)addr;
    8000024c:	0005c603          	lbu	a2,0(a1)
    return read_reg_u8(UART_LINE_STATUS) & 0x20;
    80000250:	02067613          	andi	a2,a2,32
    #ifndef PLAT_AGILEX
        while (is_transmit_empty() == 0) {};
    80000254:	de65                	beqz	a2,8000024c <write_serial+0x6>
    80000256:	100005b7          	lui	a1,0x10000
    *loc_addr = value;
    8000025a:	00a58023          	sb	a0,0(a1) # 10000000 <UART0_BASE>
    #else
        while (is_transmit_empty_altera() < 8) {};
    #endif
    write_reg_u8(UART_THR, a);
}
    8000025e:	8082                	ret

0000000080000260 <read_serial>:

int read_serial(uint8_t *res)
{
    80000260:	10000637          	lui	a2,0x10000
    80000264:	0146059b          	addiw	a1,a2,20 # 10000014 <UART0_BASE+0x14>
    return *(volatile uint8_t *)addr;
    80000268:	0005c583          	lbu	a1,0(a1)
        return !(read_reg_u8(UART_LINE_STATUS) & 0x1);
    8000026c:	0015f693          	andi	a3,a1,1
    80000270:	4581                	li	a1,0
    if(is_receive_empty()) {
    80000272:	c691                	beqz	a3,8000027e <read_serial+0x1e>
    return *(volatile uint8_t *)addr;
    80000274:	00060583          	lb	a1,0(a2)
        return 0;
    }

    *res = read_reg_u8(UART_RBR);
    80000278:	00b50023          	sb	a1,0(a0)
    8000027c:	4585                	li	a1,1
    return 1;
}
    8000027e:	852e                	mv	a0,a1
    80000280:	8082                	ret

0000000080000282 <init_uart>:

void init_uart(uint32_t freq, uint32_t baud)
{
    uint32_t divisor = freq / (baud << 4);
    80000282:	0045959b          	slliw	a1,a1,0x4
    80000286:	02b5553b          	divuw	a0,a0,a1
    8000028a:	100005b7          	lui	a1,0x10000
    8000028e:	0045861b          	addiw	a2,a1,4 # 10000004 <UART0_BASE+0x4>
    *loc_addr = value;
    80000292:	00060023          	sb	zero,0(a2)
    80000296:	00c5869b          	addiw	a3,a1,12
    8000029a:	08000713          	li	a4,128
    8000029e:	00e68023          	sb	a4,0(a3)
    800002a2:	00a58023          	sb	a0,0(a1)

    write_reg_u8(UART_INTERRUPT_ENABLE, 0x00); // Disable all interrupts
    write_reg_u8(UART_LINE_CONTROL, 0x80);     // Enable DLAB (set baud rate divisor)
    write_reg_u8(UART_DLAB_LSB, divisor);         // divisor (lo byte)
    write_reg_u8(UART_DLAB_MSB, (divisor >> 8) & 0xFF);  // divisor (hi byte)
    800002a6:	8121                	srli	a0,a0,0x8
    *loc_addr = value;
    800002a8:	00a60023          	sb	a0,0(a2)
    800002ac:	450d                	li	a0,3
    800002ae:	00a68023          	sb	a0,0(a3)
    800002b2:	0085851b          	addiw	a0,a1,8
    800002b6:	0c700613          	li	a2,199
    800002ba:	00c50023          	sb	a2,0(a0)
    800002be:	0105851b          	addiw	a0,a1,16
    800002c2:	02000593          	li	a1,32
    800002c6:	00b50023          	sb	a1,0(a0)
    write_reg_u8(UART_LINE_CONTROL, 0x03);     // 8 bits, no parity, one stop bit
    write_reg_u8(UART_FIFO_CONTROL, 0xC7);     // Enable FIFO, clear them, with 14-byte threshold
    write_reg_u8(UART_MODEM_CONTROL, 0x20);    // Autoflow mode
}
    800002ca:	8082                	ret

00000000800002cc <print_uart>:

void print_uart(const char *str)
{
    const char *cur = &str[0];
    while (*cur != '\0')
    800002cc:	00054583          	lbu	a1,0(a0)
    800002d0:	c185                	beqz	a1,800002f0 <print_uart+0x24>
    800002d2:	10000637          	lui	a2,0x10000
    800002d6:	0146069b          	addiw	a3,a2,20 # 10000014 <UART0_BASE+0x14>
    return *(volatile uint8_t *)addr;
    800002da:	0006c703          	lbu	a4,0(a3)
    return read_reg_u8(UART_LINE_STATUS) & 0x20;
    800002de:	02077713          	andi	a4,a4,32
        while (is_transmit_empty() == 0) {};
    800002e2:	df65                	beqz	a4,800002da <print_uart+0xe>
    *loc_addr = value;
    800002e4:	00b60023          	sb	a1,0(a2)
    while (*cur != '\0')
    800002e8:	00154583          	lbu	a1,1(a0)
    {
        write_serial((uint8_t)*cur);
        ++cur;
    800002ec:	0505                	addi	a0,a0,1
    while (*cur != '\0')
    800002ee:	f5f5                	bnez	a1,800002da <print_uart+0xe>
    }
}
    800002f0:	8082                	ret

00000000800002f2 <bin_to_hex>:

uint8_t bin_to_hex_table[16] = {
    '0', '1', '2', '3', '4', '5', '6', '7', '8', '9', 'A', 'B', 'C', 'D', 'E', 'F'};

void bin_to_hex(uint8_t inp, uint8_t res[2])
{
    800002f2:	00f57613          	andi	a2,a0,15

00000000800002f6 <.LBB9_1>:
    res[1] = bin_to_hex_table[inp & 0xf];
    800002f6:	00002697          	auipc	a3,0x2
    800002fa:	2da68693          	addi	a3,a3,730 # 800025d0 <bin_to_hex_table>
    800002fe:	9636                	add	a2,a2,a3
    80000300:	00060603          	lb	a2,0(a2)
    80000304:	00c580a3          	sb	a2,1(a1)
    80000308:	8111                	srli	a0,a0,0x4
    res[0] = bin_to_hex_table[(inp >> 4) & 0xf];
    8000030a:	9536                	add	a0,a0,a3
    8000030c:	00050503          	lb	a0,0(a0)
    80000310:	00a58023          	sb	a0,0(a1)
    return;
    80000314:	8082                	ret

0000000080000316 <print_uart_int>:
}

void print_uart_int(uint32_t addr)
{
    80000316:	460d                	li	a2,3

0000000080000318 <.LBB10_7>:
    80000318:	00002897          	auipc	a7,0x2
    8000031c:	2b888893          	addi	a7,a7,696 # 800025d0 <bin_to_hex_table>
    80000320:	10000837          	lui	a6,0x10000
    80000324:	0148071b          	addiw	a4,a6,20 # 10000014 <UART0_BASE+0x14>
    int i;
    for (i = 3; i > -1; i--)
    {
        uint8_t cur = (addr >> (i * 8)) & 0xff;
    80000328:	0036169b          	slliw	a3,a2,0x3
    8000032c:	00d556bb          	srlw	a3,a0,a3
    res[1] = bin_to_hex_table[inp & 0xf];
    80000330:	00f6f793          	andi	a5,a3,15
    80000334:	97c6                	add	a5,a5,a7
    80000336:	0007c783          	lbu	a5,0(a5)
    res[0] = bin_to_hex_table[(inp >> 4) & 0xf];
    8000033a:	8291                	srli	a3,a3,0x4
    8000033c:	8abd                	andi	a3,a3,15
    8000033e:	96c6                	add	a3,a3,a7
    80000340:	0006c683          	lbu	a3,0(a3)
    return *(volatile uint8_t *)addr;
    80000344:	00074583          	lbu	a1,0(a4)
    return read_reg_u8(UART_LINE_STATUS) & 0x20;
    80000348:	0205f593          	andi	a1,a1,32
        while (is_transmit_empty() == 0) {};
    8000034c:	dde5                	beqz	a1,80000344 <.LBB10_7+0x2c>
    *loc_addr = value;
    8000034e:	00d80023          	sb	a3,0(a6)
    return *(volatile uint8_t *)addr;
    80000352:	00074583          	lbu	a1,0(a4)
    return read_reg_u8(UART_LINE_STATUS) & 0x20;
    80000356:	0205f593          	andi	a1,a1,32
        while (is_transmit_empty() == 0) {};
    8000035a:	dde5                	beqz	a1,80000352 <.LBB10_7+0x3a>
    for (i = 3; i > -1; i--)
    8000035c:	0006059b          	sext.w	a1,a2
    80000360:	367d                	addiw	a2,a2,-1
    *loc_addr = value;
    80000362:	00f80023          	sb	a5,0(a6)
    for (i = 3; i > -1; i--)
    80000366:	f1e9                	bnez	a1,80000328 <.LBB10_7+0x10>
        uint8_t hex[2];
        bin_to_hex(cur, hex);
        write_serial(hex[0]);
        write_serial(hex[1]);
    }
}
    80000368:	8082                	ret

000000008000036a <print_uart_addr>:
//把一个64位地址按16个大写十六进制字符输出到串口
void print_uart_addr(uint64_t addr)
{
    8000036a:	479d                	li	a5,7

000000008000036c <.LBB11_7>:
    8000036c:	00002897          	auipc	a7,0x2
    80000370:	26488893          	addi	a7,a7,612 # 800025d0 <bin_to_hex_table>
    80000374:	10000837          	lui	a6,0x10000
    80000378:	0148069b          	addiw	a3,a6,20 # 10000014 <UART0_BASE+0x14>
    8000037c:	873e                	mv	a4,a5
    int i;
    for (i = 7; i > -1; i--)
    {
        uint8_t cur = (addr >> (i * 8)) & 0xff;
    8000037e:	00379613          	slli	a2,a5,0x3
    80000382:	00c55633          	srl	a2,a0,a2
    res[1] = bin_to_hex_table[inp & 0xf];
    80000386:	00f67793          	andi	a5,a2,15
    8000038a:	97c6                	add	a5,a5,a7
    8000038c:	0007c783          	lbu	a5,0(a5)
    res[0] = bin_to_hex_table[(inp >> 4) & 0xf];
    80000390:	8211                	srli	a2,a2,0x4
    80000392:	8a3d                	andi	a2,a2,15
    80000394:	9646                	add	a2,a2,a7
    80000396:	00064603          	lbu	a2,0(a2)
    return *(volatile uint8_t *)addr;
    8000039a:	0006c583          	lbu	a1,0(a3)
    return read_reg_u8(UART_LINE_STATUS) & 0x20;
    8000039e:	0205f593          	andi	a1,a1,32
        while (is_transmit_empty() == 0) {};
    800003a2:	dde5                	beqz	a1,8000039a <.LBB11_7+0x2e>
    *loc_addr = value;
    800003a4:	00c80023          	sb	a2,0(a6)
    return *(volatile uint8_t *)addr;
    800003a8:	0006c583          	lbu	a1,0(a3)
    return read_reg_u8(UART_LINE_STATUS) & 0x20;
    800003ac:	0205f593          	andi	a1,a1,32
        while (is_transmit_empty() == 0) {};
    800003b0:	dde5                	beqz	a1,800003a8 <.LBB11_7+0x3c>
    *loc_addr = value;
    800003b2:	00f80023          	sb	a5,0(a6)
    for (i = 7; i > -1; i--)
    800003b6:	fff70793          	addi	a5,a4,-1
    800003ba:	f369                	bnez	a4,8000037c <.LBB11_7+0x10>
        uint8_t hex[2];
        bin_to_hex(cur, hex);
        write_serial(hex[0]);
        write_serial(hex[1]);
    }
}
    800003bc:	8082                	ret

00000000800003be <print_uart_byte>:

void print_uart_byte(uint8_t byte)
{
    800003be:	00f57593          	andi	a1,a0,15

00000000800003c2 <.LBB12_5>:
    res[1] = bin_to_hex_table[inp & 0xf];
    800003c2:	00002617          	auipc	a2,0x2
    800003c6:	20e60613          	addi	a2,a2,526 # 800025d0 <bin_to_hex_table>
    800003ca:	95b2                	add	a1,a1,a2
    800003cc:	0005c583          	lbu	a1,0(a1)
    800003d0:	8111                	srli	a0,a0,0x4
    res[0] = bin_to_hex_table[(inp >> 4) & 0xf];
    800003d2:	9532                	add	a0,a0,a2
    800003d4:	00054503          	lbu	a0,0(a0)
    800003d8:	10000637          	lui	a2,0x10000
    800003dc:	2651                	addiw	a2,a2,20 # 10000014 <UART0_BASE+0x14>
    return *(volatile uint8_t *)addr;
    800003de:	00064683          	lbu	a3,0(a2)
    return read_reg_u8(UART_LINE_STATUS) & 0x20;
    800003e2:	0206f693          	andi	a3,a3,32
        while (is_transmit_empty() == 0) {};
    800003e6:	dee5                	beqz	a3,800003de <.LBB12_5+0x1c>
    800003e8:	10000637          	lui	a2,0x10000
    *loc_addr = value;
    800003ec:	00a60023          	sb	a0,0(a2) # 10000000 <UART0_BASE>
    800003f0:	0146051b          	addiw	a0,a2,20
    return *(volatile uint8_t *)addr;
    800003f4:	00054603          	lbu	a2,0(a0)
    return read_reg_u8(UART_LINE_STATUS) & 0x20;
    800003f8:	02067613          	andi	a2,a2,32
        while (is_transmit_empty() == 0) {};
    800003fc:	de65                	beqz	a2,800003f4 <.LBB12_5+0x32>
    800003fe:	10000537          	lui	a0,0x10000
    *loc_addr = value;
    80000402:	00b50023          	sb	a1,0(a0) # 10000000 <UART0_BASE>
    uint8_t hex[2];
    bin_to_hex(byte, hex);
    write_serial(hex[0]);
    write_serial(hex[1]);
}
    80000406:	8082                	ret

0000000080000408 <main>:
        print_uart("\r\n");
    }
}

int main()
{
    80000408:	7179                	addi	sp,sp,-48
    // 将 data.h 中的 A_i8/B_i8 拷贝到固定段 .matA/.matB；C 清零
    memcpy(A, A_i8, M * K * sizeof(int8_t));
    8000040a:	f406                	sd	ra,40(sp)
    8000040c:	f022                	sd	s0,32(sp)
    8000040e:	ec26                	sd	s1,24(sp)
    80000410:	e84a                	sd	s2,16(sp)
    80000412:	e44e                	sd	s3,8(sp)
    80000414:	e052                	sd	s4,0(sp)

0000000080000416 <.LBB13_25>:
    80000416:	00002917          	auipc	s2,0x2
    8000041a:	1ea90913          	addi	s2,s2,490 # 80002600 <A>

000000008000041e <.LBB13_26>:
    8000041e:	00001597          	auipc	a1,0x1
    80000422:	1e258593          	addi	a1,a1,482 # 80001600 <A_i8>
    80000426:	10000613          	li	a2,256
    8000042a:	854a                	mv	a0,s2
    8000042c:	00001097          	auipc	ra,0x1
    80000430:	e02080e7          	jalr	-510(ra) # 8000122e <memcpy>

0000000080000434 <.LBB13_27>:
    memcpy(B, B_i8, K * N * sizeof(int8_t));
    80000434:	00002a17          	auipc	s4,0x2
    80000438:	2cca0a13          	addi	s4,s4,716 # 80002700 <B>

000000008000043c <.LBB13_28>:
    8000043c:	00001597          	auipc	a1,0x1
    80000440:	2c458593          	addi	a1,a1,708 # 80001700 <B_i8>
    80000444:	10000613          	li	a2,256
    80000448:	8552                	mv	a0,s4
    8000044a:	00001097          	auipc	ra,0x1
    8000044e:	de4080e7          	jalr	-540(ra) # 8000122e <memcpy>

0000000080000452 <.LBB13_29>:
    memcpy(C, C_i32, M * N * sizeof(int32_t));
    80000452:	00002997          	auipc	s3,0x2
    80000456:	42e98993          	addi	s3,s3,1070 # 80002880 <C>

000000008000045a <.LBB13_30>:
    8000045a:	00001597          	auipc	a1,0x1
    8000045e:	3a658593          	addi	a1,a1,934 # 80001800 <C_i32>
    80000462:	40000613          	li	a2,1024
    80000466:	854e                	mv	a0,s3
    80000468:	00001097          	auipc	ra,0x1
    8000046c:	dc6080e7          	jalr	-570(ra) # 8000122e <memcpy>
    80000470:	4881                	li	a7,0
    80000472:	45c1                	li	a1,16
    80000474:	04000293          	li	t0,64
    80000478:	4701                	li	a4,0
    tile_m = msettilem(m - i);
    8000047a:	4115853b          	subw	a0,a1,a7
    8000047e:	04055877          	.insn	4, 0x04055877
    80000482:	0048951b          	slliw	a0,a7,0x4
    80000486:	00251613          	slli	a2,a0,0x2
    8000048a:	01360333          	add	t1,a2,s3
    8000048e:	01250433          	add	s0,a0,s2
      tile_n = msettilen(n - j);
    80000492:	40e5853b          	subw	a0,a1,a4
    80000496:	040543f7          	.insn	4, 0x040543f7
      mint32_t acc1 = mlc_m(C + i * n + j, ldc_bytes);
    8000049a:	0007051b          	sext.w	a0,a4
    8000049e:	050a                	slli	a0,a0,0x2
    800004a0:	00a30e33          	add	t3,t1,a0
    800004a4:	005e2077          	.insn	4, 0x005e2077
    800004a8:	4481                	li	s1,0
    800004aa:	0047161b          	slliw	a2,a4,0x4
    800004ae:	9652                	add	a2,a2,s4
        tile_k = msettilek(k - kk);
    800004b0:	409587bb          	subw	a5,a1,s1
    800004b4:	0407e7f7          	.insn	4, 0x0407e7f7
        mint8_t tr0 = mla_m(A + i * k + kk, lda_bytes);
    800004b8:	0004869b          	sext.w	a3,s1
    800004bc:	00d40533          	add	a0,s0,a3
    800004c0:	04b50077          	.insn	4, 0x04b50077
        mint8_t tr1 = mlb_m(B + j * n + kk, ldb_bytes); //ABT+C
    800004c4:	00d60533          	add	a0,a2,a3
    800004c8:	08b500f7          	.insn	4, 0x08b500f7
      for (int kk = 0; kk < k; kk += tile_k) {
    800004cc:	9cbd                	addw	s1,s1,a5
        acc1 = mqma_b_mm(acc1, tr0, tr1);
    800004ce:	28180877          	.insn	4, 0x28180877
    800004d2:	fcb4cfe3          	blt	s1,a1,800004b0 <.LBB13_30+0x56>
    for (int j = 0; j < n; j += tile_n) {
    800004d6:	0077073b          	addw	a4,a4,t2
      msc_m(acc1, C + i * n + j, ldc_bytes);
    800004da:	025e2077          	.insn	4, 0x025e2077
    for (int j = 0; j < n; j += tile_n) {
    800004de:	fab74ae3          	blt	a4,a1,80000492 <.LBB13_30+0x38>
  for (int i = 0; i < m; i += tile_m) {
    800004e2:	010888bb          	addw	a7,a7,a6
    800004e6:	f8b8c9e3          	blt	a7,a1,80000478 <.LBB13_30+0x1e>
    800004ea:	4501                	li	a0,0
    800004ec:	45c1                	li	a1,16
    800004ee:	04000613          	li	a2,64
    800004f2:	4681                	li	a3,0
    tile_m = msettilem(m - i);
    800004f4:	40a5873b          	subw	a4,a1,a0
    800004f8:	04075777          	.insn	4, 0x04075777
    800004fc:	0045179b          	slliw	a5,a0,0x4
    80000500:	078a                	slli	a5,a5,0x2
    80000502:	97ce                	add	a5,a5,s3
      tile_n = msettilen(n - j);
    80000504:	40d584bb          	subw	s1,a1,a3
    80000508:	0404c4f7          	.insn	4, 0x0404c4f7
      mint32_t acc1 = mlc_m(C + i * n + j, ldc_bytes);
    8000050c:	0006841b          	sext.w	s0,a3
    80000510:	040a                	slli	s0,s0,0x2
    80000512:	943e                	add	s0,s0,a5
    80000514:	00c42077          	.insn	4, 0x00c42077
    for (int j = 0; j < n; j += tile_n) {
    80000518:	9ea5                	addw	a3,a3,s1
      msc_m(acc1, C + i * n + j, ldc_bytes);
    8000051a:	02c42077          	.insn	4, 0x02c42077
    for (int j = 0; j < n; j += tile_n) {
    8000051e:	feb6c3e3          	blt	a3,a1,80000504 <.LBB13_30+0xaa>
    for (int i = 0; i < m; i += tile_m) {
    80000522:	9d39                	addw	a0,a0,a4
    80000524:	fcb547e3          	blt	a0,a1,800004f2 <.LBB13_30+0x98>
    80000528:	4581                	li	a1,0
    8000052a:	000f4537          	lui	a0,0xf4
    8000052e:	23f5051b          	addiw	a0,a0,575 # f423f <.Lline_table_start0+0xf1b1f>
  for (unsigned i = 0; i < cycles; ++i) {
    80000532:	0005861b          	sext.w	a2,a1
    80000536:	2585                	addiw	a1,a1,1
    asm volatile("nop");
    80000538:	0001                	nop
  for (unsigned i = 0; i < cycles; ++i) {
    8000053a:	fea66ce3          	bltu	a2,a0,80000532 <.LBB13_30+0xd8>
    8000053e:	10000537          	lui	a0,0x10000
    80000542:	0045059b          	addiw	a1,a0,4 # 10000004 <UART0_BASE+0x4>
    *loc_addr = value;
    80000546:	00058023          	sb	zero,0(a1)
    8000054a:	00c5061b          	addiw	a2,a0,12
    8000054e:	08000693          	li	a3,128
    80000552:	00d60023          	sb	a3,0(a2)
    80000556:	46ed                	li	a3,27
    80000558:	00d50023          	sb	a3,0(a0)
    8000055c:	00058023          	sb	zero,0(a1)
    80000560:	458d                	li	a1,3
    80000562:	00b60023          	sb	a1,0(a2)
    80000566:	0085059b          	addiw	a1,a0,8
    8000056a:	0c700613          	li	a2,199
    8000056e:	00c58023          	sb	a2,0(a1)
    80000572:	0105059b          	addiw	a1,a0,16
    80000576:	02000613          	li	a2,32
    8000057a:	00c58023          	sb	a2,0(a1)

000000008000057e <.LBB13_31>:
    8000057e:	00002597          	auipc	a1,0x2
    80000582:	aca58593          	addi	a1,a1,-1334 # 80002048 <D_i32+0x448>
    80000586:	04d00713          	li	a4,77
    8000058a:	0145061b          	addiw	a2,a0,20
    8000058e:	00b58693          	addi	a3,a1,11
    return *(volatile uint8_t *)addr;
    80000592:	00064783          	lbu	a5,0(a2)
    return read_reg_u8(UART_LINE_STATUS) & 0x20;
    80000596:	0207f793          	andi	a5,a5,32
        while (is_transmit_empty() == 0) {};
    8000059a:	dfe5                	beqz	a5,80000592 <.LBB13_31+0x14>
    *loc_addr = value;
    8000059c:	00e50023          	sb	a4,0(a0)
    while (*cur != '\0')
    800005a0:	0015c703          	lbu	a4,1(a1)
        ++cur;
    800005a4:	00158793          	addi	a5,a1,1
    800005a8:	85be                	mv	a1,a5
    while (*cur != '\0')
    800005aa:	fed794e3          	bne	a5,a3,80000592 <.LBB13_31+0x14>

00000000800005ae <.LBB13_32>:
    debug_delay_cycles(1000000);
    // 初始化 UART
    init_uart(CLOCK_FREQUENCY, UART_BITRATE);

    print_uart("Matrix A:\r\n");
    print_mat_i8((const int8_t*)A, DIM_M, DIM_K);
    800005ae:	00002517          	auipc	a0,0x2
    800005b2:	05250513          	addi	a0,a0,82 # 80002600 <A>
    800005b6:	00000097          	auipc	ra,0x0
    800005ba:	0e6080e7          	jalr	230(ra) # 8000069c <print_mat_i8>

00000000800005be <.LBB13_33>:
    800005be:	00002517          	auipc	a0,0x2
    800005c2:	a9d50513          	addi	a0,a0,-1379 # 8000205b <D_i32+0x45b>
    800005c6:	04d00693          	li	a3,77
    800005ca:	100005b7          	lui	a1,0x10000
    800005ce:	0145861b          	addiw	a2,a1,20 # 10000014 <UART0_BASE+0x14>
    800005d2:	00b50713          	addi	a4,a0,11
    return *(volatile uint8_t *)addr;
    800005d6:	00064783          	lbu	a5,0(a2)
    return read_reg_u8(UART_LINE_STATUS) & 0x20;
    800005da:	0207f793          	andi	a5,a5,32
        while (is_transmit_empty() == 0) {};
    800005de:	dfe5                	beqz	a5,800005d6 <.LBB13_33+0x18>
    *loc_addr = value;
    800005e0:	00d58023          	sb	a3,0(a1)
    while (*cur != '\0')
    800005e4:	00154683          	lbu	a3,1(a0)
        ++cur;
    800005e8:	00150793          	addi	a5,a0,1
    800005ec:	853e                	mv	a0,a5
    while (*cur != '\0')
    800005ee:	fee794e3          	bne	a5,a4,800005d6 <.LBB13_33+0x18>

00000000800005f2 <.LBB13_34>:

    print_uart("Matrix B:\r\n");
    print_mat_i8((const int8_t*)B, DIM_K, DIM_N);
    800005f2:	00002517          	auipc	a0,0x2
    800005f6:	10e50513          	addi	a0,a0,270 # 80002700 <B>
    800005fa:	00000097          	auipc	ra,0x0
    800005fe:	0a2080e7          	jalr	162(ra) # 8000069c <print_mat_i8>

0000000080000602 <.LBB13_35>:
    80000602:	00002517          	auipc	a0,0x2
    80000606:	a2250513          	addi	a0,a0,-1502 # 80002024 <D_i32+0x424>
    8000060a:	04300693          	li	a3,67
    8000060e:	100005b7          	lui	a1,0x10000
    80000612:	0145861b          	addiw	a2,a1,20 # 10000014 <UART0_BASE+0x14>
    80000616:	00b50713          	addi	a4,a0,11
    return *(volatile uint8_t *)addr;
    8000061a:	00064783          	lbu	a5,0(a2)
    return read_reg_u8(UART_LINE_STATUS) & 0x20;
    8000061e:	0207f793          	andi	a5,a5,32
        while (is_transmit_empty() == 0) {};
    80000622:	dfe5                	beqz	a5,8000061a <.LBB13_35+0x18>
    *loc_addr = value;
    80000624:	00d58023          	sb	a3,0(a1)
    while (*cur != '\0')
    80000628:	00154683          	lbu	a3,1(a0)
        ++cur;
    8000062c:	00150793          	addi	a5,a0,1
    80000630:	853e                	mv	a0,a5
    while (*cur != '\0')
    80000632:	fee794e3          	bne	a5,a4,8000061a <.LBB13_35+0x18>

0000000080000636 <.LBB13_36>:

    // 打印计算结果 C（int32）
    print_uart("C result:\r\n");
    print_mat_i32(C, DIM_M, DIM_N);
    80000636:	00002517          	auipc	a0,0x2
    8000063a:	24a50513          	addi	a0,a0,586 # 80002880 <C>
    8000063e:	00000097          	auipc	ra,0x0
    80000642:	19a080e7          	jalr	410(ra) # 800007d8 <print_mat_i32>

0000000080000646 <.LBB13_37>:
    80000646:	00002517          	auipc	a0,0x2
    8000064a:	9ea50513          	addi	a0,a0,-1558 # 80002030 <D_i32+0x430>
    8000064e:	04700693          	li	a3,71
    80000652:	100005b7          	lui	a1,0x10000
    80000656:	0145861b          	addiw	a2,a1,20 # 10000014 <UART0_BASE+0x14>
    8000065a:	01750713          	addi	a4,a0,23
    return *(volatile uint8_t *)addr;
    8000065e:	00064783          	lbu	a5,0(a2)
    return read_reg_u8(UART_LINE_STATUS) & 0x20;
    80000662:	0207f793          	andi	a5,a5,32
        while (is_transmit_empty() == 0) {};
    80000666:	dfe5                	beqz	a5,8000065e <.LBB13_37+0x18>
    *loc_addr = value;
    80000668:	00d58023          	sb	a3,0(a1)
    while (*cur != '\0')
    8000066c:	00154683          	lbu	a3,1(a0)
        ++cur;
    80000670:	00150793          	addi	a5,a0,1
    80000674:	853e                	mv	a0,a5
    while (*cur != '\0')
    80000676:	fee794e3          	bne	a5,a4,8000065e <.LBB13_37+0x18>

000000008000067a <.LBB13_38>:

    // 打印 golden D（int32）
    print_uart("Golden D_i32 (int32):\r\n");
    print_mat_i32((const int32_t*)D_i32, DIM_M, DIM_N);
    8000067a:	00001517          	auipc	a0,0x1
    8000067e:	58650513          	addi	a0,a0,1414 # 80001c00 <D_i32>
    80000682:	00000097          	auipc	ra,0x0
    80000686:	156080e7          	jalr	342(ra) # 800007d8 <print_mat_i32>
    // } else {
    //     printf("Compare with D: FAIL, total mismatches=%d\n", mismatch);
    // }


    return 0;
    8000068a:	4501                	li	a0,0
    8000068c:	6a02                	ld	s4,0(sp)
    8000068e:	69a2                	ld	s3,8(sp)
    80000690:	6942                	ld	s2,16(sp)
    80000692:	64e2                	ld	s1,24(sp)
    80000694:	7402                	ld	s0,32(sp)
    80000696:	70a2                	ld	ra,40(sp)
    80000698:	6145                	addi	sp,sp,48
    8000069a:	8082                	ret

000000008000069c <print_mat_i8>:
static void print_mat_i8(const int8_t* m, int rows, int cols) {
    8000069c:	715d                	addi	sp,sp,-80
    8000069e:	e4a2                	sd	s0,72(sp)
    800006a0:	e0a6                	sd	s1,64(sp)
    800006a2:	fc4a                	sd	s2,56(sp)
    800006a4:	f84e                	sd	s3,48(sp)
    800006a6:	f452                	sd	s4,40(sp)
    800006a8:	f056                	sd	s5,32(sp)
    800006aa:	ec5a                	sd	s6,24(sp)
    800006ac:	e85e                	sd	s7,16(sp)
    800006ae:	4281                	li	t0,0
    800006b0:	10000a37          	lui	s4,0x10000
    800006b4:	014a069b          	addiw	a3,s4,20 # 10000014 <UART0_BASE+0x14>
    800006b8:	03000813          	li	a6,48
    800006bc:	4e3d                	li	t3,15
    800006be:	4ec1                	li	t4,16

00000000800006c0 <.LBB14_24>:
    800006c0:	00002897          	auipc	a7,0x2
    800006c4:	95888893          	addi	a7,a7,-1704 # 80002018 <D_i32+0x418>
    800006c8:	00288f13          	addi	t5,a7,2
    800006cc:	02000313          	li	t1,32
    800006d0:	02d00393          	li	t2,45
    800006d4:	8b0a                	mv	s6,sp
    800006d6:	666665b7          	lui	a1,0x66666
    800006da:	66758b9b          	addiw	s7,a1,1639 # 66666667 <UART0_BASE+0x56666667>
    800006de:	4fa9                	li	t6,10
    800006e0:	49c9                	li	s3,18
    800006e2:	4a81                	li	s5,0
    800006e4:	00429913          	slli	s2,t0,0x4
    800006e8:	a021                	j	800006f0 <.LBB14_24+0x30>
    800006ea:	0a85                	addi	s5,s5,1
        for (int c = 0; c < cols; ++c) {
    800006ec:	0bda8963          	beq	s5,t4,8000079e <.LBB14_24+0xde>
            print_dec8(m[r * cols + c]);
    800006f0:	012a85b3          	add	a1,s5,s2
    800006f4:	95aa                	add	a1,a1,a0
    800006f6:	00058483          	lb	s1,0(a1)
    800006fa:	c4ad                	beqz	s1,80000764 <.LBB14_24+0xa4>
    if (v < 0) { uart_putc('-'); v = -v; }
    800006fc:	0804c563          	bltz	s1,80000786 <.LBB14_24+0xc6>
    80000700:	4581                	li	a1,0
    while (v && i < (int)sizeof(buf)) {
    80000702:	cc85                	beqz	s1,8000073a <.LBB14_24+0x7a>
        v /= 10;
    80000704:	0004861b          	sext.w	a2,s1
    80000708:	03760633          	mul	a2,a2,s7
    8000070c:	03f65413          	srli	s0,a2,0x3f
    80000710:	9609                	srai	a2,a2,0x22
    80000712:	9622                	add	a2,a2,s0
    80000714:	03f6043b          	mulw	s0,a2,t6
    80000718:	4084843b          	subw	s0,s1,s0
        buf[i++] = (char)('0' + (v % 10));
    8000071c:	0304041b          	addiw	s0,s0,48
    80000720:	00bb07b3          	add	a5,s6,a1
    while (v && i < (int)sizeof(buf)) {
    80000724:	00f5b713          	sltiu	a4,a1,15
        buf[i++] = (char)('0' + (v % 10));
    80000728:	0585                	addi	a1,a1,1
    while (v && i < (int)sizeof(buf)) {
    8000072a:	24a5                	addiw	s1,s1,9
    8000072c:	0099b4b3          	sltu	s1,s3,s1
    80000730:	8f65                	and	a4,a4,s1
        buf[i++] = (char)('0' + (v % 10));
    80000732:	00878023          	sb	s0,0(a5)
    80000736:	84b2                	mv	s1,a2
    while (v && i < (int)sizeof(buf)) {
    80000738:	f771                	bnez	a4,80000704 <.LBB14_24+0x44>
    while (i--) uart_putc(buf[i]);
    8000073a:	0005849b          	sext.w	s1,a1
    8000073e:	c085                	beqz	s1,8000075e <.LBB14_24+0x9e>
    80000740:	1582                	slli	a1,a1,0x20
    80000742:	9181                	srli	a1,a1,0x20
    80000744:	15fd                	addi	a1,a1,-1
    80000746:	00bb0633          	add	a2,s6,a1
    8000074a:	00064483          	lbu	s1,0(a2)
    return *(volatile uint8_t *)addr;
    8000074e:	0006c603          	lbu	a2,0(a3)
    return read_reg_u8(UART_LINE_STATUS) & 0x20;
    80000752:	02067613          	andi	a2,a2,32
        while (is_transmit_empty() == 0) {};
    80000756:	de65                	beqz	a2,8000074e <.LBB14_24+0x8e>
    *loc_addr = value;
    80000758:	009a0023          	sb	s1,0(s4)
    8000075c:	f5e5                	bnez	a1,80000744 <.LBB14_24+0x84>
            if (c + 1 < cols) uart_putc(' ');
    8000075e:	01ca9c63          	bne	s5,t3,80000776 <.LBB14_24+0xb6>
    80000762:	b761                	j	800006ea <.LBB14_24+0x2a>
    return *(volatile uint8_t *)addr;
    80000764:	0006c583          	lbu	a1,0(a3)
    return read_reg_u8(UART_LINE_STATUS) & 0x20;
    80000768:	0205f593          	andi	a1,a1,32
    8000076c:	dde5                	beqz	a1,80000764 <.LBB14_24+0xa4>
    *loc_addr = value;
    8000076e:	010a0023          	sb	a6,0(s4)
    80000772:	f7ca8ce3          	beq	s5,t3,800006ea <.LBB14_24+0x2a>
    return *(volatile uint8_t *)addr;
    80000776:	0006c583          	lbu	a1,0(a3)
    return read_reg_u8(UART_LINE_STATUS) & 0x20;
    8000077a:	0205f593          	andi	a1,a1,32
        while (is_transmit_empty() == 0) {};
    8000077e:	dde5                	beqz	a1,80000776 <.LBB14_24+0xb6>
    *loc_addr = value;
    80000780:	006a0023          	sb	t1,0(s4)
    80000784:	b79d                	j	800006ea <.LBB14_24+0x2a>
    return *(volatile uint8_t *)addr;
    80000786:	0006c583          	lbu	a1,0(a3)
    return read_reg_u8(UART_LINE_STATUS) & 0x20;
    8000078a:	0205f593          	andi	a1,a1,32
        while (is_transmit_empty() == 0) {};
    8000078e:	dde5                	beqz	a1,80000786 <.LBB14_24+0xc6>
    *loc_addr = value;
    80000790:	007a0023          	sb	t2,0(s4)
    if (v < 0) { uart_putc('-'); v = -v; }
    80000794:	409004b3          	neg	s1,s1
    80000798:	4581                	li	a1,0
    while (v && i < (int)sizeof(buf)) {
    8000079a:	f4ad                	bnez	s1,80000704 <.LBB14_24+0x44>
    8000079c:	bf79                	j	8000073a <.LBB14_24+0x7a>
    8000079e:	45b5                	li	a1,13
    800007a0:	8446                	mv	s0,a7
    return *(volatile uint8_t *)addr;
    800007a2:	0006c483          	lbu	s1,0(a3)
    return read_reg_u8(UART_LINE_STATUS) & 0x20;
    800007a6:	0204f493          	andi	s1,s1,32
        while (is_transmit_empty() == 0) {};
    800007aa:	dce5                	beqz	s1,800007a2 <.LBB14_24+0xe2>
    *loc_addr = value;
    800007ac:	00ba0023          	sb	a1,0(s4)
    while (*cur != '\0')
    800007b0:	00144583          	lbu	a1,1(s0)
        ++cur;
    800007b4:	00140493          	addi	s1,s0,1
    800007b8:	8426                	mv	s0,s1
    while (*cur != '\0')
    800007ba:	ffe494e3          	bne	s1,t5,800007a2 <.LBB14_24+0xe2>
    for (int r = 0; r < rows; ++r) {
    800007be:	0285                	addi	t0,t0,1
    800007c0:	f3d291e3          	bne	t0,t4,800006e2 <.LBB14_24+0x22>
}
    800007c4:	6bc2                	ld	s7,16(sp)
    800007c6:	6b62                	ld	s6,24(sp)
    800007c8:	7a82                	ld	s5,32(sp)
    800007ca:	7a22                	ld	s4,40(sp)
    800007cc:	79c2                	ld	s3,48(sp)
    800007ce:	7962                	ld	s2,56(sp)
    800007d0:	6486                	ld	s1,64(sp)
    800007d2:	6426                	ld	s0,72(sp)
    800007d4:	6161                	addi	sp,sp,80
    800007d6:	8082                	ret

00000000800007d8 <print_mat_i32>:
static void print_mat_i32(const int32_t* m, int rows, int cols) {
    800007d8:	715d                	addi	sp,sp,-80
    800007da:	e4a2                	sd	s0,72(sp)
    800007dc:	e0a6                	sd	s1,64(sp)
    800007de:	fc4a                	sd	s2,56(sp)
    800007e0:	f84e                	sd	s3,48(sp)
    800007e2:	f452                	sd	s4,40(sp)
    800007e4:	f056                	sd	s5,32(sp)
    800007e6:	ec5a                	sd	s6,24(sp)
    800007e8:	e85e                	sd	s7,16(sp)
    800007ea:	4281                	li	t0,0
    800007ec:	10000a37          	lui	s4,0x10000
    800007f0:	014a069b          	addiw	a3,s4,20 # 10000014 <UART0_BASE+0x14>
    800007f4:	03000813          	li	a6,48
    800007f8:	4e3d                	li	t3,15
    800007fa:	4ec1                	li	t4,16

00000000800007fc <.LBB15_24>:
    800007fc:	00002897          	auipc	a7,0x2
    80000800:	81c88893          	addi	a7,a7,-2020 # 80002018 <D_i32+0x418>
    80000804:	00288f13          	addi	t5,a7,2
    80000808:	02000313          	li	t1,32
    8000080c:	02d00393          	li	t2,45
    80000810:	8b0a                	mv	s6,sp
    80000812:	666665b7          	lui	a1,0x66666
    80000816:	66758b9b          	addiw	s7,a1,1639 # 66666667 <UART0_BASE+0x56666667>
    8000081a:	4fa9                	li	t6,10
    8000081c:	49c9                	li	s3,18
    8000081e:	4a81                	li	s5,0
    80000820:	00429913          	slli	s2,t0,0x4
    80000824:	a021                	j	8000082c <.LBB15_24+0x30>
    80000826:	0a85                	addi	s5,s5,1
        for (int c = 0; c < cols; ++c) {
    80000828:	0bda8963          	beq	s5,t4,800008da <.LBB15_24+0xde>
            print_dec32(m[r * cols + c]);
    8000082c:	012a85b3          	add	a1,s5,s2
    80000830:	058a                	slli	a1,a1,0x2
    80000832:	95aa                	add	a1,a1,a0
    80000834:	4184                	lw	s1,0(a1)
    80000836:	c4ad                	beqz	s1,800008a0 <.LBB15_24+0xa4>
    if (v < 0) { uart_putc('-'); v = -v; }
    80000838:	0804c563          	bltz	s1,800008c2 <.LBB15_24+0xc6>
    8000083c:	4581                	li	a1,0
    while (v && i < (int)sizeof(buf)) {
    8000083e:	cc85                	beqz	s1,80000876 <.LBB15_24+0x7a>
        v /= 10;
    80000840:	0004861b          	sext.w	a2,s1
    80000844:	03760633          	mul	a2,a2,s7
    80000848:	03f65413          	srli	s0,a2,0x3f
    8000084c:	9609                	srai	a2,a2,0x22
    8000084e:	9622                	add	a2,a2,s0
    80000850:	03f6043b          	mulw	s0,a2,t6
    80000854:	4084843b          	subw	s0,s1,s0
        buf[i++] = (char)('0' + (v % 10));
    80000858:	0304041b          	addiw	s0,s0,48
    8000085c:	00bb07b3          	add	a5,s6,a1
    while (v && i < (int)sizeof(buf)) {
    80000860:	00f5b713          	sltiu	a4,a1,15
        buf[i++] = (char)('0' + (v % 10));
    80000864:	0585                	addi	a1,a1,1
    while (v && i < (int)sizeof(buf)) {
    80000866:	24a5                	addiw	s1,s1,9
    80000868:	0099b4b3          	sltu	s1,s3,s1
    8000086c:	8f65                	and	a4,a4,s1
        buf[i++] = (char)('0' + (v % 10));
    8000086e:	00878023          	sb	s0,0(a5)
    80000872:	84b2                	mv	s1,a2
    while (v && i < (int)sizeof(buf)) {
    80000874:	f771                	bnez	a4,80000840 <.LBB15_24+0x44>
    while (i--) uart_putc(buf[i]);
    80000876:	0005849b          	sext.w	s1,a1
    8000087a:	c085                	beqz	s1,8000089a <.LBB15_24+0x9e>
    8000087c:	1582                	slli	a1,a1,0x20
    8000087e:	9181                	srli	a1,a1,0x20
    80000880:	15fd                	addi	a1,a1,-1
    80000882:	00bb0633          	add	a2,s6,a1
    80000886:	00064483          	lbu	s1,0(a2)
    return *(volatile uint8_t *)addr;
    8000088a:	0006c603          	lbu	a2,0(a3)
    return read_reg_u8(UART_LINE_STATUS) & 0x20;
    8000088e:	02067613          	andi	a2,a2,32
        while (is_transmit_empty() == 0) {};
    80000892:	de65                	beqz	a2,8000088a <.LBB15_24+0x8e>
    *loc_addr = value;
    80000894:	009a0023          	sb	s1,0(s4)
    80000898:	f5e5                	bnez	a1,80000880 <.LBB15_24+0x84>
            if (c + 1 < cols) uart_putc(' ');
    8000089a:	01ca9c63          	bne	s5,t3,800008b2 <.LBB15_24+0xb6>
    8000089e:	b761                	j	80000826 <.LBB15_24+0x2a>
    return *(volatile uint8_t *)addr;
    800008a0:	0006c583          	lbu	a1,0(a3)
    return read_reg_u8(UART_LINE_STATUS) & 0x20;
    800008a4:	0205f593          	andi	a1,a1,32
    800008a8:	dde5                	beqz	a1,800008a0 <.LBB15_24+0xa4>
    *loc_addr = value;
    800008aa:	010a0023          	sb	a6,0(s4)
    800008ae:	f7ca8ce3          	beq	s5,t3,80000826 <.LBB15_24+0x2a>
    return *(volatile uint8_t *)addr;
    800008b2:	0006c583          	lbu	a1,0(a3)
    return read_reg_u8(UART_LINE_STATUS) & 0x20;
    800008b6:	0205f593          	andi	a1,a1,32
        while (is_transmit_empty() == 0) {};
    800008ba:	dde5                	beqz	a1,800008b2 <.LBB15_24+0xb6>
    *loc_addr = value;
    800008bc:	006a0023          	sb	t1,0(s4)
    800008c0:	b79d                	j	80000826 <.LBB15_24+0x2a>
    return *(volatile uint8_t *)addr;
    800008c2:	0006c583          	lbu	a1,0(a3)
    return read_reg_u8(UART_LINE_STATUS) & 0x20;
    800008c6:	0205f593          	andi	a1,a1,32
        while (is_transmit_empty() == 0) {};
    800008ca:	dde5                	beqz	a1,800008c2 <.LBB15_24+0xc6>
    *loc_addr = value;
    800008cc:	007a0023          	sb	t2,0(s4)
    if (v < 0) { uart_putc('-'); v = -v; }
    800008d0:	409004bb          	negw	s1,s1
    800008d4:	4581                	li	a1,0
    while (v && i < (int)sizeof(buf)) {
    800008d6:	f4ad                	bnez	s1,80000840 <.LBB15_24+0x44>
    800008d8:	bf79                	j	80000876 <.LBB15_24+0x7a>
    800008da:	45b5                	li	a1,13
    800008dc:	8446                	mv	s0,a7
    return *(volatile uint8_t *)addr;
    800008de:	0006c483          	lbu	s1,0(a3)
    return read_reg_u8(UART_LINE_STATUS) & 0x20;
    800008e2:	0204f493          	andi	s1,s1,32
        while (is_transmit_empty() == 0) {};
    800008e6:	dce5                	beqz	s1,800008de <.LBB15_24+0xe2>
    *loc_addr = value;
    800008e8:	00ba0023          	sb	a1,0(s4)
    while (*cur != '\0')
    800008ec:	00144583          	lbu	a1,1(s0)
        ++cur;
    800008f0:	00140493          	addi	s1,s0,1
    800008f4:	8426                	mv	s0,s1
    while (*cur != '\0')
    800008f6:	ffe494e3          	bne	s1,t5,800008de <.LBB15_24+0xe2>
    for (int r = 0; r < rows; ++r) {
    800008fa:	0285                	addi	t0,t0,1
    800008fc:	f3d291e3          	bne	t0,t4,8000081e <.LBB15_24+0x22>
}
    80000900:	6bc2                	ld	s7,16(sp)
    80000902:	6b62                	ld	s6,24(sp)
    80000904:	7a82                	ld	s5,32(sp)
    80000906:	7a22                	ld	s4,40(sp)
    80000908:	79c2                	ld	s3,48(sp)
    8000090a:	7962                	ld	s2,56(sp)
    8000090c:	6486                	ld	s1,64(sp)
    8000090e:	6426                	ld	s0,72(sp)
    80000910:	6161                	addi	sp,sp,80
    80000912:	8082                	ret

0000000080000914 <setStats>:
    uintptr_t csr = read_csr(name); \
    if (!enable) { csr -= counters[i]; counter_names[i] = #name; } \
    counters[i++] = csr; \
  } while (0)

  READ_CTR(mcycle);
    80000914:	b0002673          	csrr	a2,mcycle
    80000918:	00153593          	seqz	a1,a0

000000008000091c <.LBB0_5>:
    8000091c:	00002697          	auipc	a3,0x2
    80000920:	36468693          	addi	a3,a3,868 # 80002c80 <counters.0>
    80000924:	ed01                	bnez	a0,8000093c <.LBB0_7+0xa>
    80000926:	6288                	ld	a0,0(a3)
    80000928:	8e09                	sub	a2,a2,a0

000000008000092a <.LBB0_6>:
    8000092a:	00002517          	auipc	a0,0x2
    8000092e:	37e50513          	addi	a0,a0,894 # 80002ca8 <counter_names>

0000000080000932 <.LBB0_7>:
    80000932:	00001717          	auipc	a4,0x1
    80000936:	72270713          	addi	a4,a4,1826 # 80002054 <D_i32+0x454>
    8000093a:	e118                	sd	a4,0(a0)
    8000093c:	e290                	sd	a2,0(a3)
  READ_CTR(minstret);
    8000093e:	b0202573          	csrr	a0,minstret

0000000080000942 <.LBB0_8>:
    80000942:	00002617          	auipc	a2,0x2
    80000946:	34660613          	addi	a2,a2,838 # 80002c88 <counters.1>
    8000094a:	e199                	bnez	a1,80000950 <.LBB0_8+0xe>
    8000094c:	e208                	sd	a0,0(a2)

#undef READ_CTR
}
    8000094e:	8082                	ret
  READ_CTR(minstret);
    80000950:	620c                	ld	a1,0(a2)
    80000952:	8d0d                	sub	a0,a0,a1

0000000080000954 <.LBB0_9>:
    80000954:	00001597          	auipc	a1,0x1
    80000958:	6c758593          	addi	a1,a1,1735 # 8000201b <D_i32+0x41b>

000000008000095c <.LBB0_10>:
    8000095c:	00002697          	auipc	a3,0x2
    80000960:	34c68693          	addi	a3,a3,844 # 80002ca8 <counter_names>
    80000964:	e68c                	sd	a1,8(a3)
    80000966:	e208                	sd	a0,0(a2)
}
    80000968:	8082                	ret

000000008000096a <tohost_exit>:
  } while(pos < end_signature);
}

void __attribute__((noreturn)) tohost_exit(uintptr_t code)
{
  tohost = (code << 1) | 1;
    8000096a:	0506                	slli	a0,a0,0x1
    8000096c:	00156513          	ori	a0,a0,1

0000000080000970 <.LBB1_2>:
    80000970:	00002597          	auipc	a1,0x2
    80000974:	e9058593          	addi	a1,a1,-368 # 80002800 <_matB_end>
    80000978:	e188                	sd	a0,0(a1)
  while (1);
    8000097a:	a001                	j	8000097a <.LBB1_2+0xa>

000000008000097c <.LBB2_2>:
  tohost = (code << 1) | 1;
    8000097c:	00002517          	auipc	a0,0x2
    80000980:	e8450513          	addi	a0,a0,-380 # 80002800 <_matB_end>
    80000984:	6585                	lui	a1,0x1
    80000986:	a735859b          	addiw	a1,a1,-1421 # a73 <putchar.buflen+0xa33>
    8000098a:	e10c                	sd	a1,0(a0)
  while (1);
    8000098c:	a001                	j	8000098c <.LBB2_2+0x10>

000000008000098e <exit>:
}

void exit(int code)
{
  //flush_signature_cachelines();
  asm("ecall");
    8000098e:	00000073          	ecall
  tohost = (code << 1) | 1;
    80000992:	0506                	slli	a0,a0,0x1
    80000994:	00156513          	ori	a0,a0,1

0000000080000998 <.LBB3_2>:
    80000998:	00002597          	auipc	a1,0x2
    8000099c:	e6858593          	addi	a1,a1,-408 # 80002800 <_matB_end>
    800009a0:	e188                	sd	a0,0(a1)
  while (1);
    800009a2:	a001                	j	800009a2 <.LBB3_2+0xa>

00000000800009a4 <abort>:
  asm("ecall");
    800009a4:	00000073          	ecall

00000000800009a8 <.LBB4_2>:
  tohost = (code << 1) | 1;
    800009a8:	00002517          	auipc	a0,0x2
    800009ac:	e5850513          	addi	a0,a0,-424 # 80002800 <_matB_end>
    800009b0:	10d00593          	li	a1,269
    800009b4:	e10c                	sd	a1,0(a0)
  while (1);
    800009b6:	a001                	j	800009b6 <.LBB4_2+0xe>

00000000800009b8 <printstr>:
{
  exit(128 + SIGABRT);
}

void printstr(const char* s)
{
    800009b8:	7119                	addi	sp,sp,-128
    800009ba:	fc86                	sd	ra,120(sp)
    800009bc:	f8a2                	sd	s0,112(sp)
    800009be:	0100                	addi	s0,sp,128
    800009c0:	fc017113          	andi	sp,sp,-64
    800009c4:	4581                	li	a1,0
}

size_t strlen(const char *s)
{
  const char *p = s;
  while (*p)
    800009c6:	00b50633          	add	a2,a0,a1
    800009ca:	00064603          	lbu	a2,0(a2)
    800009ce:	0585                	addi	a1,a1,1
    800009d0:	fa7d                	bnez	a2,800009c6 <printstr+0xe>
  volatile uint64_t magic_mem[8] __attribute__((aligned(64)));
    800009d2:	15fd                	addi	a1,a1,-1
    800009d4:	04000613          	li	a2,64
  magic_mem[0] = which;
    800009d8:	e032                	sd	a2,0(sp)
    800009da:	4605                	li	a2,1
  magic_mem[1] = arg0;
    800009dc:	e432                	sd	a2,8(sp)
  magic_mem[2] = arg1;
    800009de:	e82a                	sd	a0,16(sp)
  magic_mem[3] = arg2;
    800009e0:	ec2e                	sd	a1,24(sp)
  __sync_synchronize();
    800009e2:	0330000f          	fence	rw,rw

00000000800009e6 <.LBB5_5>:
  tohost = (uintptr_t)magic_mem;
    800009e6:	00002517          	auipc	a0,0x2
    800009ea:	e1a50513          	addi	a0,a0,-486 # 80002800 <_matB_end>
    800009ee:	858a                	mv	a1,sp
    800009f0:	e10c                	sd	a1,0(a0)

00000000800009f2 <.LBB5_6>:
    800009f2:	00002517          	auipc	a0,0x2
    800009f6:	e4e50513          	addi	a0,a0,-434 # 80002840 <fromhost>
  while (fromhost == 0)
    800009fa:	610c                	ld	a1,0(a0)
    800009fc:	ddfd                	beqz	a1,800009fa <.LBB5_6+0x8>
  fromhost = 0;
    800009fe:	00053023          	sd	zero,0(a0)
  __sync_synchronize();
    80000a02:	0330000f          	fence	rw,rw
  return magic_mem[0];
    80000a06:	6502                	ld	a0,0(sp)
}
    80000a08:	f8040113          	addi	sp,s0,-128
    80000a0c:	7446                	ld	s0,112(sp)
    80000a0e:	70e6                	ld	ra,120(sp)
    80000a10:	6109                	addi	sp,sp,128
    80000a12:	8082                	ret

0000000080000a14 <strlen>:
{
    80000a14:	4581                	li	a1,0
  while (*p)
    80000a16:	00b50633          	add	a2,a0,a1
    80000a1a:	00064603          	lbu	a2,0(a2)
    80000a1e:	0585                	addi	a1,a1,1
    80000a20:	fa7d                	bnez	a2,80000a16 <strlen+0x2>
    p++;
  return p - s;
    80000a22:	fff58513          	addi	a0,a1,-1
    80000a26:	8082                	ret

0000000080000a28 <thread_entry>:
  while (cid != 0);
    80000a28:	c111                	beqz	a0,80000a2c <thread_entry+0x4>
    80000a2a:	a001                	j	80000a2a <thread_entry+0x2>
}
    80000a2c:	8082                	ret
{
    80000a2e:	7119                	addi	sp,sp,-128
    80000a30:	fc86                	sd	ra,120(sp)
    80000a32:	f8a2                	sd	s0,112(sp)
    80000a34:	0100                	addi	s0,sp,128
    80000a36:	fc017113          	andi	sp,sp,-64
    80000a3a:	04000513          	li	a0,64
  magic_mem[0] = which;
    80000a3e:	e02a                	sd	a0,0(sp)
    80000a40:	4505                	li	a0,1
  magic_mem[1] = arg0;
    80000a42:	e42a                	sd	a0,8(sp)

0000000080000a44 <.LBB8_3>:
  magic_mem[2] = arg1;
    80000a44:	00001517          	auipc	a0,0x1
    80000a48:	5bc50513          	addi	a0,a0,1468 # 80002000 <D_i32+0x400>
    80000a4c:	e82a                	sd	a0,16(sp)
    80000a4e:	455d                	li	a0,23
  magic_mem[3] = arg2;
    80000a50:	ec2a                	sd	a0,24(sp)
  __sync_synchronize();
    80000a52:	0330000f          	fence	rw,rw

0000000080000a56 <.LBB8_4>:
  tohost = (uintptr_t)magic_mem;
    80000a56:	00002517          	auipc	a0,0x2
    80000a5a:	daa50513          	addi	a0,a0,-598 # 80002800 <_matB_end>
    80000a5e:	858a                	mv	a1,sp
    80000a60:	e10c                	sd	a1,0(a0)

0000000080000a62 <.LBB8_5>:
    80000a62:	00002517          	auipc	a0,0x2
    80000a66:	dde50513          	addi	a0,a0,-546 # 80002840 <fromhost>
  while (fromhost == 0)
    80000a6a:	610c                	ld	a1,0(a0)
    80000a6c:	ddfd                	beqz	a1,80000a6a <.LBB8_5+0x8>
  fromhost = 0;
    80000a6e:	00053023          	sd	zero,0(a0)
  __sync_synchronize();
    80000a72:	0330000f          	fence	rw,rw
  return magic_mem[0];
    80000a76:	6502                	ld	a0,0(sp)
  return -1;
    80000a78:	557d                	li	a0,-1
    80000a7a:	f8040113          	addi	sp,s0,-128
    80000a7e:	7446                	ld	s0,112(sp)
    80000a80:	70e6                	ld	ra,120(sp)
    80000a82:	6109                	addi	sp,sp,128
    80000a84:	8082                	ret

0000000080000a86 <_init>:
{
    80000a86:	1141                	addi	sp,sp,-16
  asm volatile("mv %0, tp" : "=r"(thread_pointer));
    80000a88:	e406                	sd	ra,8(sp)
    80000a8a:	8292                	mv	t0,tp

0000000080000a8c <.LBB9_14>:
  if ((((uintptr_t)dest | (uintptr_t)src | len) & (sizeof(uintptr_t)-1)) == 0) {
    80000a8c:	00002797          	auipc	a5,0x2
    80000a90:	32c78793          	addi	a5,a5,812 # 80002db8 <_tdata_begin>

0000000080000a94 <.LBB9_15>:
    80000a94:	00002817          	auipc	a6,0x2
    80000a98:	32480813          	addi	a6,a6,804 # 80002db8 <_tdata_begin>
    80000a9c:	40f80733          	sub	a4,a6,a5
    80000aa0:	005766b3          	or	a3,a4,t0
    80000aa4:	8edd                	or	a3,a3,a5
    80000aa6:	0076f893          	andi	a7,a3,7
    80000aaa:	00e28333          	add	t1,t0,a4
    80000aae:	02088063          	beqz	a7,80000ace <.LBB9_15+0x3a>
    while (d < (char*)(dest + len))
    80000ab2:	0262fd63          	bgeu	t0,t1,80000aec <.LBB9_17>
    80000ab6:	8696                	mv	a3,t0
      *d++ = *s++;
    80000ab8:	00078603          	lb	a2,0(a5)
    80000abc:	0785                	addi	a5,a5,1
    80000abe:	00168893          	addi	a7,a3,1
    while (d < (char*)(dest + len))
    80000ac2:	177d                	addi	a4,a4,-1
      *d++ = *s++;
    80000ac4:	00c68023          	sb	a2,0(a3)
    80000ac8:	86c6                	mv	a3,a7
    80000aca:	f77d                	bnez	a4,80000ab8 <.LBB9_15+0x24>
    80000acc:	a005                	j	80000aec <.LBB9_17>
    while (d < (uintptr_t*)(dest + len))
    80000ace:	0062ff63          	bgeu	t0,t1,80000aec <.LBB9_17>

0000000080000ad2 <.LBB9_16>:
    80000ad2:	00002797          	auipc	a5,0x2
    80000ad6:	2e678793          	addi	a5,a5,742 # 80002db8 <_tdata_begin>
    80000ada:	8716                	mv	a4,t0
      *d++ = *s++;
    80000adc:	6390                	ld	a2,0(a5)
    80000ade:	07a1                	addi	a5,a5,8
    80000ae0:	00870693          	addi	a3,a4,8
    80000ae4:	e310                	sd	a2,0(a4)
    80000ae6:	8736                	mv	a4,a3
    while (d < (uintptr_t*)(dest + len))
    80000ae8:	fe66eae3          	bltu	a3,t1,80000adc <.LBB9_16+0xa>

0000000080000aec <.LBB9_17>:
  memset(thread_pointer + tdata_size, 0, tbss_size);
    80000aec:	00002897          	auipc	a7,0x2
    80000af0:	2cc88893          	addi	a7,a7,716 # 80002db8 <_tdata_begin>
    80000af4:	411806b3          	sub	a3,a6,a7
    80000af8:	00d28733          	add	a4,t0,a3

0000000080000afc <.LBB9_18>:
  if ((((uintptr_t)dest | len) & (sizeof(uintptr_t)-1)) == 0) {
    80000afc:	00002797          	auipc	a5,0x2
    80000b00:	30878793          	addi	a5,a5,776 # 80002e04 <_end>
    80000b04:	410786b3          	sub	a3,a5,a6
    80000b08:	00d76633          	or	a2,a4,a3
    80000b0c:	00767813          	andi	a6,a2,7
    80000b10:	41178633          	sub	a2,a5,a7
    80000b14:	9616                	add	a2,a2,t0
    80000b16:	00080c63          	beqz	a6,80000b2e <.LBB9_18+0x32>
    while (d < (char*)(dest + len))
    80000b1a:	02c77363          	bgeu	a4,a2,80000b40 <.LBB9_18+0x44>
      *d++ = byte;
    80000b1e:	00170613          	addi	a2,a4,1
    while (d < (char*)(dest + len))
    80000b22:	16fd                	addi	a3,a3,-1
      *d++ = byte;
    80000b24:	00070023          	sb	zero,0(a4)
    80000b28:	8732                	mv	a4,a2
    80000b2a:	faf5                	bnez	a3,80000b1e <.LBB9_18+0x22>
    80000b2c:	a811                	j	80000b40 <.LBB9_18+0x44>
    while (d < (uintptr_t*)(dest + len))
    80000b2e:	00c77963          	bgeu	a4,a2,80000b40 <.LBB9_18+0x44>
      *d++ = word;
    80000b32:	00870693          	addi	a3,a4,8
    80000b36:	00073023          	sd	zero,0(a4)
    80000b3a:	8736                	mv	a4,a3
    while (d < (uintptr_t*)(dest + len))
    80000b3c:	fec6ebe3          	bltu	a3,a2,80000b32 <.LBB9_18+0x36>
  thread_entry(cid, nc);
    80000b40:	00000097          	auipc	ra,0x0
    80000b44:	ee8080e7          	jalr	-280(ra) # 80000a28 <thread_entry>
  int ret = main(0, 0);
    80000b48:	4501                	li	a0,0
    80000b4a:	4581                	li	a1,0
    80000b4c:	00000097          	auipc	ra,0x0
    80000b50:	8bc080e7          	jalr	-1860(ra) # 80000408 <main>
  asm("ecall");
    80000b54:	00000073          	ecall
  tohost = (code << 1) | 1;
    80000b58:	0506                	slli	a0,a0,0x1
    80000b5a:	00156513          	ori	a0,a0,1

0000000080000b5e <.LBB9_19>:
    80000b5e:	00002597          	auipc	a1,0x2
    80000b62:	ca258593          	addi	a1,a1,-862 # 80002800 <_matB_end>
    80000b66:	e188                	sd	a0,0(a1)
  while (1);
    80000b68:	a001                	j	80000b68 <.LBB9_19+0xa>

0000000080000b6a <putchar>:
{
    80000b6a:	7119                	addi	sp,sp,-128
  buf[buflen++] = ch;
    80000b6c:	fc86                	sd	ra,120(sp)
    80000b6e:	f8a2                	sd	s0,112(sp)
    80000b70:	0100                	addi	s0,sp,128
    80000b72:	fc017113          	andi	sp,sp,-64
    80000b76:	000005b7          	lui	a1,0x0
    80000b7a:	00458633          	add	a2,a1,tp
    80000b7e:	04062683          	lw	a3,64(a2)
    80000b82:	0016859b          	addiw	a1,a3,1
    80000b86:	fc058713          	addi	a4,a1,-64 # ffffffffffffffc0 <_end+0xffffffff7fffd1bc>
    80000b8a:	00173713          	seqz	a4,a4
    80000b8e:	04b62023          	sw	a1,64(a2)
  if (ch == '\n' || buflen == sizeof(buf))
    80000b92:	ff650613          	addi	a2,a0,-10
    80000b96:	00163613          	seqz	a2,a2
    80000b9a:	8f51                	or	a4,a4,a2
  buf[buflen++] = ch;
    80000b9c:	00000637          	lui	a2,0x0
    80000ba0:	00460633          	add	a2,a2,tp
    80000ba4:	00060613          	mv	a2,a2
    80000ba8:	96b2                	add	a3,a3,a2
    80000baa:	00a68023          	sb	a0,0(a3)
  if (ch == '\n' || buflen == sizeof(buf))
    80000bae:	c329                	beqz	a4,80000bf0 <.LBB10_6+0x22>
    80000bb0:	04000513          	li	a0,64
  magic_mem[0] = which;
    80000bb4:	e02a                	sd	a0,0(sp)
    80000bb6:	4505                	li	a0,1
  magic_mem[1] = arg0;
    80000bb8:	e42a                	sd	a0,8(sp)
  magic_mem[2] = arg1;
    80000bba:	e832                	sd	a2,16(sp)
  magic_mem[3] = arg2;
    80000bbc:	ec2e                	sd	a1,24(sp)
  __sync_synchronize();
    80000bbe:	0330000f          	fence	rw,rw

0000000080000bc2 <.LBB10_5>:
  tohost = (uintptr_t)magic_mem;
    80000bc2:	00002517          	auipc	a0,0x2
    80000bc6:	c3e50513          	addi	a0,a0,-962 # 80002800 <_matB_end>
    80000bca:	858a                	mv	a1,sp
    80000bcc:	e10c                	sd	a1,0(a0)

0000000080000bce <.LBB10_6>:
    80000bce:	00002517          	auipc	a0,0x2
    80000bd2:	c7250513          	addi	a0,a0,-910 # 80002840 <fromhost>
  while (fromhost == 0)
    80000bd6:	610c                	ld	a1,0(a0)
    80000bd8:	ddfd                	beqz	a1,80000bd6 <.LBB10_6+0x8>
  fromhost = 0;
    80000bda:	00053023          	sd	zero,0(a0)
  __sync_synchronize();
    80000bde:	0330000f          	fence	rw,rw
  return magic_mem[0];
    80000be2:	6502                	ld	a0,0(sp)
    buflen = 0;
    80000be4:	00000537          	lui	a0,0x0
    80000be8:	00450533          	add	a0,a0,tp
    80000bec:	04052023          	sw	zero,64(a0) # 40 <putchar.buflen>
  return 0;
    80000bf0:	4501                	li	a0,0
    80000bf2:	f8040113          	addi	sp,s0,-128
    80000bf6:	7446                	ld	s0,112(sp)
    80000bf8:	70e6                	ld	ra,120(sp)
    80000bfa:	6109                	addi	sp,sp,128
    80000bfc:	8082                	ret

0000000080000bfe <printhex>:
{
    80000bfe:	7131                	addi	sp,sp,-192
    80000c00:	fd06                	sd	ra,184(sp)
    80000c02:	f922                	sd	s0,176(sp)
    80000c04:	0180                	addi	s0,sp,192
    80000c06:	fc017113          	andi	sp,sp,-64
    80000c0a:	45bd                	li	a1,15
    80000c0c:	4829                	li	a6,10
    80000c0e:	02f10693          	addi	a3,sp,47
    80000c12:	577d                	li	a4,-1
    80000c14:	a811                	j	80000c28 <printhex+0x2a>
    str[15-i] = (x & 0xF) + ((x & 0xF) < 10 ? '0' : 'a'-10);
    80000c16:	9e3d                	addw	a2,a2,a5
    80000c18:	00b687b3          	add	a5,a3,a1
    80000c1c:	00c78023          	sb	a2,0(a5)
  for (i = 0; i < 16; i++)
    80000c20:	15fd                	addi	a1,a1,-1
    x >>= 4;
    80000c22:	8111                	srli	a0,a0,0x4
  for (i = 0; i < 16; i++)
    80000c24:	00e58b63          	beq	a1,a4,80000c3a <printhex+0x3c>
    str[15-i] = (x & 0xF) + ((x & 0xF) < 10 ? '0' : 'a'-10);
    80000c28:	00f57793          	andi	a5,a0,15
    80000c2c:	03000613          	li	a2,48
    80000c30:	ff07e3e3          	bltu	a5,a6,80000c16 <printhex+0x18>
    80000c34:	05700613          	li	a2,87
    80000c38:	bff9                	j	80000c16 <printhex+0x18>
    80000c3a:	4501                	li	a0,0
  str[16] = 0;
    80000c3c:	02010fa3          	sb	zero,63(sp)
    80000c40:	02f10593          	addi	a1,sp,47
  while (*p)
    80000c44:	00a58633          	add	a2,a1,a0
    80000c48:	00064603          	lbu	a2,0(a2) # 0 <putchar.buf>
    80000c4c:	0505                	addi	a0,a0,1
    80000c4e:	fa7d                	bnez	a2,80000c44 <printhex+0x46>
  volatile uint64_t magic_mem[8] __attribute__((aligned(64)));
    80000c50:	157d                	addi	a0,a0,-1
    80000c52:	04000593          	li	a1,64
  magic_mem[0] = which;
    80000c56:	e0ae                	sd	a1,64(sp)
    80000c58:	4585                	li	a1,1
  magic_mem[1] = arg0;
    80000c5a:	e4ae                	sd	a1,72(sp)
    80000c5c:	02f10593          	addi	a1,sp,47
  magic_mem[2] = arg1;
    80000c60:	e8ae                	sd	a1,80(sp)
  magic_mem[3] = arg2;
    80000c62:	ecaa                	sd	a0,88(sp)
  __sync_synchronize();
    80000c64:	0330000f          	fence	rw,rw

0000000080000c68 <.LBB11_9>:
  tohost = (uintptr_t)magic_mem;
    80000c68:	00002517          	auipc	a0,0x2
    80000c6c:	b9850513          	addi	a0,a0,-1128 # 80002800 <_matB_end>
    80000c70:	008c                	addi	a1,sp,64
    80000c72:	e10c                	sd	a1,0(a0)

0000000080000c74 <.LBB11_10>:
    80000c74:	00002517          	auipc	a0,0x2
    80000c78:	bcc50513          	addi	a0,a0,-1076 # 80002840 <fromhost>
  while (fromhost == 0)
    80000c7c:	610c                	ld	a1,0(a0)
    80000c7e:	ddfd                	beqz	a1,80000c7c <.LBB11_10+0x8>
  fromhost = 0;
    80000c80:	00053023          	sd	zero,0(a0)
  __sync_synchronize();
    80000c84:	0330000f          	fence	rw,rw
  return magic_mem[0];
    80000c88:	6506                	ld	a0,64(sp)
}
    80000c8a:	f4040113          	addi	sp,s0,-192
    80000c8e:	744a                	ld	s0,176(sp)
    80000c90:	70ea                	ld	ra,184(sp)
    80000c92:	6129                	addi	sp,sp,192
    80000c94:	8082                	ret

0000000080000c96 <printf>:
{
    80000c96:	715d                	addi	sp,sp,-80
    80000c98:	e406                	sd	ra,8(sp)
    80000c9a:	82aa                	mv	t0,a0
    80000c9c:	e4c6                	sd	a7,72(sp)
    80000c9e:	e0c2                	sd	a6,64(sp)
    80000ca0:	fc3e                	sd	a5,56(sp)
    80000ca2:	f83a                	sd	a4,48(sp)
    80000ca4:	f436                	sd	a3,40(sp)
    80000ca6:	f032                	sd	a2,32(sp)
    80000ca8:	ec2e                	sd	a1,24(sp)
    80000caa:	0828                	addi	a0,sp,24
  va_start(ap, fmt);
    80000cac:	e02a                	sd	a0,0(sp)

0000000080000cae <.LBB12_1>:
  vprintfmt((void*)putchar, 0, fmt, ap);
    80000cae:	00000517          	auipc	a0,0x0
    80000cb2:	ebc50513          	addi	a0,a0,-324 # 80000b6a <putchar>
    80000cb6:	0834                	addi	a3,sp,24
    80000cb8:	4581                	li	a1,0
    80000cba:	8616                	mv	a2,t0
    80000cbc:	00000097          	auipc	ra,0x0
    80000cc0:	010080e7          	jalr	16(ra) # 80000ccc <vprintfmt>
  return 0; // incorrect return value, but who cares, anyway?
    80000cc4:	4501                	li	a0,0
    80000cc6:	60a2                	ld	ra,8(sp)
    80000cc8:	6161                	addi	sp,sp,80
    80000cca:	8082                	ret

0000000080000ccc <vprintfmt>:
{
    80000ccc:	7149                	addi	sp,sp,-368
    80000cce:	f686                	sd	ra,360(sp)
    80000cd0:	f2a2                	sd	s0,352(sp)
    80000cd2:	eea6                	sd	s1,344(sp)
    80000cd4:	eaca                	sd	s2,336(sp)
    80000cd6:	e6ce                	sd	s3,328(sp)
    80000cd8:	e2d2                	sd	s4,320(sp)
    80000cda:	fe56                	sd	s5,312(sp)
    80000cdc:	fa5a                	sd	s6,304(sp)
    80000cde:	f65e                	sd	s7,296(sp)
    80000ce0:	f262                	sd	s8,288(sp)
    80000ce2:	ee66                	sd	s9,280(sp)
    80000ce4:	ea6a                	sd	s10,272(sp)
    80000ce6:	e66e                	sd	s11,264(sp)
    80000ce8:	84b6                	mv	s1,a3
    80000cea:	89b2                	mv	s3,a2
    80000cec:	8aae                	mv	s5,a1
    80000cee:	8d2a                	mv	s10,a0
    80000cf0:	02500c13          	li	s8,37

0000000080000cf4 <.LBB13_63>:
    80000cf4:	00001517          	auipc	a0,0x1
    80000cf8:	37c50513          	addi	a0,a0,892 # 80002070 <.LJTI13_0>
    80000cfc:	e02a                	sd	a0,0(sp)
    80000cfe:	4da9                	li	s11,10
    80000d00:	4b25                	li	s6,9
    80000d02:	4b85                	li	s7,1
    while ((ch = *(unsigned char *) fmt) != '%') {
    80000d04:	00198413          	addi	s0,s3,1
    80000d08:	fff44503          	lbu	a0,-1(s0)
    80000d0c:	01850b63          	beq	a0,s8,80000d22 <.LBB13_63+0x2e>
    80000d10:	24050463          	beqz	a0,80000f58 <.LBB13_43+0xb8>
      putch(ch, putdat);
    80000d14:	85d6                	mv	a1,s5
    80000d16:	9d02                	jalr	s10
    while ((ch = *(unsigned char *) fmt) != '%') {
    80000d18:	0405                	addi	s0,s0,1
    80000d1a:	fff44503          	lbu	a0,-1(s0)
    80000d1e:	ff8519e3          	bne	a0,s8,80000d10 <.LBB13_63+0x1c>
    80000d22:	8a26                	mv	s4,s1
    80000d24:	4501                	li	a0,0
    80000d26:	02000813          	li	a6,32
    80000d2a:	5cfd                	li	s9,-1
    80000d2c:	597d                	li	s2,-1
    80000d2e:	89a2                	mv	s3,s0
    80000d30:	05500793          	li	a5,85
    80000d34:	6482                	ld	s1,0(sp)

0000000080000d36 <.LBB13_5>:
    switch (ch = *(unsigned char *) fmt++) {
    80000d36:	0009c583          	lbu	a1,0(s3)
    80000d3a:	fdd58693          	addi	a3,a1,-35
    80000d3e:	06d7e363          	bltu	a5,a3,80000da4 <.LBB13_16>
    80000d42:	864e                	mv	a2,s3
    80000d44:	068e                	slli	a3,a3,0x3
    80000d46:	96a6                	add	a3,a3,s1
    80000d48:	6294                	ld	a3,0(a3)
    80000d4a:	0985                	addi	s3,s3,1
    80000d4c:	8682                	jr	a3

0000000080000d4e <.LBB13_7>:
    80000d4e:	4c81                	li	s9,0
    80000d50:	0ff5f693          	zext.b	a3,a1
        ch = *fmt;
    80000d54:	00164583          	lbu	a1,1(a2)
    80000d58:	0605                	addi	a2,a2,1
        precision = precision * 10 + ch - '0';
    80000d5a:	03bc873b          	mulw	a4,s9,s11
    80000d5e:	9eb9                	addw	a3,a3,a4
        if (ch < '0' || ch > '9')
    80000d60:	fd058713          	addi	a4,a1,-48
    80000d64:	0ff77713          	zext.b	a4,a4
        precision = precision * 10 + ch - '0';
    80000d68:	fd068c9b          	addiw	s9,a3,-48
        if (ch < '0' || ch > '9')
    80000d6c:	feeb72e3          	bgeu	s6,a4,80000d50 <.LBB13_7+0x2>
    80000d70:	89b2                	mv	s3,a2
      if (width < 0)
    80000d72:	0009059b          	sext.w	a1,s2
    80000d76:	fc05d0e3          	bgez	a1,80000d36 <.LBB13_5>
    80000d7a:	8966                	mv	s2,s9
    80000d7c:	5cfd                	li	s9,-1
    80000d7e:	bf65                	j	80000d36 <.LBB13_5>

0000000080000d80 <.LBB13_11>:
    80000d80:	882e                	mv	a6,a1
    80000d82:	bf55                	j	80000d36 <.LBB13_5>

0000000080000d84 <.LBB13_12>:
      precision = va_arg(ap, int);
    80000d84:	000a6c83          	lwu	s9,0(s4)
    80000d88:	0a21                	addi	s4,s4,8
      if (width < 0)
    80000d8a:	0009059b          	sext.w	a1,s2
    80000d8e:	fa05d4e3          	bgez	a1,80000d36 <.LBB13_5>
    80000d92:	b7e5                	j	80000d7a <.LBB13_7+0x2c>

0000000080000d94 <.LBB13_13>:
      if (width < 0)
    80000d94:	0009059b          	sext.w	a1,s2
    80000d98:	f8b04fe3          	bgtz	a1,80000d36 <.LBB13_5>
    80000d9c:	4901                	li	s2,0
    80000d9e:	bf61                	j	80000d36 <.LBB13_5>

0000000080000da0 <.LBB13_15>:
      lflag++;
    80000da0:	2505                	addiw	a0,a0,1
    80000da2:	bf51                	j	80000d36 <.LBB13_5>

0000000080000da4 <.LBB13_16>:
      putch('%', putdat);
    80000da4:	02500513          	li	a0,37
    80000da8:	85d6                	mv	a1,s5
    80000daa:	9d02                	jalr	s10
    80000dac:	89a2                	mv	s3,s0
    80000dae:	84d2                	mv	s1,s4
    80000db0:	bf91                	j	80000d04 <.LBB13_63+0x10>

0000000080000db2 <.LBB13_17>:
      putch(ch, putdat);
    80000db2:	02500513          	li	a0,37
    80000db6:	85d6                	mv	a1,s5
    80000db8:	9d02                	jalr	s10
    80000dba:	84d2                	mv	s1,s4
    80000dbc:	b7a1                	j	80000d04 <.LBB13_63+0x10>

0000000080000dbe <.LBB13_18>:
      putch(va_arg(ap, int), putdat);
    80000dbe:	000a2503          	lw	a0,0(s4)
    80000dc2:	008a0493          	addi	s1,s4,8
    80000dc6:	85d6                	mv	a1,s5
    80000dc8:	9d02                	jalr	s10
    80000dca:	bf2d                	j	80000d04 <.LBB13_63+0x10>

0000000080000dcc <.LBB13_19>:
  if (lflag >= 2)
    80000dcc:	2501                	sext.w	a0,a0
    80000dce:	4589                	li	a1,2
    80000dd0:	00b55463          	bge	a0,a1,80000dd8 <.LBB13_19+0xc>
  else if (lflag)
    80000dd4:	16050b63          	beqz	a0,80000f4a <.LBB13_43+0xaa>
    80000dd8:	8cd2                	mv	s9,s4
    80000dda:	000a3483          	ld	s1,0(s4)
    80000dde:	4429                	li	s0,10
      if ((long long) num < 0) {
    80000de0:	0c04d963          	bgez	s1,80000eb2 <.LBB13_43+0x12>
        putch('-', putdat);
    80000de4:	02d00513          	li	a0,45
    80000de8:	85d6                	mv	a1,s5
    80000dea:	8a42                	mv	s4,a6
    80000dec:	9d02                	jalr	s10
    80000dee:	8852                	mv	a6,s4
        num = -(long long) num;
    80000df0:	409004b3          	neg	s1,s1
    80000df4:	a87d                	j	80000eb2 <.LBB13_43+0x12>

0000000080000df6 <.LBB13_23>:
    80000df6:	4421                	li	s0,8
    80000df8:	a06d                	j	80000ea2 <.LBB13_43+0x2>

0000000080000dfa <.LBB13_24>:
      putch('0', putdat);
    80000dfa:	03000513          	li	a0,48
    80000dfe:	85d6                	mv	a1,s5
    80000e00:	8442                	mv	s0,a6
    80000e02:	9d02                	jalr	s10
      putch('x', putdat);
    80000e04:	07800513          	li	a0,120
    80000e08:	85d6                	mv	a1,s5
    80000e0a:	9d02                	jalr	s10
    80000e0c:	8822                	mv	a6,s0
    80000e0e:	4505                	li	a0,1

0000000080000e10 <.LBB13_25>:
    80000e10:	4441                	li	s0,16
    80000e12:	a841                	j	80000ea2 <.LBB13_43+0x2>

0000000080000e14 <.LBB13_26>:
    80000e14:	84d2                	mv	s1,s4
      if ((p = va_arg(ap, char *)) == NULL)
    80000e16:	000a3403          	ld	s0,0(s4)
    80000e1a:	e409                	bnez	s0,80000e24 <.LBB13_64+0x8>

0000000080000e1c <.LBB13_64>:
    80000e1c:	00001417          	auipc	s0,0x1
    80000e20:	24b40413          	addi	s0,s0,587 # 80002067 <D_i32+0x467>
      if (width > 0 && padc != '-')
    80000e24:	0009051b          	sext.w	a0,s2
    80000e28:	00152513          	slti	a0,a0,1
    80000e2c:	0ff87a13          	zext.b	s4,a6
    80000e30:	fd3a0593          	addi	a1,s4,-45
    80000e34:	0015b593          	seqz	a1,a1
    80000e38:	8d4d                	or	a0,a0,a1
    80000e3a:	ed15                	bnez	a0,80000e76 <.LBB13_64+0x5a>
        for (width -= strnlen(p, precision); width > 0; width--)
    80000e3c:	000c859b          	sext.w	a1,s9
    80000e40:	8522                	mv	a0,s0
}

size_t strnlen(const char *s, size_t n)
{
  const char *p = s;
  while (n-- && *p)
    80000e42:	c999                	beqz	a1,80000e58 <.LBB13_64+0x3c>
    80000e44:	00b40633          	add	a2,s0,a1
    80000e48:	8522                	mv	a0,s0
    80000e4a:	00054683          	lbu	a3,0(a0)
    80000e4e:	c689                	beqz	a3,80000e58 <.LBB13_64+0x3c>
    80000e50:	15fd                	addi	a1,a1,-1
    p++;
    80000e52:	0505                	addi	a0,a0,1
  while (n-- && *p)
    80000e54:	f9fd                	bnez	a1,80000e4a <.LBB13_64+0x2e>
    80000e56:	8532                	mv	a0,a2
  return p - s;
    80000e58:	40a4053b          	subw	a0,s0,a0
        for (width -= strnlen(p, precision); width > 0; width--)
    80000e5c:	00a9093b          	addw	s2,s2,a0
    80000e60:	01205b63          	blez	s2,80000e76 <.LBB13_64+0x5a>
          putch(padc, putdat);
    80000e64:	8552                	mv	a0,s4
    80000e66:	85d6                	mv	a1,s5
    80000e68:	9d02                	jalr	s10
        for (width -= strnlen(p, precision); width > 0; width--)
    80000e6a:	0009051b          	sext.w	a0,s2
    80000e6e:	397d                	addiw	s2,s2,-1
    80000e70:	feabcae3          	blt	s7,a0,80000e64 <.LBB13_64+0x48>
    80000e74:	4901                	li	s2,0
      for (; (ch = *p) != '\0' && (precision < 0 || --precision >= 0); width--) {
    80000e76:	00044503          	lbu	a0,0(s0)
    80000e7a:	c54d                	beqz	a0,80000f24 <.LBB13_43+0x84>
    80000e7c:	0405                	addi	s0,s0,1
    80000e7e:	a811                	j	80000e92 <.LBB13_64+0x76>
    80000e80:	0ff57513          	zext.b	a0,a0
        putch(ch, putdat);
    80000e84:	85d6                	mv	a1,s5
    80000e86:	9d02                	jalr	s10
      for (; (ch = *p) != '\0' && (precision < 0 || --precision >= 0); width--) {
    80000e88:	00044503          	lbu	a0,0(s0)
    80000e8c:	397d                	addiw	s2,s2,-1
    80000e8e:	0405                	addi	s0,s0,1
    80000e90:	c951                	beqz	a0,80000f24 <.LBB13_43+0x84>
    80000e92:	000c859b          	sext.w	a1,s9
    80000e96:	fe05c5e3          	bltz	a1,80000e80 <.LBB13_64+0x64>
    80000e9a:	c5c9                	beqz	a1,80000f24 <.LBB13_43+0x84>
    80000e9c:	3cfd                	addiw	s9,s9,-1
    80000e9e:	b7cd                	j	80000e80 <.LBB13_64+0x64>

0000000080000ea0 <.LBB13_43>:
    80000ea0:	4429                	li	s0,10
  if (lflag >= 2)
    80000ea2:	2501                	sext.w	a0,a0
    80000ea4:	4589                	li	a1,2
    80000ea6:	00b55363          	bge	a0,a1,80000eac <.LBB13_43+0xc>
  else if (lflag)
    80000eaa:	cd41                	beqz	a0,80000f42 <.LBB13_43+0xa2>
    80000eac:	8cd2                	mv	s9,s4
    80000eae:	000a3483          	ld	s1,0(s4)
    digs[pos++] = num % base;
    80000eb2:	0284f533          	remu	a0,s1,s0
    80000eb6:	c42a                	sw	a0,8(sp)
    80000eb8:	4505                	li	a0,1
    if (num < base)
    80000eba:	0084ed63          	bltu	s1,s0,80000ed4 <.LBB13_43+0x34>
    80000ebe:	4505                	li	a0,1
    80000ec0:	006c                	addi	a1,sp,12
    num /= base;
    80000ec2:	0284d4b3          	divu	s1,s1,s0
    digs[pos++] = num % base;
    80000ec6:	0284f633          	remu	a2,s1,s0
    80000eca:	0505                	addi	a0,a0,1
    80000ecc:	c190                	sw	a2,0(a1)
    if (num < base)
    80000ece:	0591                	addi	a1,a1,4
    80000ed0:	fe84f9e3          	bgeu	s1,s0,80000ec2 <.LBB13_43+0x22>
  while (width-- > pos)
    80000ed4:	0009059b          	sext.w	a1,s2
    80000ed8:	0005049b          	sext.w	s1,a0
    80000edc:	00b4da63          	bge	s1,a1,80000ef0 <.LBB13_43+0x50>
    80000ee0:	0ff87413          	zext.b	s0,a6
    80000ee4:	397d                	addiw	s2,s2,-1
    putch(padc, putdat);
    80000ee6:	8522                	mv	a0,s0
    80000ee8:	85d6                	mv	a1,s5
    80000eea:	9d02                	jalr	s10
  while (width-- > pos)
    80000eec:	ff24cce3          	blt	s1,s2,80000ee4 <.LBB13_43+0x44>
    80000ef0:	0ca1                	addi	s9,s9,8
  while (pos-- > 0)
    80000ef2:	00148413          	addi	s0,s1,1
    80000ef6:	00249513          	slli	a0,s1,0x2
    80000efa:	004c                	addi	a1,sp,4
    80000efc:	00a584b3          	add	s1,a1,a0
    80000f00:	a801                	j	80000f10 <.LBB13_43+0x70>
    putch(digs[pos] + (digs[pos] >= 10 ? 'a' - 10 : '0'), putdat);
    80000f02:	9d2d                	addw	a0,a0,a1
    80000f04:	85d6                	mv	a1,s5
    80000f06:	9d02                	jalr	s10
  while (pos-- > 0)
    80000f08:	147d                	addi	s0,s0,-1
    80000f0a:	14f1                	addi	s1,s1,-4
    80000f0c:	008bda63          	bge	s7,s0,80000f20 <.LBB13_43+0x80>
    putch(digs[pos] + (digs[pos] >= 10 ? 'a' - 10 : '0'), putdat);
    80000f10:	4088                	lw	a0,0(s1)
    80000f12:	05700593          	li	a1,87
    80000f16:	feab66e3          	bltu	s6,a0,80000f02 <.LBB13_43+0x62>
    80000f1a:	03000593          	li	a1,48
    80000f1e:	b7d5                	j	80000f02 <.LBB13_43+0x62>
    80000f20:	84e6                	mv	s1,s9
    80000f22:	b3cd                	j	80000d04 <.LBB13_63+0x10>
      for (; width > 0; width--)
    80000f24:	0009051b          	sext.w	a0,s2
    80000f28:	04a1                	addi	s1,s1,8
    80000f2a:	dca05de3          	blez	a0,80000d04 <.LBB13_63+0x10>
        putch(' ', putdat);
    80000f2e:	02000513          	li	a0,32
    80000f32:	85d6                	mv	a1,s5
    80000f34:	9d02                	jalr	s10
      for (; width > 0; width--)
    80000f36:	0009051b          	sext.w	a0,s2
    80000f3a:	397d                	addiw	s2,s2,-1
    80000f3c:	feabc9e3          	blt	s7,a0,80000f2e <.LBB13_43+0x8e>
    80000f40:	b3d1                	j	80000d04 <.LBB13_63+0x10>
    80000f42:	8cd2                	mv	s9,s4
    return va_arg(*ap, unsigned int);
    80000f44:	000a6483          	lwu	s1,0(s4)
    80000f48:	b7ad                	j	80000eb2 <.LBB13_43+0x12>
    80000f4a:	8cd2                	mv	s9,s4
    return va_arg(*ap, int);
    80000f4c:	000a2483          	lw	s1,0(s4)
    80000f50:	4429                	li	s0,10
    80000f52:	f604d0e3          	bgez	s1,80000eb2 <.LBB13_43+0x12>
    80000f56:	b579                	j	80000de4 <.LBB13_19+0x18>
}
    80000f58:	6db2                	ld	s11,264(sp)
    80000f5a:	6d52                	ld	s10,272(sp)
    80000f5c:	6cf2                	ld	s9,280(sp)
    80000f5e:	7c12                	ld	s8,288(sp)
    80000f60:	7bb2                	ld	s7,296(sp)
    80000f62:	7b52                	ld	s6,304(sp)
    80000f64:	7af2                	ld	s5,312(sp)
    80000f66:	6a16                	ld	s4,320(sp)
    80000f68:	69b6                	ld	s3,328(sp)
    80000f6a:	6956                	ld	s2,336(sp)
    80000f6c:	64f6                	ld	s1,344(sp)
    80000f6e:	7416                	ld	s0,352(sp)
    80000f70:	70b6                	ld	ra,360(sp)
    80000f72:	6175                	addi	sp,sp,368
    80000f74:	8082                	ret

0000000080000f76 <sprintf_putch>:
  **pstr = ch;
    80000f76:	6190                	ld	a2,0(a1)
    80000f78:	00a60023          	sb	a0,0(a2)
  (*pstr)++;
    80000f7c:	6188                	ld	a0,0(a1)
    80000f7e:	0505                	addi	a0,a0,1
    80000f80:	e188                	sd	a0,0(a1)
}
    80000f82:	8082                	ret

0000000080000f84 <sprintf>:
{
    80000f84:	7109                	addi	sp,sp,-384
    80000f86:	e6a2                	sd	s0,328(sp)
    80000f88:	e2a6                	sd	s1,320(sp)
    80000f8a:	fe4a                	sd	s2,312(sp)
    80000f8c:	fa4e                	sd	s3,304(sp)
    80000f8e:	f652                	sd	s4,296(sp)
    80000f90:	f256                	sd	s5,288(sp)
    80000f92:	ee5a                	sd	s6,280(sp)
    80000f94:	ea5e                	sd	s7,272(sp)
    80000f96:	e662                	sd	s8,264(sp)
    80000f98:	fec6                	sd	a7,376(sp)
    80000f9a:	fac2                	sd	a6,368(sp)
    80000f9c:	f6be                	sd	a5,360(sp)
    80000f9e:	f2ba                	sd	a4,352(sp)
    80000fa0:	eeb6                	sd	a3,344(sp)
    80000fa2:	eab2                	sd	a2,336(sp)
    80000fa4:	15010e93          	addi	t4,sp,336
  va_start(ap, fmt);
    80000fa8:	e076                	sd	t4,0(sp)
  while (1) {
    80000faa:	40a002b3          	neg	t0,a0
    80000fae:	00c10813          	addi	a6,sp,12
    80000fb2:	00410893          	addi	a7,sp,4
    80000fb6:	02500b13          	li	s6,37
    80000fba:	05500313          	li	t1,85
    80000fbe:	4a29                	li	s4,10
    80000fc0:	4c25                	li	s8,9
    80000fc2:	4389                	li	t2,2
    80000fc4:	02d00e13          	li	t3,45
    80000fc8:	4985                	li	s3,1
    80000fca:	03000f13          	li	t5,48
    80000fce:	07800f93          	li	t6,120
    80000fd2:	02000913          	li	s2,32
    while ((ch = *(unsigned char *) fmt) != '%') {
    80000fd6:	00a286b3          	add	a3,t0,a0
    80000fda:	00158613          	addi	a2,a1,1
    80000fde:	fff64583          	lbu	a1,-1(a2)
    80000fe2:	22058663          	beqz	a1,8000120e <.LBB15_43+0xa2>
    80000fe6:	01658b63          	beq	a1,s6,80000ffc <sprintf+0x78>
  **pstr = ch;
    80000fea:	00b50023          	sb	a1,0(a0)
  (*pstr)++;
    80000fee:	0505                	addi	a0,a0,1
    while ((ch = *(unsigned char *) fmt) != '%') {
    80000ff0:	0685                	addi	a3,a3,1
    80000ff2:	0605                	addi	a2,a2,1
    80000ff4:	fff64583          	lbu	a1,-1(a2)
    80000ff8:	f5fd                	bnez	a1,80000fe6 <sprintf+0x62>
    80000ffa:	ac11                	j	8000120e <.LBB15_43+0xa2>
    80000ffc:	4a81                	li	s5,0
    80000ffe:	02000b93          	li	s7,32
    80001002:	54fd                	li	s1,-1
    80001004:	577d                	li	a4,-1
    80001006:	85b2                	mv	a1,a2

0000000080001008 <.LBB15_5>:
    80001008:	86ae                	mv	a3,a1
    switch (ch = *(unsigned char *) fmt++) {
    8000100a:	0005c403          	lbu	s0,0(a1)
    8000100e:	fdd40593          	addi	a1,s0,-35
    80001012:	06b36763          	bltu	t1,a1,80001080 <.LBB15_16>
    80001016:	058e                	slli	a1,a1,0x3

0000000080001018 <.LBB15_60>:
    80001018:	00001797          	auipc	a5,0x1
    8000101c:	30878793          	addi	a5,a5,776 # 80002320 <.LJTI15_0>
    80001020:	95be                	add	a1,a1,a5
    80001022:	619c                	ld	a5,0(a1)
    80001024:	00168593          	addi	a1,a3,1
    80001028:	8782                	jr	a5

000000008000102a <.LBB15_7>:
    8000102a:	4481                	li	s1,0
    8000102c:	0ff47593          	zext.b	a1,s0
        ch = *fmt;
    80001030:	0016c403          	lbu	s0,1(a3)
    80001034:	0685                	addi	a3,a3,1
        precision = precision * 10 + ch - '0';
    80001036:	034487bb          	mulw	a5,s1,s4
    8000103a:	9dbd                	addw	a1,a1,a5
        if (ch < '0' || ch > '9')
    8000103c:	fd040793          	addi	a5,s0,-48
    80001040:	0ff7f793          	zext.b	a5,a5
        precision = precision * 10 + ch - '0';
    80001044:	fd05849b          	addiw	s1,a1,-48
        if (ch < '0' || ch > '9')
    80001048:	fefc72e3          	bgeu	s8,a5,8000102c <.LBB15_7+0x2>
    8000104c:	85b6                	mv	a1,a3
      if (width < 0)
    8000104e:	0007069b          	sext.w	a3,a4
    80001052:	fa06dbe3          	bgez	a3,80001008 <.LBB15_5>
    80001056:	8726                	mv	a4,s1
    80001058:	54fd                	li	s1,-1
    8000105a:	b77d                	j	80001008 <.LBB15_5>

000000008000105c <.LBB15_11>:
    8000105c:	8ba2                	mv	s7,s0
    8000105e:	b76d                	j	80001008 <.LBB15_5>

0000000080001060 <.LBB15_12>:
      precision = va_arg(ap, int);
    80001060:	000ee483          	lwu	s1,0(t4)
    80001064:	0ea1                	addi	t4,t4,8
      if (width < 0)
    80001066:	0007069b          	sext.w	a3,a4
    8000106a:	f806dfe3          	bgez	a3,80001008 <.LBB15_5>
    8000106e:	b7e5                	j	80001056 <.LBB15_7+0x2c>

0000000080001070 <.LBB15_13>:
      if (width < 0)
    80001070:	0007069b          	sext.w	a3,a4
    80001074:	f8d04ae3          	bgtz	a3,80001008 <.LBB15_5>
    80001078:	4701                	li	a4,0
    8000107a:	b779                	j	80001008 <.LBB15_5>

000000008000107c <.LBB15_15>:
      lflag++;
    8000107c:	2a85                	addiw	s5,s5,1
    8000107e:	b769                	j	80001008 <.LBB15_5>

0000000080001080 <.LBB15_16>:
  **pstr = ch;
    80001080:	01650023          	sb	s6,0(a0)
      break;
    80001084:	0505                	addi	a0,a0,1
    80001086:	85b2                	mv	a1,a2
    80001088:	b7b9                	j	80000fd6 <sprintf+0x52>

000000008000108a <.LBB15_17>:
  **pstr = ch;
    8000108a:	01650023          	sb	s6,0(a0)
      break;
    8000108e:	0505                	addi	a0,a0,1
    80001090:	b799                	j	80000fd6 <sprintf+0x52>

0000000080001092 <.LBB15_18>:
      putch(va_arg(ap, int), putdat);
    80001092:	000e8603          	lb	a2,0(t4)
    80001096:	0ea1                	addi	t4,t4,8
  **pstr = ch;
    80001098:	00c50023          	sb	a2,0(a0)
      break;
    8000109c:	0505                	addi	a0,a0,1
    8000109e:	bf25                	j	80000fd6 <sprintf+0x52>

00000000800010a0 <.LBB15_19>:
  if (lflag >= 2)
    800010a0:	000a861b          	sext.w	a2,s5
    800010a4:	00765463          	bge	a2,t2,800010ac <.LBB15_19+0xc>
    800010a8:	14060d63          	beqz	a2,80001202 <.LBB15_43+0x96>
    800010ac:	000eb483          	ld	s1,0(t4)
    800010b0:	4629                	li	a2,10
    800010b2:	0c04d563          	bgez	s1,8000117c <.LBB15_43+0x10>
  **pstr = ch;
    800010b6:	01c50023          	sb	t3,0(a0)
        num = -(long long) num;
    800010ba:	0505                	addi	a0,a0,1
    800010bc:	409004b3          	neg	s1,s1
    800010c0:	a875                	j	8000117c <.LBB15_43+0x10>

00000000800010c2 <.LBB15_23>:
    800010c2:	4621                	li	a2,8
  if (lflag >= 2)
    800010c4:	000a869b          	sext.w	a3,s5
    800010c8:	0a76c763          	blt	a3,t2,80001176 <.LBB15_43+0xa>
    800010cc:	a075                	j	80001178 <.LBB15_43+0xc>

00000000800010ce <.LBB15_24>:
  **pstr = ch;
    800010ce:	01e50023          	sb	t5,0(a0)
    800010d2:	01f500a3          	sb	t6,1(a0)
      putch('x', putdat);
    800010d6:	0509                	addi	a0,a0,2
    800010d8:	4a85                	li	s5,1

00000000800010da <.LBB15_25>:
    800010da:	4641                	li	a2,16
  if (lflag >= 2)
    800010dc:	000a869b          	sext.w	a3,s5
    800010e0:	0876cb63          	blt	a3,t2,80001176 <.LBB15_43+0xa>
    800010e4:	a851                	j	80001178 <.LBB15_43+0xc>

00000000800010e6 <.LBB15_26>:
      if ((p = va_arg(ap, char *)) == NULL)
    800010e6:	000eb603          	ld	a2,0(t4)
    800010ea:	e609                	bnez	a2,800010f4 <.LBB15_61+0x8>

00000000800010ec <.LBB15_61>:
    800010ec:	00001617          	auipc	a2,0x1
    800010f0:	f7b60613          	addi	a2,a2,-133 # 80002067 <D_i32+0x467>
      if (width > 0 && padc != '-')
    800010f4:	0007069b          	sext.w	a3,a4
    800010f8:	0016a693          	slti	a3,a3,1
    800010fc:	0ffbf793          	zext.b	a5,s7
    80001100:	fd378793          	addi	a5,a5,-45
    80001104:	0017b793          	seqz	a5,a5
    80001108:	8edd                	or	a3,a3,a5
    8000110a:	ee8d                	bnez	a3,80001144 <.LBB15_61+0x58>
        for (width -= strnlen(p, precision); width > 0; width--)
    8000110c:	0004841b          	sext.w	s0,s1
    80001110:	86b2                	mv	a3,a2
  while (n-- && *p)
    80001112:	c819                	beqz	s0,80001128 <.LBB15_61+0x3c>
    80001114:	00860ab3          	add	s5,a2,s0
    80001118:	86b2                	mv	a3,a2
    8000111a:	0006c783          	lbu	a5,0(a3)
    8000111e:	c789                	beqz	a5,80001128 <.LBB15_61+0x3c>
    80001120:	147d                	addi	s0,s0,-1
    p++;
    80001122:	0685                	addi	a3,a3,1
  while (n-- && *p)
    80001124:	f87d                	bnez	s0,8000111a <.LBB15_61+0x2e>
    80001126:	86d6                	mv	a3,s5
  return p - s;
    80001128:	40d606bb          	subw	a3,a2,a3
        for (width -= strnlen(p, precision); width > 0; width--)
    8000112c:	9f35                	addw	a4,a4,a3
    8000112e:	00e05b63          	blez	a4,80001144 <.LBB15_61+0x58>
  **pstr = ch;
    80001132:	01750023          	sb	s7,0(a0)
        for (width -= strnlen(p, precision); width > 0; width--)
    80001136:	0007069b          	sext.w	a3,a4
    8000113a:	377d                	addiw	a4,a4,-1
  (*pstr)++;
    8000113c:	0505                	addi	a0,a0,1
        for (width -= strnlen(p, precision); width > 0; width--)
    8000113e:	fed9cae3          	blt	s3,a3,80001132 <.LBB15_61+0x46>
    80001142:	4701                	li	a4,0
      for (; (ch = *p) != '\0' && (precision < 0 || --precision >= 0); width--) {
    80001144:	00064403          	lbu	s0,0(a2)
    80001148:	cc41                	beqz	s0,800011e0 <.LBB15_43+0x74>
    8000114a:	0605                	addi	a2,a2,1
    8000114c:	a809                	j	8000115e <.LBB15_61+0x72>
  **pstr = ch;
    8000114e:	00850023          	sb	s0,0(a0)
      for (; (ch = *p) != '\0' && (precision < 0 || --precision >= 0); width--) {
    80001152:	00064403          	lbu	s0,0(a2)
  (*pstr)++;
    80001156:	0505                	addi	a0,a0,1
      for (; (ch = *p) != '\0' && (precision < 0 || --precision >= 0); width--) {
    80001158:	377d                	addiw	a4,a4,-1
    8000115a:	0605                	addi	a2,a2,1
    8000115c:	c051                	beqz	s0,800011e0 <.LBB15_43+0x74>
    8000115e:	0004869b          	sext.w	a3,s1
    80001162:	fe06c6e3          	bltz	a3,8000114e <.LBB15_61+0x62>
    80001166:	cead                	beqz	a3,800011e0 <.LBB15_43+0x74>
    80001168:	34fd                	addiw	s1,s1,-1
    8000116a:	b7d5                	j	8000114e <.LBB15_61+0x62>

000000008000116c <.LBB15_43>:
    8000116c:	4629                	li	a2,10
  if (lflag >= 2)
    8000116e:	000a869b          	sext.w	a3,s5
    80001172:	0076d363          	bge	a3,t2,80001178 <.LBB15_43+0xc>
  else if (lflag)
    80001176:	c2d9                	beqz	a3,800011fc <.LBB15_43+0x90>
    80001178:	000eb483          	ld	s1,0(t4)
    digs[pos++] = num % base;
    8000117c:	02c4f6b3          	remu	a3,s1,a2
    80001180:	c436                	sw	a3,8(sp)
    80001182:	4685                	li	a3,1
    80001184:	00c4ed63          	bltu	s1,a2,8000119e <.LBB15_43+0x32>
    80001188:	4685                	li	a3,1
    8000118a:	8442                	mv	s0,a6
    num /= base;
    8000118c:	02c4d4b3          	divu	s1,s1,a2
    digs[pos++] = num % base;
    80001190:	02c4f7b3          	remu	a5,s1,a2
    80001194:	0685                	addi	a3,a3,1
    80001196:	c01c                	sw	a5,0(s0)
    if (num < base)
    80001198:	0411                	addi	s0,s0,4
    8000119a:	fec4f9e3          	bgeu	s1,a2,8000118c <.LBB15_43+0x20>
  while (width-- > pos)
    8000119e:	0007061b          	sext.w	a2,a4
    800011a2:	2681                	sext.w	a3,a3
    800011a4:	00c6d863          	bge	a3,a2,800011b4 <.LBB15_43+0x48>
    800011a8:	377d                	addiw	a4,a4,-1
  **pstr = ch;
    800011aa:	01750023          	sb	s7,0(a0)
  (*pstr)++;
    800011ae:	0505                	addi	a0,a0,1
    800011b0:	fee6cce3          	blt	a3,a4,800011a8 <.LBB15_43+0x3c>
    800011b4:	0ea1                	addi	t4,t4,8
  while (pos-- > 0)
    800011b6:	00168613          	addi	a2,a3,1
    800011ba:	068a                	slli	a3,a3,0x2
    800011bc:	96c6                	add	a3,a3,a7
    800011be:	a809                	j	800011d0 <.LBB15_43+0x64>
    putch(digs[pos] + (digs[pos] >= 10 ? 'a' - 10 : '0'), putdat);
    800011c0:	9f21                	addw	a4,a4,s0
  **pstr = ch;
    800011c2:	00e50023          	sb	a4,0(a0)
  (*pstr)++;
    800011c6:	0505                	addi	a0,a0,1
  while (pos-- > 0)
    800011c8:	167d                	addi	a2,a2,-1
    800011ca:	16f1                	addi	a3,a3,-4
    800011cc:	e0c9d5e3          	bge	s3,a2,80000fd6 <sprintf+0x52>
    putch(digs[pos] + (digs[pos] >= 10 ? 'a' - 10 : '0'), putdat);
    800011d0:	4298                	lw	a4,0(a3)
    800011d2:	05700413          	li	s0,87
    800011d6:	feec65e3          	bltu	s8,a4,800011c0 <.LBB15_43+0x54>
    800011da:	03000413          	li	s0,48
    800011de:	b7cd                	j	800011c0 <.LBB15_43+0x54>
      for (; width > 0; width--)
    800011e0:	0007061b          	sext.w	a2,a4
    800011e4:	0ea1                	addi	t4,t4,8
    800011e6:	dec058e3          	blez	a2,80000fd6 <sprintf+0x52>
  **pstr = ch;
    800011ea:	01250023          	sb	s2,0(a0)
      for (; width > 0; width--)
    800011ee:	0007061b          	sext.w	a2,a4
    800011f2:	377d                	addiw	a4,a4,-1
  (*pstr)++;
    800011f4:	0505                	addi	a0,a0,1
      for (; width > 0; width--)
    800011f6:	fec9cae3          	blt	s3,a2,800011ea <.LBB15_43+0x7e>
    800011fa:	bbf1                	j	80000fd6 <sprintf+0x52>
    return va_arg(*ap, unsigned int);
    800011fc:	000ee483          	lwu	s1,0(t4)
    80001200:	bfb5                	j	8000117c <.LBB15_43+0x10>
    return va_arg(*ap, int);
    80001202:	000ea483          	lw	s1,0(t4)
    80001206:	4629                	li	a2,10
    80001208:	f604dae3          	bgez	s1,8000117c <.LBB15_43+0x10>
    8000120c:	b56d                	j	800010b6 <.LBB15_19+0x16>
  return str - str0;
    8000120e:	0006859b          	sext.w	a1,a3
  *str = 0;
    80001212:	00050023          	sb	zero,0(a0)
  return str - str0;
    80001216:	852e                	mv	a0,a1
    80001218:	6c32                	ld	s8,264(sp)
    8000121a:	6bd2                	ld	s7,272(sp)
    8000121c:	6b72                	ld	s6,280(sp)
    8000121e:	7a92                	ld	s5,288(sp)
    80001220:	7a32                	ld	s4,296(sp)
    80001222:	79d2                	ld	s3,304(sp)
    80001224:	7972                	ld	s2,312(sp)
    80001226:	6496                	ld	s1,320(sp)
    80001228:	6436                	ld	s0,328(sp)
    8000122a:	6119                	addi	sp,sp,384
    8000122c:	8082                	ret

000000008000122e <memcpy>:
  if ((((uintptr_t)dest | (uintptr_t)src | len) & (sizeof(uintptr_t)-1)) == 0) {
    8000122e:	00a5e6b3          	or	a3,a1,a0
    80001232:	8ed1                	or	a3,a3,a2
    80001234:	0076f713          	andi	a4,a3,7
    80001238:	00c506b3          	add	a3,a0,a2
    8000123c:	cf19                	beqz	a4,8000125a <memcpy+0x2c>
    while (d < (char*)(dest + len))
    8000123e:	02d57963          	bgeu	a0,a3,80001270 <memcpy+0x42>
    80001242:	86aa                	mv	a3,a0
      *d++ = *s++;
    80001244:	00058703          	lb	a4,0(a1)
    80001248:	0585                	addi	a1,a1,1
    8000124a:	00168793          	addi	a5,a3,1
    while (d < (char*)(dest + len))
    8000124e:	167d                	addi	a2,a2,-1
      *d++ = *s++;
    80001250:	00e68023          	sb	a4,0(a3)
    80001254:	86be                	mv	a3,a5
    80001256:	f67d                	bnez	a2,80001244 <memcpy+0x16>
    80001258:	a821                	j	80001270 <memcpy+0x42>
    while (d < (uintptr_t*)(dest + len))
    8000125a:	00d57b63          	bgeu	a0,a3,80001270 <memcpy+0x42>
    8000125e:	862a                	mv	a2,a0
      *d++ = *s++;
    80001260:	6198                	ld	a4,0(a1)
    80001262:	05a1                	addi	a1,a1,8
    80001264:	00860793          	addi	a5,a2,8
    80001268:	e218                	sd	a4,0(a2)
    8000126a:	863e                	mv	a2,a5
    while (d < (uintptr_t*)(dest + len))
    8000126c:	fed7eae3          	bltu	a5,a3,80001260 <memcpy+0x32>
  return dest;
    80001270:	8082                	ret

0000000080001272 <memset>:
  if ((((uintptr_t)dest | len) & (sizeof(uintptr_t)-1)) == 0) {
    80001272:	00c566b3          	or	a3,a0,a2
    80001276:	8a9d                	andi	a3,a3,7
    80001278:	ce91                	beqz	a3,80001294 <memset+0x22>
    8000127a:	00c506b3          	add	a3,a0,a2
    while (d < (char*)(dest + len))
    8000127e:	04d57263          	bgeu	a0,a3,800012c2 <memset+0x50>
    80001282:	86aa                	mv	a3,a0
      *d++ = byte;
    80001284:	00168713          	addi	a4,a3,1
    while (d < (char*)(dest + len))
    80001288:	167d                	addi	a2,a2,-1
      *d++ = byte;
    8000128a:	00b68023          	sb	a1,0(a3)
    8000128e:	86ba                	mv	a3,a4
    80001290:	fa75                	bnez	a2,80001284 <memset+0x12>
    80001292:	a805                	j	800012c2 <memset+0x50>
    80001294:	962a                	add	a2,a2,a0
    while (d < (uintptr_t*)(dest + len))
    80001296:	02c57663          	bgeu	a0,a2,800012c2 <memset+0x50>
    8000129a:	0ff5f593          	zext.b	a1,a1
    8000129e:	00859693          	slli	a3,a1,0x8
    800012a2:	8dd5                	or	a1,a1,a3
    800012a4:	100016b7          	lui	a3,0x10001
    800012a8:	0692                	slli	a3,a3,0x4
    800012aa:	0685                	addi	a3,a3,1 # 10001001 <UART0_BASE+0x1001>
    800012ac:	06c2                	slli	a3,a3,0x10
    800012ae:	0685                	addi	a3,a3,1
    800012b0:	02d585b3          	mul	a1,a1,a3
    800012b4:	86aa                	mv	a3,a0
      *d++ = word;
    800012b6:	00868713          	addi	a4,a3,8
    800012ba:	e28c                	sd	a1,0(a3)
    800012bc:	86ba                	mv	a3,a4
    while (d < (uintptr_t*)(dest + len))
    800012be:	fec76ce3          	bltu	a4,a2,800012b6 <memset+0x44>
  return dest;
    800012c2:	8082                	ret

00000000800012c4 <strnlen>:
{
    800012c4:	862a                	mv	a2,a0
  while (n-- && *p)
    800012c6:	c999                	beqz	a1,800012dc <strnlen+0x18>
    800012c8:	00b506b3          	add	a3,a0,a1
    800012cc:	862a                	mv	a2,a0
    800012ce:	00064703          	lbu	a4,0(a2)
    800012d2:	c709                	beqz	a4,800012dc <strnlen+0x18>
    800012d4:	15fd                	addi	a1,a1,-1
    p++;
    800012d6:	0605                	addi	a2,a2,1
  while (n-- && *p)
    800012d8:	f9fd                	bnez	a1,800012ce <strnlen+0xa>
    800012da:	8636                	mv	a2,a3
  return p - s;
    800012dc:	40a60533          	sub	a0,a2,a0
    800012e0:	8082                	ret

00000000800012e2 <strcmp>:
int strcmp(const char* s1, const char* s2)
{
  unsigned char c1, c2;

  do {
    c1 = *s1++;
    800012e2:	00054603          	lbu	a2,0(a0)
    c2 = *s2++;
    800012e6:	0005c683          	lbu	a3,0(a1)
    c1 = *s1++;
    800012ea:	0505                	addi	a0,a0,1
    c2 = *s2++;
    800012ec:	0585                	addi	a1,a1,1
  } while (c1 != 0 && c1 == c2);
    800012ee:	00c03733          	snez	a4,a2
    800012f2:	00d647b3          	xor	a5,a2,a3
    800012f6:	0017b793          	seqz	a5,a5
    800012fa:	8f7d                	and	a4,a4,a5
    800012fc:	f37d                	bnez	a4,800012e2 <strcmp>

  return c1 - c2;
    800012fe:	40d60533          	sub	a0,a2,a3
    80001302:	8082                	ret

0000000080001304 <strcpy>:
}

char* strcpy(char* dest, const char* src)
{
    80001304:	4601                	li	a2,0
  char* d = dest;
  while ((*d++ = *src++))
    80001306:	00c586b3          	add	a3,a1,a2
    8000130a:	0006c683          	lbu	a3,0(a3)
    8000130e:	00c50733          	add	a4,a0,a2
    80001312:	00d70023          	sb	a3,0(a4)
    80001316:	0605                	addi	a2,a2,1
    80001318:	f6fd                	bnez	a3,80001306 <strcpy+0x2>
    ;
  return dest;
    8000131a:	8082                	ret

000000008000131c <atol>:
}

long atol(const char* str)
{
    8000131c:	02000613          	li	a2,32
  long res = 0;
  int sign = 0;

  while (*str == ' ')
    80001320:	00054583          	lbu	a1,0(a0)
    80001324:	00c59763          	bne	a1,a2,80001332 <atol+0x16>
    str++;
    80001328:	0505                	addi	a0,a0,1
  while (*str == ' ')
    8000132a:	00054583          	lbu	a1,0(a0)
    8000132e:	fec58de3          	beq	a1,a2,80001328 <atol+0xc>
    80001332:	02b00613          	li	a2,43
    80001336:	00c58663          	beq	a1,a2,80001342 <atol+0x26>
    8000133a:	02d00613          	li	a2,45
    8000133e:	02c59d63          	bne	a1,a2,80001378 <atol+0x5c>

  if (*str == '-' || *str == '+') {
    sign = *str == '-';
    80001342:	fd358593          	addi	a1,a1,-45
    80001346:	0015b613          	seqz	a2,a1
    str++;
  }
    8000134a:	0505                	addi	a0,a0,1

  while (*str) {
    8000134c:	00054683          	lbu	a3,0(a0)
    80001350:	ca85                	beqz	a3,80001380 <atol+0x64>
    80001352:	4581                	li	a1,0
    80001354:	0505                	addi	a0,a0,1
    80001356:	4729                	li	a4,10
    res *= 10;
    res += *str++ - '0';
    80001358:	0ff6f793          	zext.b	a5,a3
  while (*str) {
    8000135c:	00054683          	lbu	a3,0(a0)
    res *= 10;
    80001360:	02e585b3          	mul	a1,a1,a4
    res += *str++ - '0';
    80001364:	95be                	add	a1,a1,a5
    80001366:	fd058593          	addi	a1,a1,-48
  while (*str) {
    8000136a:	0505                	addi	a0,a0,1
    8000136c:	f6f5                	bnez	a3,80001358 <atol+0x3c>
  }

  return sign ? -res : res;
    8000136e:	c219                	beqz	a2,80001374 <atol+0x58>
    80001370:	40b005b3          	neg	a1,a1
    80001374:	852e                	mv	a0,a1
    80001376:	8082                	ret
    80001378:	4601                	li	a2,0
  while (*str) {
    8000137a:	00054683          	lbu	a3,0(a0)
    8000137e:	faf1                	bnez	a3,80001352 <atol+0x36>
    80001380:	4581                	li	a1,0
  return sign ? -res : res;
    80001382:	f67d                	bnez	a2,80001370 <atol+0x54>
    80001384:	bfc5                	j	80001374 <atol+0x58>
	...

0000000080001388 <_close>:
// Provided by linker script
extern char _end;            // end of bss
static char *heap_end;       // current heap pointer

int _close(int fd) {
    (void)fd; return -1;     // no files
    80001388:	557d                	li	a0,-1
    8000138a:	8082                	ret

000000008000138c <_fstat>:
}

int _fstat(int fd, struct stat *st) {
    (void)fd; if (st) { st->st_mode = S_IFCHR; } return 0; // pretend char device
    8000138c:	c199                	beqz	a1,80001392 <_fstat+0x6>
    8000138e:	6509                	lui	a0,0x2
    80001390:	c1c8                	sw	a0,4(a1)
    80001392:	4501                	li	a0,0
    80001394:	8082                	ret

0000000080001396 <_isatty>:
}

int _isatty(int fd) {
    (void)fd; return 1;      // yes, treat as tty
    80001396:	4505                	li	a0,1
    80001398:	8082                	ret

000000008000139a <_lseek>:
}

off_t _lseek(int fd, off_t offset, int whence) {
    (void)fd; (void)offset; (void)whence; return 0; // not supported
    8000139a:	4501                	li	a0,0
    8000139c:	8082                	ret

000000008000139e <_open>:
}

int _open(const char *path, int flags, int mode) {
    (void)path; (void)flags; (void)mode; return -1; // fail
    8000139e:	557d                	li	a0,-1
    800013a0:	8082                	ret

00000000800013a2 <__errno>:

//     return (int)cnt;
// }
// Optional errno (newlib may look for it)
int *__errno(void) {
    static int e; return &e;
    800013a2:	00002517          	auipc	a0,0x2
    800013a6:	8ee50513          	addi	a0,a0,-1810 # 80002c90 <__errno.e>
    800013aa:	8082                	ret

00000000800013ac <handle_uart_irq>:
    rx_tail = (uint16_t)((rx_tail + 1) % RX_BUF_SZ);
    return c;
}

// ===== UART 中断服务：搬空 RX FIFO 到环形缓冲 =====
void handle_uart_irq(void) {
    800013ac:	10000837          	lui	a6,0x10000
    800013b0:	0148059b          	addiw	a1,a6,20 # 10000014 <UART0_BASE+0x14>
static inline uint8_t rd8(volatile uint32_t *r) { return (uint8_t)(*r); }
    800013b4:	0005e503          	lwu	a0,0(a1)
    while (rd8(UART_LSR) & LSR_DR) {
    800013b8:	8905                	andi	a0,a0,1
    800013ba:	e111                	bnez	a0,800013be <.LBB0_6>
        rx_push(rd8(UART_RBR_THR));
    }
}
    800013bc:	8082                	ret

00000000800013be <.LBB0_6>:
    800013be:	00002617          	auipc	a2,0x2
    800013c2:	8e260613          	addi	a2,a2,-1822 # 80002ca0 <rx_head>

00000000800013c6 <.LBB0_7>:
    800013c6:	00002697          	auipc	a3,0x2
    800013ca:	8dc68693          	addi	a3,a3,-1828 # 80002ca2 <rx_tail>

00000000800013ce <.LBB0_8>:
    800013ce:	00002897          	auipc	a7,0x2
    800013d2:	8ea88893          	addi	a7,a7,-1814 # 80002cb8 <rx_buf>
    800013d6:	a029                	j	800013e0 <.LBB0_8+0x12>
static inline uint8_t rd8(volatile uint32_t *r) { return (uint8_t)(*r); }
    800013d8:	0005e503          	lwu	a0,0(a1)
    while (rd8(UART_LSR) & LSR_DR) {
    800013dc:	8905                	andi	a0,a0,1
    800013de:	dd79                	beqz	a0,800013bc <handle_uart_irq+0x10>
static inline uint8_t rd8(volatile uint32_t *r) { return (uint8_t)(*r); }
    800013e0:	00086783          	lwu	a5,0(a6)
    uint16_t n = (uint16_t)((rx_head + 1) % RX_BUF_SZ);
    800013e4:	00061503          	lh	a0,0(a2)
    if (n != rx_tail) { rx_buf[rx_head] = c; rx_head = n; } // 满则丢
    800013e8:	0006d703          	lhu	a4,0(a3)
    uint16_t n = (uint16_t)((rx_head + 1) % RX_BUF_SZ);
    800013ec:	0505                	addi	a0,a0,1
    800013ee:	0ff57513          	zext.b	a0,a0
    if (n != rx_tail) { rx_buf[rx_head] = c; rx_head = n; } // 满则丢
    800013f2:	fee503e3          	beq	a0,a4,800013d8 <.LBB0_8+0xa>
    800013f6:	00065703          	lhu	a4,0(a2)
    800013fa:	9746                	add	a4,a4,a7
    800013fc:	00f70023          	sb	a5,0(a4)
    80001400:	00a61023          	sh	a0,0(a2)
    80001404:	bfd1                	j	800013d8 <.LBB0_8+0xa>

0000000080001406 <uart_init>:

// ===== 初始化：设置波特率/格式，开启接收中断 =====
void uart_init(uint32_t sys_clk_hz, uint32_t baud_rate) {
    80001406:	10000637          	lui	a2,0x10000
    8000140a:	0046069b          	addiw	a3,a2,4 # 10000004 <UART0_BASE+0x4>
static inline void wr8(volatile uint32_t *r, uint8_t v) { *r = v; }
    8000140e:	0006a023          	sw	zero,0(a3)
    80001412:	00c6071b          	addiw	a4,a2,12
    80001416:	08000793          	li	a5,128
    8000141a:	c31c                	sw	a5,0(a4)
    // 关中断
    wr8(UART_IER, 0x00);

    // 波特率（DLAB=1）
    wr8(UART_LCR, LCR_DLAB);
    uint16_t div = (uint16_t)(sys_clk_hz / (baud_rate * 16u));
    8000141c:	0045959b          	slliw	a1,a1,0x4
    80001420:	02b5553b          	divuw	a0,a0,a1
static inline void wr8(volatile uint32_t *r, uint8_t v) { *r = v; }
    80001424:	0ff57593          	zext.b	a1,a0
    80001428:	c20c                	sw	a1,0(a2)
    wr8(UART_DLL, (uint8_t)(div & 0xFF));
    wr8(UART_DLM, (uint8_t)((div >> 8) & 0xFF));
    8000142a:	8121                	srli	a0,a0,0x8
static inline void wr8(volatile uint32_t *r, uint8_t v) { *r = v; }
    8000142c:	0ff57513          	zext.b	a0,a0
    80001430:	c288                	sw	a0,0(a3)
    80001432:	0086059b          	addiw	a1,a2,8
    80001436:	02000513          	li	a0,32
    8000143a:	c188                	sw	a0,0(a1)
    8000143c:	450d                	li	a0,3
    8000143e:	c308                	sw	a0,0(a4)
    80001440:	451d                	li	a0,7
    80001442:	c188                	sw	a0,0(a1)
    80001444:	0106051b          	addiw	a0,a2,16
    80001448:	472d                	li	a4,11
    8000144a:	c118                	sw	a4,0(a0)
    8000144c:	4505                	li	a0,1
    8000144e:	c288                	sw	a0,0(a3)
    80001450:	0146051b          	addiw	a0,a2,20
static inline uint8_t rd8(volatile uint32_t *r) { return (uint8_t)(*r); }
    80001454:	4114                	lw	a3,0(a0)
    80001456:	418c                	lw	a1,0(a1)
    80001458:	00056583          	lwu	a1,0(a0)
    wr8(UART_IER, IER_ERBFI);

    // 清残留
    (void)rd8(UART_LSR);
    (void)rd8(UART_IIR_FCR);
    while (rd8(UART_LSR) & LSR_DR) (void)rd8(UART_RBR_THR);
    8000145c:	8985                	andi	a1,a1,1
    8000145e:	c199                	beqz	a1,80001464 <uart_init+0x5e>
static inline uint8_t rd8(volatile uint32_t *r) { return (uint8_t)(*r); }
    80001460:	420c                	lw	a1,0(a2)
    80001462:	bfdd                	j	80001458 <uart_init+0x52>
}
    80001464:	8082                	ret

0000000080001466 <_write>:

// ===== 轮询发送（供 printf 使用）=====
int _write(int fd, const void *buf, size_t cnt) {
    80001466:	4705                	li	a4,1
    80001468:	56fd                	li	a3,-1
    if (fd != 1) return -1;
    8000146a:	02e51663          	bne	a0,a4,80001496 <_write+0x30>
    const uint8_t *p = (const uint8_t *)buf;
    for (size_t i = 0; i < cnt; i++) {
    8000146e:	c21d                	beqz	a2,80001494 <_write+0x2e>
    80001470:	4501                	li	a0,0
    80001472:	100006b7          	lui	a3,0x10000
    80001476:	0146871b          	addiw	a4,a3,20 # 10000014 <UART0_BASE+0x14>
static inline uint8_t rd8(volatile uint32_t *r) { return (uint8_t)(*r); }
    8000147a:	00076783          	lwu	a5,0(a4)
        while ((rd8(UART_LSR) & LSR_THRE) == 0) { }
    8000147e:	0207f793          	andi	a5,a5,32
    80001482:	dfe5                	beqz	a5,8000147a <_write+0x14>
        wr8(UART_RBR_THR, p[i]);
    80001484:	00a587b3          	add	a5,a1,a0
    80001488:	0007c783          	lbu	a5,0(a5)
    for (size_t i = 0; i < cnt; i++) {
    8000148c:	0505                	addi	a0,a0,1
static inline void wr8(volatile uint32_t *r, uint8_t v) { *r = v; }
    8000148e:	c29c                	sw	a5,0(a3)
    for (size_t i = 0; i < cnt; i++) {
    80001490:	fec515e3          	bne	a0,a2,8000147a <_write+0x14>
    80001494:	86b2                	mv	a3,a2
    }
    return (int)cnt;
}
    80001496:	0006851b          	sext.w	a0,a3
    8000149a:	8082                	ret

000000008000149c <_read>:

// ===== 中断驱动读取：从环形缓冲取，空时 wfi 等待并轮询兜底 =====
int _read(int fd, void *buf, size_t cnt) {
    8000149c:	56fd                	li	a3,-1
    if (fd != 0) return -1;
    8000149e:	c501                	beqz	a0,800014a6 <_read+0xa>
            asm volatile("wfi"); // 等待中断
        }
        if (!rx_empty()) p[i++] = rx_pop();
    }
    return (int)cnt;
}
    800014a0:	0006851b          	sext.w	a0,a3
    800014a4:	8082                	ret
    while (i < cnt) {
    800014a6:	c25d                	beqz	a2,8000154c <.LBB3_15+0x8a>
    800014a8:	4381                	li	t2,0

00000000800014aa <.LBB3_13>:
    800014aa:	00001517          	auipc	a0,0x1
    800014ae:	7f650513          	addi	a0,a0,2038 # 80002ca0 <rx_head>

00000000800014b2 <.LBB3_14>:
    800014b2:	00001697          	auipc	a3,0x1
    800014b6:	7f068693          	addi	a3,a3,2032 # 80002ca2 <rx_tail>
    800014ba:	10000837          	lui	a6,0x10000
    800014be:	01480e9b          	addiw	t4,a6,20 # 10000014 <UART0_BASE+0x14>

00000000800014c2 <.LBB3_15>:
    800014c2:	00001897          	auipc	a7,0x1
    800014c6:	7f688893          	addi	a7,a7,2038 # 80002cb8 <rx_buf>
    800014ca:	a019                	j	800014d0 <.LBB3_15+0xe>
    800014cc:	08c3f063          	bgeu	t2,a2,8000154c <.LBB3_15+0x8a>
static inline int rx_empty(void) { return rx_head == rx_tail; }
    800014d0:	00055283          	lhu	t0,0(a0)
    800014d4:	0006d783          	lhu	a5,0(a3)
        while (rx_empty()) {
    800014d8:	04f29263          	bne	t0,a5,8000151c <.LBB3_15+0x5a>
static inline uint8_t rd8(volatile uint32_t *r) { return (uint8_t)(*r); }
    800014dc:	000ee783          	lwu	a5,0(t4)
            if (rd8(UART_LSR) & LSR_DR) {
    800014e0:	8b85                	andi	a5,a5,1
    800014e2:	eb91                	bnez	a5,800014f6 <.LBB3_15+0x34>
            asm volatile("wfi"); // 等待中断
    800014e4:	10500073          	wfi
static inline int rx_empty(void) { return rx_head == rx_tail; }
    800014e8:	00055783          	lhu	a5,0(a0)
    800014ec:	0006d703          	lhu	a4,0(a3)
        while (rx_empty()) {
    800014f0:	fee786e3          	beq	a5,a4,800014dc <.LBB3_15+0x1a>
    800014f4:	a025                	j	8000151c <.LBB3_15+0x5a>
static inline uint8_t rd8(volatile uint32_t *r) { return (uint8_t)(*r); }
    800014f6:	00086283          	lwu	t0,0(a6)
    uint16_t n = (uint16_t)((rx_head + 1) % RX_BUF_SZ);
    800014fa:	00051303          	lh	t1,0(a0)
    if (n != rx_tail) { rx_buf[rx_head] = c; rx_head = n; } // 满则丢
    800014fe:	0006de03          	lhu	t3,0(a3)
    uint16_t n = (uint16_t)((rx_head + 1) % RX_BUF_SZ);
    80001502:	00130793          	addi	a5,t1,1
    80001506:	0ff7f313          	zext.b	t1,a5
    if (n != rx_tail) { rx_buf[rx_head] = c; rx_head = n; } // 满则丢
    8000150a:	01c30963          	beq	t1,t3,8000151c <.LBB3_15+0x5a>
    8000150e:	00055783          	lhu	a5,0(a0)
    80001512:	97c6                	add	a5,a5,a7
    80001514:	00578023          	sb	t0,0(a5)
    80001518:	00651023          	sh	t1,0(a0)
static inline int rx_empty(void) { return rx_head == rx_tail; }
    8000151c:	00055703          	lhu	a4,0(a0)
    80001520:	0006d783          	lhu	a5,0(a3)
        if (!rx_empty()) p[i++] = rx_pop();
    80001524:	faf704e3          	beq	a4,a5,800014cc <.LBB3_15+0xa>
    uint8_t c = rx_buf[rx_tail];
    80001528:	0006d703          	lhu	a4,0(a3)
    8000152c:	9746                	add	a4,a4,a7
    8000152e:	00070703          	lb	a4,0(a4)
    rx_tail = (uint16_t)((rx_tail + 1) % RX_BUF_SZ);
    80001532:	00069783          	lh	a5,0(a3)
    80001536:	0785                	addi	a5,a5,1
    80001538:	0ff7f793          	zext.b	a5,a5
    8000153c:	00f69023          	sh	a5,0(a3)
        if (!rx_empty()) p[i++] = rx_pop();
    80001540:	007587b3          	add	a5,a1,t2
    80001544:	0385                	addi	t2,t2,1
    80001546:	00e78023          	sb	a4,0(a5)
    8000154a:	b749                	j	800014cc <.LBB3_15+0xa>
    8000154c:	86b2                	mv	a3,a2
}
    8000154e:	0006851b          	sext.w	a0,a3
    80001552:	8082                	ret

0000000080001554 <_sbrk>:

void* _sbrk(int incr) {
    extern char _end[];
    static char *heap_end;
    if (heap_end == 0) heap_end = _end;
    80001554:	00001617          	auipc	a2,0x1
    80001558:	74460613          	addi	a2,a2,1860 # 80002c98 <_sbrk.heap_end>
    8000155c:	620c                	ld	a1,0(a2)
    8000155e:	e591                	bnez	a1,8000156a <.LBB4_4+0xa>

0000000080001560 <.LBB4_4>:
    80001560:	00002597          	auipc	a1,0x2
    80001564:	8a458593          	addi	a1,a1,-1884 # 80002e04 <_end>
    80001568:	e20c                	sd	a1,0(a2)
    char *prev_heap_end = heap_end;
    8000156a:	620c                	ld	a1,0(a2)
    heap_end += incr;
    8000156c:	952e                	add	a0,a0,a1
    8000156e:	e208                	sd	a0,0(a2)
    return (void *)prev_heap_end;
    80001570:	852e                	mv	a0,a1
    80001572:	8082                	ret

0000000080001574 <plic_init_uart>:
#include "plic.h"

static inline void w32(uintptr_t a, uint32_t v){ *(volatile uint32_t*)a = v; }
static inline uint32_t r32(uintptr_t a){ return *(volatile uint32_t*)a; }

void plic_init_uart(void) {
    80001574:	0c000537          	lui	a0,0xc000
    80001578:	2511                	addiw	a0,a0,4 # c000004 <.Lline_table_start0+0xbffd8e4>
    8000157a:	4585                	li	a1,1
static inline void w32(uintptr_t a, uint32_t v){ *(volatile uint32_t*)a = v; }
    8000157c:	c10c                	sw	a1,0(a0)
    8000157e:	0c002537          	lui	a0,0xc002
static inline uint32_t r32(uintptr_t a){ return *(volatile uint32_t*)a; }
    80001582:	410c                	lw	a1,0(a0)
    // 1) priority > 0
    w32(PLIC_PRIORITY(UART0_IRQ_ID), 1);
    // 2) enable hart0 的该源（这里只示例 1..32）
    uintptr_t en = PLIC_ENABLE(HART0);
    uint32_t m = r32(en);
    m |= (1u << (UART0_IRQ_ID % 32));
    80001584:	0025e593          	ori	a1,a1,2
static inline void w32(uintptr_t a, uint32_t v){ *(volatile uint32_t*)a = v; }
    80001588:	c10c                	sw	a1,0(a0)
    8000158a:	0c200537          	lui	a0,0xc200
    8000158e:	00052023          	sw	zero,0(a0) # c200000 <.Lline_table_start0+0xc1fd8e0>
    w32(en, m);
    // 3) threshold = 0
    w32(PLIC_THRESHOLD(CTX_M(HART0)), 0);
}
    80001592:	8082                	ret

0000000080001594 <plic_enable_machine_irqs>:

void plic_enable_machine_irqs(void) {
    80001594:	6505                	lui	a0,0x1
    80001596:	8005051b          	addiw	a0,a0,-2048 # 800 <putchar.buflen+0x7c0>
    const unsigned long MIE_MEIE = 1ul << 11;
    const unsigned long MSTATUS_MIE = 1ul << 3;
    asm volatile ("csrs mie, %0" :: "r"(MIE_MEIE) : "memory");
    8000159a:	30452073          	csrs	mie,a0
    8000159e:	4521                	li	a0,8
    asm volatile ("csrs mstatus, %0" :: "r"(MSTATUS_MIE) : "memory");
    800015a0:	30052073          	csrs	mstatus,a0
}
    800015a4:	8082                	ret

00000000800015a6 <plic_claim>:

uint32_t plic_claim(void) {
    800015a6:	0c200537          	lui	a0,0xc200
    800015aa:	2511                	addiw	a0,a0,4 # c200004 <.Lline_table_start0+0xc1fd8e4>
static inline uint32_t r32(uintptr_t a){ return *(volatile uint32_t*)a; }
    800015ac:	4108                	lw	a0,0(a0)
    return r32(PLIC_CLAIM(CTX_M(HART0)));
    800015ae:	8082                	ret

00000000800015b0 <plic_complete>:
}

void plic_complete(uint32_t id) {
    if (id) w32(PLIC_CLAIM(CTX_M(HART0)), id);
    800015b0:	c509                	beqz	a0,800015ba <plic_complete+0xa>
    800015b2:	0c2005b7          	lui	a1,0xc200
    800015b6:	2591                	addiw	a1,a1,4 # c200004 <.Lline_table_start0+0xc1fd8e4>
static inline void w32(uintptr_t a, uint32_t v){ *(volatile uint32_t*)a = v; }
    800015b8:	c188                	sw	a0,0(a1)
    800015ba:	8082                	ret

00000000800015bc <handle_trap>:

// 由 uart_driver.c 提供
void handle_uart_irq(void);

// 简化版陷阱处理：处理 Machine External Interrupt，其他直接返回
uintptr_t handle_trap(uintptr_t cause, uintptr_t epc, uintptr_t regs[32]) {
    800015bc:	1101                	addi	sp,sp,-32
    800015be:	ec06                	sd	ra,24(sp)
    800015c0:	e822                	sd	s0,16(sp)
    800015c2:	e426                	sd	s1,8(sp)
    800015c4:	567d                	li	a2,-1
    800015c6:	167e                	slli	a2,a2,0x3f
    800015c8:	062d                	addi	a2,a2,11
    800015ca:	842e                	mv	s0,a1
    // 最高位=1 表示中断
    if (cause >> (sizeof(uintptr_t)*8 - 1)) {
    800015cc:	02c51363          	bne	a0,a2,800015f2 <handle_trap+0x36>
        uintptr_t code = cause & ((1UL << (sizeof(uintptr_t)*8 - 1)) - 1);
        if (code == 11) { // Machine external interrupt
            uint32_t id = plic_claim();
    800015d0:	00000097          	auipc	ra,0x0
    800015d4:	fd6080e7          	jalr	-42(ra) # 800015a6 <plic_claim>
    800015d8:	4585                	li	a1,1
    800015da:	84aa                	mv	s1,a0
            if (id == UART0_IRQ_ID) {
    800015dc:	00b51663          	bne	a0,a1,800015e8 <handle_trap+0x2c>
                handle_uart_irq();
    800015e0:	00000097          	auipc	ra,0x0
    800015e4:	dcc080e7          	jalr	-564(ra) # 800013ac <handle_uart_irq>
            }
            plic_complete(id);
    800015e8:	8526                	mv	a0,s1
    800015ea:	00000097          	auipc	ra,0x0
    800015ee:	fc6080e7          	jalr	-58(ra) # 800015b0 <plic_complete>
            return epc;
        }
    }
    return epc;
    800015f2:	8522                	mv	a0,s0
    800015f4:	64a2                	ld	s1,8(sp)
    800015f6:	6442                	ld	s0,16(sp)
    800015f8:	60e2                	ld	ra,24(sp)
    800015fa:	6105                	addi	sp,sp,32
    800015fc:	8082                	ret
