	.attribute	4, 16
	.attribute	5, "rv64i2p1_m2p0_a2p1_f2p2_d2p2_c2p0_v1p0_zicsr2p0_zifencei2p0_zmmul1p0_zaamo1p0_zalrsc1p0_zfh1p0_zfhmin1p0_zca1p0_zcd1p0_zve32f1p0_zve32x1p0_zve64d1p0_zve64f1p0_zve64x1p0_zvfh1p0_zvfhmin1p0_zvl128b1p0_zvl32b1p0_zvl64b1p0"
	.file	"test.c"
	.file	0 "/mnt/d/riscv-dnn/test/ops/softmax" "test.c" md5 0xf79f56bc39e3509da4708e56198a7e9a
	.file	1 "/home/xl2025/opt/riscv/riscv64-unknown-elf/include/sys" "_types.h" md5 0x17b5691773b3e3881dfdbe392c9e8d43
	.file	2 "/home/xl2025/opt/riscv/riscv64-unknown-elf/include" "strings.h" md5 0xdceb1b71cd72987b246237af8552faba
	.text
	.hidden	main                            # -- Begin function main
	.globl	main
	.p2align	1
	.type	main,@function
main:                                   # @main
.Lfunc_begin0:
	.cfi_sections .debug_frame
	.cfi_startproc
# %bb.0:
	#DEBUG_VALUE: main:a <- 1
	#DEBUG_VALUE: main:b <- 2
	#DEBUG_VALUE: main:c <- [DW_OP_plus_uconst 2, DW_OP_stack_value] 1
	.loc	0 115 5 prologue_end            # test.c:115:5
	li	a0, 0
	ret
.Ltmp0:
.Lfunc_end0:
	.size	main, .Lfunc_end0-main
	.cfi_endproc
                                        # -- End function
	.hidden	softmax_stable_rvv_fp32         # -- Begin function softmax_stable_rvv_fp32
	.globl	softmax_stable_rvv_fp32
	.p2align	1
	.type	softmax_stable_rvv_fp32,@function
softmax_stable_rvv_fp32:                # @softmax_stable_rvv_fp32
.Lfunc_begin1:
	.loc	0 120 0                         # test.c:120:0
	.cfi_startproc
# %bb.0:
	#DEBUG_VALUE: softmax_stable_rvv_fp32:dst <- $x10
	#DEBUG_VALUE: softmax_stable_rvv_fp32:src <- $x11
	#DEBUG_VALUE: softmax_stable_rvv_fp32:n <- $x12
	addi	sp, sp, -64
	.cfi_def_cfa_offset 64
	sd	s0, 56(sp)                      # 8-byte Folded Spill
	sd	s1, 48(sp)                      # 8-byte Folded Spill
	sd	s2, 40(sp)                      # 8-byte Folded Spill
	.cfi_offset s0, -8
	.cfi_offset s1, -16
	.cfi_offset s2, -24
	csrr	a3, vlenb
	li	a4, 91
	mul	a3, a3, a4
	sub	sp, sp, a3
	.cfi_escape 0x0f, 0x0f, 0x72, 0x00, 0x11, 0xc0, 0x00, 0x22, 0x11, 0xdb, 0x00, 0x92, 0xa2, 0x38, 0x00, 0x1e, 0x22 # sp + 64 + 91 * vlenb
.Ltmp1:
	.loc	0 122 24 prologue_end           # test.c:122:24
	vsetivli	zero, 1, e32, m1, ta, ma
.Ltmp2:
	#DEBUG_VALUE: softmax_stable_rvv_fp32:vl1 <- undef
	.loc	0 0 24 is_stmt 0                # test.c:0:24
	lui	a6, 262144
.Ltmp3:
	#DEBUG_VALUE: softmax_stable_rvv_fp32:vzero1 <- undef
	lui	a3, 205501
	lui	a5, 1046528
.Ltmp4:
	#DEBUG_VALUE: softmax_stable_rvv_fp32:veps1 <- undef
	addi	a7, a3, -905
.Ltmp5:
	#DEBUG_VALUE: softmax_stable_rvv_fp32:vtwo1 <- undef
	.loc	0 126 64 is_stmt 1              # test.c:126:64
	vmv.v.x	v8, a5
.Ltmp6:
	#DEBUG_VALUE: softmax_stable_rvv_fp32:vneginf1 <- undef
	#DEBUG_VALUE: softmax_stable_rvv_fp32:vlm8 <- undef
	#DEBUG_VALUE: softmax_stable_rvv_fp32:viln2_8 <- undef
	#DEBUG_VALUE: softmax_stable_rvv_fp32:vln2_hi_8 <- undef
	#DEBUG_VALUE: softmax_stable_rvv_fp32:vln2_lo_8 <- undef
	#DEBUG_VALUE: softmax_stable_rvv_fp32:pc0_8 <- undef
	#DEBUG_VALUE: softmax_stable_rvv_fp32:pc1_8 <- undef
	#DEBUG_VALUE: softmax_stable_rvv_fp32:pc2_8 <- undef
	#DEBUG_VALUE: softmax_stable_rvv_fp32:pc3_8 <- undef
	#DEBUG_VALUE: softmax_stable_rvv_fp32:pc4_8 <- undef
	#DEBUG_VALUE: softmax_stable_rvv_fp32:pc5_8 <- undef
	#DEBUG_VALUE: softmax_stable_rvv_fp32:pc6_8 <- undef
	#DEBUG_VALUE: softmax_stable_rvv_fp32:pc7_8 <- undef
	#DEBUG_VALUE: softmax_stable_rvv_fp32:src_orig <- undef
	#DEBUG_VALUE: softmax_stable_rvv_fp32:avl <- $x12
	#DEBUG_VALUE: softmax_stable_rvv_fp32:pc8_8 <- undef
	#DEBUG_VALUE: softmax_stable_rvv_fp32:vmax1 <- undef
	.loc	0 148 5                         # test.c:148:5
	beqz	a2, .LBB1_4
.Ltmp7:
# %bb.1:
	#DEBUG_VALUE: softmax_stable_rvv_fp32:avl <- $x12
	#DEBUG_VALUE: softmax_stable_rvv_fp32:n <- $x12
	#DEBUG_VALUE: softmax_stable_rvv_fp32:src <- $x11
	#DEBUG_VALUE: softmax_stable_rvv_fp32:dst <- $x10
	.loc	0 0 5 is_stmt 0                 # test.c:0:5
	mv	a5, a1
	mv	a3, a2
	vmv1r.v	v9, v8
.Ltmp8:
.LBB1_2:                                # =>This Inner Loop Header: Depth=1
	#DEBUG_VALUE: softmax_stable_rvv_fp32:n <- $x12
	#DEBUG_VALUE: softmax_stable_rvv_fp32:dst <- $x10
	#DEBUG_VALUE: softmax_stable_rvv_fp32:src <- $x15
	#DEBUG_VALUE: softmax_stable_rvv_fp32:avl <- $x13
	#DEBUG_VALUE: softmax_stable_rvv_fp32:vmax1 <- undef
	.loc	0 149 21 is_stmt 1              # test.c:149:21
	vsetvli	a4, a3, e32, m8, ta, ma
.Ltmp9:
	#DEBUG_VALUE: vl <- $x14
	.loc	0 150 27                        # test.c:150:27
	vle32.v	v16, (a5)
.Ltmp10:
	#DEBUG_VALUE: vx <- undef
	.loc	0 153 13                        # test.c:153:13
	sub	a3, a3, a4
.Ltmp11:
	#DEBUG_VALUE: softmax_stable_rvv_fp32:avl <- $x13
	.loc	0 151 32                        # test.c:151:32
	vfredmax.vs	v10, v16, v8
.Ltmp12:
	#DEBUG_VALUE: blk_max <- undef
	.loc	0 153 24                        # test.c:153:24
	slli	a4, a4, 2
.Ltmp13:
	.loc	0 152 17                        # test.c:152:17
	vsetivli	zero, 1, e32, m1, ta, ma
	vfmax.vv	v9, v9, v10
	.loc	0 153 24                        # test.c:153:24
	add	a5, a5, a4
.Ltmp14:
	#DEBUG_VALUE: softmax_stable_rvv_fp32:src <- $x15
	.loc	0 148 5                         # test.c:148:5
	bnez	a3, .LBB1_2
.Ltmp15:
# %bb.3:
	#DEBUG_VALUE: softmax_stable_rvv_fp32:avl <- $x13
	#DEBUG_VALUE: softmax_stable_rvv_fp32:src <- $x15
	#DEBUG_VALUE: softmax_stable_rvv_fp32:n <- $x12
	#DEBUG_VALUE: softmax_stable_rvv_fp32:dst <- $x10
	.loc	0 0 5 is_stmt 0                 # test.c:0:5
	vmv1r.v	v8, v9
.Ltmp16:
.LBB1_4:
	#DEBUG_VALUE: softmax_stable_rvv_fp32:n <- $x12
	#DEBUG_VALUE: softmax_stable_rvv_fp32:dst <- $x10
	#DEBUG_VALUE: softmax_stable_rvv_fp32:vzero1 <- undef
	#DEBUG_VALUE: softmax_stable_rvv_fp32:vlm8 <- undef
	vmv.v.x	v9, a6
.Ltmp17:
	#DEBUG_VALUE: softmax_stable_rvv_fp32:vtwo1 <- undef
	csrr	a3, vlenb
	add	a3, a3, sp
	addi	a3, a3, 32
	vs1r.v	v9, (a3)                        # vscale x 8-byte Folded Spill
	vmv.v.x	v9, a7
.Ltmp18:
	#DEBUG_VALUE: softmax_stable_rvv_fp32:veps1 <- undef
	#DEBUG_VALUE: softmax_stable_rvv_fp32:viln2_8 <- undef
	#DEBUG_VALUE: softmax_stable_rvv_fp32:vln2_hi_8 <- undef
	#DEBUG_VALUE: softmax_stable_rvv_fp32:vln2_lo_8 <- undef
	#DEBUG_VALUE: softmax_stable_rvv_fp32:pc0_8 <- undef
	#DEBUG_VALUE: softmax_stable_rvv_fp32:pc1_8 <- undef
	#DEBUG_VALUE: softmax_stable_rvv_fp32:pc2_8 <- undef
	#DEBUG_VALUE: softmax_stable_rvv_fp32:pc3_8 <- undef
	#DEBUG_VALUE: softmax_stable_rvv_fp32:pc4_8 <- undef
	#DEBUG_VALUE: softmax_stable_rvv_fp32:pc5_8 <- undef
	#DEBUG_VALUE: softmax_stable_rvv_fp32:pc6_8 <- undef
	#DEBUG_VALUE: softmax_stable_rvv_fp32:pc7_8 <- undef
	#DEBUG_VALUE: softmax_stable_rvv_fp32:pc8_8 <- undef
	addi	a3, sp, 32
	vs1r.v	v9, (a3)                        # vscale x 8-byte Folded Spill
	addi	a3, sp, 20
	.loc	0 159 5                         # test.c:159:5
	vse32.v	v8, (a3)
.Ltmp19:
	#DEBUG_VALUE: softmax_stable_rvv_fp32:dst <- undef
	#DEBUG_VALUE: softmax_stable_rvv_fp32:src <- undef
	#DEBUG_VALUE: softmax_stable_rvv_fp32:vsum1 <- undef
	#DEBUG_VALUE: softmax_stable_rvv_fp32:dst_orig <- $x10
	#DEBUG_VALUE: softmax_stable_rvv_fp32:avl2 <- $x12
	.loc	0 165 5 is_stmt 1               # test.c:165:5
	beqz	a2, .LBB1_7
.Ltmp20:
# %bb.5:
	#DEBUG_VALUE: softmax_stable_rvv_fp32:avl2 <- $x12
	#DEBUG_VALUE: softmax_stable_rvv_fp32:dst_orig <- $x10
	#DEBUG_VALUE: softmax_stable_rvv_fp32:n <- $x12
	.loc	0 0 5 is_stmt 0                 # test.c:0:5
	li	a7, 0
	lui	a3, 261003
	lui	s0, 231425
	lui	t1, 254635
	lui	t2, 250539
	lui	t3, 245897
	lui	t4, 240481
	lui	t5, 237847
	lui	t6, 234095
	vsetvli	a5, zero, e32, m8, ta, ma
.Ltmp21:
	#DEBUG_VALUE: softmax_stable_rvv_fp32:vlm8 <- $x15
	lui	a5, 258839
.Ltmp22:
	#DEBUG_VALUE: softmax_stable_rvv_fp32:vlm8 <- $x15
	lui	a4, 260096
	lui	s1, 258048
	vmv.v.x	v8, a5
.Ltmp23:
	#DEBUG_VALUE: softmax_stable_rvv_fp32:vln2_hi_8 <- undef
	csrr	a5, vlenb
.Ltmp24:
	li	a6, 82
	mul	a5, a5, a6
	add	a5, a5, sp
	addi	a5, a5, 32
	vs8r.v	v8, (a5)                        # vscale x 64-byte Folded Spill
	lw	t0, 20(sp)
	vmv.v.x	v8, a4
.Ltmp25:
	#DEBUG_VALUE: softmax_stable_rvv_fp32:pc0_8 <- undef
	#DEBUG_VALUE: softmax_stable_rvv_fp32:pc1_8 <- undef
	csrr	a4, vlenb
	li	a5, 74
	mul	a4, a4, a5
	add	a4, a4, sp
	addi	a4, a4, 32
	vs8r.v	v8, (a4)                        # vscale x 64-byte Folded Spill
	li	a6, 127
	vmv.v.x	v8, s1
.Ltmp26:
	#DEBUG_VALUE: softmax_stable_rvv_fp32:pc2_8 <- undef
	csrr	a4, vlenb
	li	a5, 66
	mul	a4, a4, a5
	add	a4, a4, sp
	addi	a4, a4, 32
	vs8r.v	v8, (a4)                        # vscale x 64-byte Folded Spill
	mv	a5, a0
.Ltmp27:
	#DEBUG_VALUE: softmax_stable_rvv_fp32:vlm8 <- $x15
	addi	a3, a3, -1477
	vmv.v.x	v8, a3
.Ltmp28:
	#DEBUG_VALUE: softmax_stable_rvv_fp32:viln2_8 <- undef
	csrr	a3, vlenb
	li	a4, 58
	mul	a3, a3, a4
	add	a3, a3, sp
	addi	a3, a3, 32
	vs8r.v	v8, (a3)                        # vscale x 64-byte Folded Spill
	mv	a3, a2
	addi	a4, s0, -1024
	addi	s1, t1, -1365
	addi	s2, t2, -1365
	addi	t1, t3, -1911
	addi	t2, t4, -1183
	addi	t3, t5, 1492
	addi	t4, t6, -626
	vsetivli	zero, 1, e32, m1, ta, ma
	vmv.v.i	v8, 0
	vmv.v.i	v9, 0
	vsetvli	s0, zero, e32, m8, ta, ma
	vmv.v.x	v16, a4
.Ltmp29:
	#DEBUG_VALUE: softmax_stable_rvv_fp32:vln2_lo_8 <- undef
	csrr	a4, vlenb
	li	t5, 50
	mul	a4, a4, t5
	add	a4, a4, sp
	addi	a4, a4, 32
	vs8r.v	v16, (a4)                       # vscale x 64-byte Folded Spill
	vmv.v.x	v16, s1
.Ltmp30:
	#DEBUG_VALUE: softmax_stable_rvv_fp32:pc3_8 <- undef
	csrr	a4, vlenb
	li	t5, 42
	mul	a4, a4, t5
	add	a4, a4, sp
	addi	a4, a4, 32
	vs8r.v	v16, (a4)                       # vscale x 64-byte Folded Spill
	vmv.v.x	v16, s2
.Ltmp31:
	#DEBUG_VALUE: softmax_stable_rvv_fp32:pc4_8 <- undef
	csrr	a4, vlenb
	li	t5, 34
	mul	a4, a4, t5
	add	a4, a4, sp
	addi	a4, a4, 32
	vs8r.v	v16, (a4)                       # vscale x 64-byte Folded Spill
	vmv.v.x	v16, t1
.Ltmp32:
	#DEBUG_VALUE: softmax_stable_rvv_fp32:pc5_8 <- undef
	csrr	a4, vlenb
	li	t1, 26
	mul	a4, a4, t1
	add	a4, a4, sp
	addi	a4, a4, 32
	vs8r.v	v16, (a4)                       # vscale x 64-byte Folded Spill
	vmv.v.x	v16, t2
.Ltmp33:
	#DEBUG_VALUE: softmax_stable_rvv_fp32:pc6_8 <- undef
	csrr	a4, vlenb
	li	t1, 18
	mul	a4, a4, t1
	add	a4, a4, sp
	addi	a4, a4, 32
	vs8r.v	v16, (a4)                       # vscale x 64-byte Folded Spill
	vmv.v.x	v16, t3
.Ltmp34:
	#DEBUG_VALUE: softmax_stable_rvv_fp32:pc7_8 <- undef
	csrr	a4, vlenb
	li	t1, 10
	mul	a4, a4, t1
	add	a4, a4, sp
	addi	a4, a4, 32
	vs8r.v	v16, (a4)                       # vscale x 64-byte Folded Spill
	vmv.v.x	v16, t4
.Ltmp35:
	#DEBUG_VALUE: softmax_stable_rvv_fp32:pc8_8 <- undef
	csrr	a4, vlenb
	slli	a4, a4, 1
	add	a4, a4, sp
	addi	a4, a4, 32
	vs8r.v	v16, (a4)                       # vscale x 64-byte Folded Spill
.Ltmp36:
.LBB1_6:                                # =>This Inner Loop Header: Depth=1
	#DEBUG_VALUE: softmax_stable_rvv_fp32:dst_orig <- $x10
	#DEBUG_VALUE: softmax_stable_rvv_fp32:n <- $x12
	#DEBUG_VALUE: softmax_stable_rvv_fp32:dst <- $x15
	#DEBUG_VALUE: softmax_stable_rvv_fp32:src <- $x11
	#DEBUG_VALUE: softmax_stable_rvv_fp32:vsum1 <- undef
	#DEBUG_VALUE: softmax_stable_rvv_fp32:avl2 <- $x13
	csrr	a4, vlenb
	li	t1, 90
	mul	a4, a4, t1
	add	a4, a4, sp
	addi	a4, a4, 32
	vs1r.v	v9, (a4)                        # vscale x 8-byte Folded Spill
.Ltmp37:
	.loc	0 166 21 is_stmt 1              # test.c:166:21
	vsetvli	a4, a3, e32, m8, ta, ma
.Ltmp38:
	#DEBUG_VALUE: vl <- $x14
	.loc	0 168 27                        # test.c:168:27
	vle32.v	v8, (a1)
.Ltmp39:
	#DEBUG_VALUE: vx <- undef
	.loc	0 169 65                        # test.c:169:65
	vmv.v.x	v24, t0
.Ltmp40:
	#DEBUG_VALUE: vmaxB <- undef
	.loc	0 170 14                        # test.c:170:14
	vfsub.vv	v8, v8, v24
	csrr	t1, vlenb
	li	t2, 58
	mul	t1, t1, t2
	add	t1, t1, sp
	addi	t1, t1, 32
	vl8r.v	v16, (t1)                       # vscale x 64-byte Folded Reload
	.loc	0 174 31                        # test.c:174:31
	vfmul.vv	v24, v8, v16
.Ltmp41:
	#DEBUG_VALUE: vxiln2 <- undef
	.loc	0 175 31                        # test.c:175:31
	vfcvt.x.f.v	v24, v24
.Ltmp42:
	#DEBUG_VALUE: vk <- undef
	.loc	0 179 31                        # test.c:179:31
	vfcvt.f.x.v	v0, v24
.Ltmp43:
	#DEBUG_VALUE: vfk <- undef
	.loc	0 0 31 is_stmt 0                # test.c:0:31
	csrr	t1, vlenb
	li	t2, 82
	mul	t1, t1, t2
	add	t1, t1, sp
	addi	t1, t1, 32
	vl8r.v	v16, (t1)                       # vscale x 64-byte Folded Reload
	.loc	0 180 31 is_stmt 1              # test.c:180:31
	vfmul.vv	v16, v0, v16
.Ltmp44:
	#DEBUG_VALUE: vkl2hi <- undef
	.loc	0 182 31                        # test.c:182:31
	vfsub.vv	v8, v8, v16
.Ltmp45:
	#DEBUG_VALUE: vr <- undef
	.loc	0 0 31 is_stmt 0                # test.c:0:31
	csrr	t1, vlenb
	li	t2, 50
	mul	t1, t1, t2
	add	t1, t1, sp
	addi	t1, t1, 32
	vl8r.v	v16, (t1)                       # vscale x 64-byte Folded Reload
	.loc	0 181 31 is_stmt 1              # test.c:181:31
	vfmul.vv	v16, v0, v16
.Ltmp46:
	#DEBUG_VALUE: vkl2lo <- undef
	.loc	0 183 14                        # test.c:183:14
	vfsub.vv	v0, v8, v16
.Ltmp47:
	#DEBUG_VALUE: p <- undef
	.loc	0 0 14 is_stmt 0                # test.c:0:14
	csrr	t1, vlenb
	slli	t1, t1, 1
	add	t1, t1, sp
	addi	t1, t1, 32
	vl8r.v	v8, (t1)                        # vscale x 64-byte Folded Reload
	csrr	t1, vlenb
	li	t2, 10
	mul	t1, t1, t2
	add	t1, t1, sp
	addi	t1, t1, 32
	vl8r.v	v16, (t1)                       # vscale x 64-byte Folded Reload
	.loc	0 187 13 is_stmt 1              # test.c:187:13
	vfmadd.vv	v8, v0, v16
	csrr	t1, vlenb
	li	t2, 18
	mul	t1, t1, t2
	add	t1, t1, sp
	addi	t1, t1, 32
	vl8r.v	v16, (t1)                       # vscale x 64-byte Folded Reload
	.loc	0 188 13                        # test.c:188:13
	vfmadd.vv	v8, v0, v16
	csrr	t1, vlenb
	li	t2, 26
	mul	t1, t1, t2
	add	t1, t1, sp
	addi	t1, t1, 32
	vl8r.v	v16, (t1)                       # vscale x 64-byte Folded Reload
	.loc	0 189 13                        # test.c:189:13
	vfmadd.vv	v8, v0, v16
	csrr	t1, vlenb
	li	t2, 34
	mul	t1, t1, t2
	add	t1, t1, sp
	addi	t1, t1, 32
	vl8r.v	v16, (t1)                       # vscale x 64-byte Folded Reload
	.loc	0 190 13                        # test.c:190:13
	vfmadd.vv	v8, v0, v16
	csrr	t1, vlenb
	li	t2, 42
	mul	t1, t1, t2
	add	t1, t1, sp
	addi	t1, t1, 32
	vl8r.v	v16, (t1)                       # vscale x 64-byte Folded Reload
	.loc	0 191 13                        # test.c:191:13
	vfmadd.vv	v8, v0, v16
	csrr	t1, vlenb
	li	t2, 66
	mul	t1, t1, t2
	add	t1, t1, sp
	addi	t1, t1, 32
	vl8r.v	v16, (t1)                       # vscale x 64-byte Folded Reload
	.loc	0 192 13                        # test.c:192:13
	vfmadd.vv	v8, v0, v16
	csrr	t1, vlenb
	li	t2, 74
	mul	t1, t1, t2
	add	t1, t1, sp
	addi	t1, t1, 32
	vl8r.v	v16, (t1)                       # vscale x 64-byte Folded Reload
	.loc	0 193 13                        # test.c:193:13
	vfmadd.vv	v8, v0, v16
	.loc	0 194 13                        # test.c:194:13
	vfmadd.vv	v8, v0, v16
.Ltmp48:
	#DEBUG_VALUE: exp_bias <- 127
	.loc	0 198 30                        # test.c:198:30
	vadd.vx	v16, v24, a6
.Ltmp49:
	#DEBUG_VALUE: vbiased <- undef
	.loc	0 199 30                        # test.c:199:30
	vsll.vi	v16, v16, 23
.Ltmp50:
	#DEBUG_VALUE: vexp2 <- undef
	#DEBUG_VALUE: vf2k <- undef
	.loc	0 202 30                        # test.c:202:30
	vfmul.vv	v8, v8, v16
.Ltmp51:
	#DEBUG_VALUE: vexp8 <- undef
	.loc	0 173 27                        # test.c:173:27
	#APP
	frrm	s1
	#NO_APP
.Ltmp52:
	#DEBUG_VALUE: old_frm <- $x9
	.loc	0 173 73                        # test.c:173:73
	#APP
	fsrm	a7
	#NO_APP
	.loc	0 176 9                         # test.c:176:9
	#APP
	fsrm	s1
	#NO_APP
	.loc	0 203 9 is_stmt 0               # test.c:203:9
	vsetvli	zero, a3, e32, m8, ta, ma
	vse32.v	v8, (a5)
	.loc	0 206 29 is_stmt 1              # test.c:206:29
	vsetivli	zero, 1, e32, m1, ta, ma
	vmv.v.i	v16, 0
	vsetvli	zero, a3, e32, m8, ta, ma
	vfredosum.vs	v8, v8, v16
.Ltmp53:
	#DEBUG_VALUE: vblk <- undef
	.loc	0 0 29 is_stmt 0                # test.c:0:29
	csrr	t1, vlenb
	li	t2, 90
	mul	t1, t1, t2
	add	t1, t1, sp
	addi	t1, t1, 32
	vl1r.v	v9, (t1)                        # vscale x 8-byte Folded Reload
	.loc	0 207 17 is_stmt 1              # test.c:207:17
	vsetivli	zero, 1, e32, m1, ta, ma
	vfadd.vv	v9, v9, v8
	.loc	0 209 14                        # test.c:209:14
	sub	a3, a3, a4
.Ltmp54:
	#DEBUG_VALUE: softmax_stable_rvv_fp32:avl2 <- $x13
	.loc	0 209 25                        # test.c:209:25
	slli	a4, a4, 2
.Ltmp55:
	add	a1, a1, a4
.Ltmp56:
	#DEBUG_VALUE: softmax_stable_rvv_fp32:src <- $x11
	.loc	0 209 36                        # test.c:209:36
	add	a5, a5, a4
.Ltmp57:
	#DEBUG_VALUE: softmax_stable_rvv_fp32:dst <- $x15
	.loc	0 165 5                         # test.c:165:5
	bnez	a3, .LBB1_6
	j	.LBB1_8
.Ltmp58:
.LBB1_7:
	#DEBUG_VALUE: softmax_stable_rvv_fp32:avl2 <- $x12
	#DEBUG_VALUE: softmax_stable_rvv_fp32:dst_orig <- $x10
	#DEBUG_VALUE: softmax_stable_rvv_fp32:n <- $x12
	.loc	0 0 5 is_stmt 0                 # test.c:0:5
	vmv.v.i	v8, 0
	vmv1r.v	v9, v8
.Ltmp59:
.LBB1_8:
	#DEBUG_VALUE: softmax_stable_rvv_fp32:dst_orig <- $x10
	#DEBUG_VALUE: softmax_stable_rvv_fp32:n <- $x12
	addi	a1, sp, 32
	vl1r.v	v8, (a1)                        # vscale x 8-byte Folded Reload
	.loc	0 213 30 is_stmt 1              # test.c:213:30
	vfadd.vv	v8, v9, v8
.Ltmp60:
	#DEBUG_VALUE: softmax_stable_rvv_fp32:vsum1_eps <- undef
	.loc	0 214 26                        # test.c:214:26
	vfrec7.v	v9, v8
.Ltmp61:
	#DEBUG_VALUE: softmax_stable_rvv_fp32:vinv1 <- undef
	.loc	0 215 25                        # test.c:215:25
	vmv1r.v	v10, v8
	csrr	a1, vlenb
	add	a1, a1, sp
	addi	a1, a1, 32
	vl1r.v	v11, (a1)                       # vscale x 8-byte Folded Reload
	vfnmsub.vv	v10, v9, v11
.Ltmp62:
	#DEBUG_VALUE: softmax_stable_rvv_fp32:corr <- undef
	.loc	0 216 13                        # test.c:216:13
	vfmul.vv	v9, v9, v10
	.loc	0 217 13                        # test.c:217:13
	vfnmsub.vv	v8, v9, v11
	.loc	0 218 13                        # test.c:218:13
	vfmul.vv	v8, v9, v8
	addi	a1, sp, 16
	.loc	0 222 5 is_stmt 0               # test.c:222:5
	vse32.v	v8, (a1)
.Ltmp63:
	#DEBUG_VALUE: softmax_stable_rvv_fp32:dst <- undef
	#DEBUG_VALUE: softmax_stable_rvv_fp32:avl3 <- $x12
	.loc	0 226 5 is_stmt 1               # test.c:226:5
	beqz	a2, .LBB1_12
.Ltmp64:
# %bb.9:
	#DEBUG_VALUE: softmax_stable_rvv_fp32:avl3 <- $x12
	#DEBUG_VALUE: softmax_stable_rvv_fp32:dst_orig <- $x10
	#DEBUG_VALUE: softmax_stable_rvv_fp32:n <- $x12
	.loc	0 0 5 is_stmt 0                 # test.c:0:5
	lw	a1, 16(sp)
	mv	a3, a0
	mv	a4, a2
.Ltmp65:
.LBB1_10:                               # =>This Inner Loop Header: Depth=1
	#DEBUG_VALUE: softmax_stable_rvv_fp32:dst_orig <- $x10
	#DEBUG_VALUE: softmax_stable_rvv_fp32:n <- $x12
	#DEBUG_VALUE: softmax_stable_rvv_fp32:dst <- $x13
	#DEBUG_VALUE: softmax_stable_rvv_fp32:avl3 <- $x14
	.loc	0 227 21 is_stmt 1              # test.c:227:21
	vsetvli	a5, a4, e32, m8, ta, ma
.Ltmp66:
	#DEBUG_VALUE: vl <- $x15
	.loc	0 228 30                        # test.c:228:30
	vle32.v	v8, (a3)
.Ltmp67:
	#DEBUG_VALUE: row <- undef
	.loc	0 229 65                        # test.c:229:65
	vmv.v.x	v16, a1
.Ltmp68:
	#DEBUG_VALUE: vinvB <- undef
	.loc	0 232 14                        # test.c:232:14
	sub	a4, a4, a5
.Ltmp69:
	#DEBUG_VALUE: softmax_stable_rvv_fp32:avl3 <- $x14
	.loc	0 230 15                        # test.c:230:15
	vfmul.vv	v8, v8, v16
	.loc	0 231 9 is_stmt 0               # test.c:231:9
	vse32.v	v8, (a3)
	.loc	0 232 25 is_stmt 1              # test.c:232:25
	slli	a5, a5, 2
.Ltmp70:
	add	a3, a3, a5
.Ltmp71:
	#DEBUG_VALUE: softmax_stable_rvv_fp32:dst <- $x13
	.loc	0 226 5                         # test.c:226:5
	bnez	a4, .LBB1_10
.Ltmp72:
.LBB1_11:                               # =>This Inner Loop Header: Depth=1
	#DEBUG_VALUE: softmax_stable_rvv_fp32:avl3 <- $x14
	#DEBUG_VALUE: softmax_stable_rvv_fp32:dst <- $x10
	#DEBUG_VALUE: softmax_stable_rvv_fp32:avl4 <- $x12
	.loc	0 239 21                        # test.c:239:21
	vsetvli	a1, a2, e32, m8, ta, ma
.Ltmp73:
	#DEBUG_VALUE: vl <- $x11
	.loc	0 240 29                        # test.c:240:29
	vle32.v	v8, (a0)
.Ltmp74:
	#DEBUG_VALUE: row2 <- undef
	.loc	0 242 14                        # test.c:242:14
	sub	a2, a2, a1
.Ltmp75:
	#DEBUG_VALUE: softmax_stable_rvv_fp32:avl4 <- $x12
	.loc	0 241 9 is_stmt 0               # test.c:241:9
	vse32.v	v8, (a0)
	.loc	0 242 25 is_stmt 1              # test.c:242:25
	slli	a1, a1, 2
.Ltmp76:
	add	a0, a0, a1
.Ltmp77:
	#DEBUG_VALUE: softmax_stable_rvv_fp32:dst <- $x10
	.loc	0 238 5                         # test.c:238:5
	bnez	a2, .LBB1_11
.Ltmp78:
.LBB1_12:
	#DEBUG_VALUE: softmax_stable_rvv_fp32:dst <- undef
	.loc	0 252 1 epilogue_begin          # test.c:252:1
	csrr	a0, vlenb
	li	a1, 91
	mul	a0, a0, a1
	add	sp, sp, a0
	.cfi_def_cfa sp, 64
	ld	s0, 56(sp)                      # 8-byte Folded Reload
	ld	s1, 48(sp)                      # 8-byte Folded Reload
	ld	s2, 40(sp)                      # 8-byte Folded Reload
	.cfi_restore s0
	.cfi_restore s1
	.cfi_restore s2
	addi	sp, sp, 64
	.cfi_def_cfa_offset 0
	ret
.Ltmp79:
.Lfunc_end1:
	.size	softmax_stable_rvv_fp32, .Lfunc_end1-softmax_stable_rvv_fp32
	.cfi_endproc
                                        # -- End function
	.hidden	dst                             # @dst
	.type	dst,@object
	.bss
	.globl	dst
	.p2align	2, 0x0
dst:
	.zero	512
	.size	dst, 512

	.hidden	diff_mem                        # @diff_mem
	.type	diff_mem,@object
	.globl	diff_mem
	.p2align	2, 0x0
diff_mem:
	.zero	512
	.size	diff_mem, 512

	.file	3 "/home/xl2025/opt/riscv/riscv64-unknown-elf/include/machine" "_default_types.h" md5 0xf7024d0682a918b41f94e8be9cd90461
	.file	4 "/home/xl2025/opt/riscv-llvm/lib/clang/22/include" "riscv_vector.h" md5 0x255ceebde96f450c22e334dcdb0f3a56
	.section	".note.GNU-stack","",@progbits
	.addrsig