
build/softmax-debug/test.elf:     file format elf64-littleriscv


Disassembly of section .text.init:

0000000080000000 <_start>:
#endif

  .section ".text.init"
  .globl _start
_start:
  li  x1, 0
    80000000:	4081                	li	ra,0
  li  x2, 0
    80000002:	4101                	li	sp,0
  li  x3, 0
    80000004:	4181                	li	gp,0
  li  x4, 0
    80000006:	4201                	li	tp,0
  li  x5, 0
    80000008:	4281                	li	t0,0
  li  x6, 0
    8000000a:	4301                	li	t1,0
  li  x7, 0
    8000000c:	4381                	li	t2,0
  li  x8, 0
    8000000e:	4401                	li	s0,0
  li  x9, 0
    80000010:	4481                	li	s1,0
  li  x10,0
    80000012:	4501                	li	a0,0
  li  x11,0
    80000014:	4581                	li	a1,0
  li  x12,0
    80000016:	4601                	li	a2,0
  li  x13,0
    80000018:	4681                	li	a3,0
  li  x14,0
    8000001a:	4701                	li	a4,0
  li  x15,0
    8000001c:	4781                	li	a5,0
  li  x16,0
    8000001e:	4801                	li	a6,0
  li  x17,0
    80000020:	4881                	li	a7,0
  li  x18,0
    80000022:	4901                	li	s2,0
  li  x19,0
    80000024:	4981                	li	s3,0
  li  x20,0
    80000026:	4a01                	li	s4,0
  li  x21,0
    80000028:	4a81                	li	s5,0
  li  x22,0
    8000002a:	4b01                	li	s6,0
  li  x23,0
    8000002c:	4b81                	li	s7,0
  li  x24,0
    8000002e:	4c01                	li	s8,0
  li  x25,0
    80000030:	4c81                	li	s9,0
  li  x26,0
    80000032:	4d01                	li	s10,0
  li  x27,0
    80000034:	4d81                	li	s11,0
  li  x28,0
    80000036:	4e01                	li	t3,0
  li  x29,0
    80000038:	4e81                	li	t4,0
  li  x30,0
    8000003a:	4f01                	li	t5,0
  li  x31,0
    8000003c:	4f81                	li	t6,0

  # enable FPU and accelerator if present
  li t0, MSTATUS_FS | MSTATUS_XS | MSTATUS_VS
    8000003e:	62f9                	lui	t0,0x1e
    80000040:	60028293          	addi	t0,t0,1536 # 1e600 <putchar.buflen+0x1e5c0>
  csrs mstatus, t0
    80000044:	3002a073          	csrs	mstatus,t0

  # make sure XLEN agrees with compilation choice
  li t0, 1
    80000048:	4285                	li	t0,1
  slli t0, t0, 31
    8000004a:	02fe                	slli	t0,t0,0x1f
#if __riscv_xlen == 64
  bgez t0, 1f
    8000004c:	0002d863          	bgez	t0,8000005c <_start+0x5c>
#else
  bltz t0, 1f
#endif
2:
  li a0, 1
    80000050:	4505                	li	a0,1
  sw a0, tohost, t0
    80000052:	00002297          	auipc	t0,0x2
    80000056:	d2a2a723          	sw	a0,-722(t0) # 80001d80 <tohost>
  j 2b
    8000005a:	bfdd                	j	80000050 <_start+0x50>
1:

#ifdef __riscv_flen
  # initialize FPU if we have one
  la t0, 1f
    8000005c:	00000297          	auipc	t0,0x0
    80000060:	09028293          	addi	t0,t0,144 # 800000ec <_start+0xec>
  csrw mtvec, t0
    80000064:	30529073          	csrw	mtvec,t0

  fssr    x0
    80000068:	00301073          	fscsr	zero
  fmv.s.x f0, x0
    8000006c:	f0000053          	fmv.w.x	ft0,zero
  fmv.s.x f1, x0
    80000070:	f00000d3          	fmv.w.x	ft1,zero
  fmv.s.x f2, x0
    80000074:	f0000153          	fmv.w.x	ft2,zero
  fmv.s.x f3, x0
    80000078:	f00001d3          	fmv.w.x	ft3,zero
  fmv.s.x f4, x0
    8000007c:	f0000253          	fmv.w.x	ft4,zero
  fmv.s.x f5, x0
    80000080:	f00002d3          	fmv.w.x	ft5,zero
  fmv.s.x f6, x0
    80000084:	f0000353          	fmv.w.x	ft6,zero
  fmv.s.x f7, x0
    80000088:	f00003d3          	fmv.w.x	ft7,zero
  fmv.s.x f8, x0
    8000008c:	f0000453          	fmv.w.x	fs0,zero
  fmv.s.x f9, x0
    80000090:	f00004d3          	fmv.w.x	fs1,zero
  fmv.s.x f10,x0
    80000094:	f0000553          	fmv.w.x	fa0,zero
  fmv.s.x f11,x0
    80000098:	f00005d3          	fmv.w.x	fa1,zero
  fmv.s.x f12,x0
    8000009c:	f0000653          	fmv.w.x	fa2,zero
  fmv.s.x f13,x0
    800000a0:	f00006d3          	fmv.w.x	fa3,zero
  fmv.s.x f14,x0
    800000a4:	f0000753          	fmv.w.x	fa4,zero
  fmv.s.x f15,x0
    800000a8:	f00007d3          	fmv.w.x	fa5,zero
  fmv.s.x f16,x0
    800000ac:	f0000853          	fmv.w.x	fa6,zero
  fmv.s.x f17,x0
    800000b0:	f00008d3          	fmv.w.x	fa7,zero
  fmv.s.x f18,x0
    800000b4:	f0000953          	fmv.w.x	fs2,zero
  fmv.s.x f19,x0
    800000b8:	f00009d3          	fmv.w.x	fs3,zero
  fmv.s.x f20,x0
    800000bc:	f0000a53          	fmv.w.x	fs4,zero
  fmv.s.x f21,x0
    800000c0:	f0000ad3          	fmv.w.x	fs5,zero
  fmv.s.x f22,x0
    800000c4:	f0000b53          	fmv.w.x	fs6,zero
  fmv.s.x f23,x0
    800000c8:	f0000bd3          	fmv.w.x	fs7,zero
  fmv.s.x f24,x0
    800000cc:	f0000c53          	fmv.w.x	fs8,zero
  fmv.s.x f25,x0
    800000d0:	f0000cd3          	fmv.w.x	fs9,zero
  fmv.s.x f26,x0
    800000d4:	f0000d53          	fmv.w.x	fs10,zero
  fmv.s.x f27,x0
    800000d8:	f0000dd3          	fmv.w.x	fs11,zero
  fmv.s.x f28,x0
    800000dc:	f0000e53          	fmv.w.x	ft8,zero
  fmv.s.x f29,x0
    800000e0:	f0000ed3          	fmv.w.x	ft9,zero
  fmv.s.x f30,x0
    800000e4:	f0000f53          	fmv.w.x	ft10,zero
  fmv.s.x f31,x0
    800000e8:	f0000fd3          	fmv.w.x	ft11,zero
1:
#endif

  # initialize trap vector
  la t0, trap_entry
    800000ec:	00000297          	auipc	t0,0x0
    800000f0:	03c28293          	addi	t0,t0,60 # 80000128 <trap_entry>
  csrw mtvec, t0
    800000f4:	30529073          	csrw	mtvec,t0

  # initialize global pointer
.option push
.option norelax
  la gp, __global_pointer$
    800000f8:	00002197          	auipc	gp,0x2
    800000fc:	03f18193          	addi	gp,gp,63 # 80002137 <__global_pointer$>
.option pop

  la  tp, _end + 63
    80000100:	00140217          	auipc	tp,0x140
    80000104:	f3f20213          	addi	tp,tp,-193 # 8014003f <_end+0x3f>
  and tp, tp, -64
    80000108:	fc027213          	andi	tp,tp,-64

  # get core id
  csrr a0, mhartid
    8000010c:	f1402573          	csrr	a0,mhartid
#ifndef CORENUMS
  # for now, assume only 1 core
  li a1, 1
    80000110:	4585                	li	a1,1
1:bgeu a0, a1, 1b
    80000112:	00b57063          	bgeu	a0,a1,80000112 <_start+0x112>
#endif

  # give each core 128KB of stack + TLS
#define STKSHIFT 17
  add sp, a0, 1
    80000116:	00150113          	addi	sp,a0,1
  sll sp, sp, STKSHIFT
    8000011a:	0146                	slli	sp,sp,0x11
  add sp, sp, tp
    8000011c:	9112                	add	sp,sp,tp
  sll a2, a0, STKSHIFT
    8000011e:	01151613          	slli	a2,a0,0x11
  add tp, tp, a2
    80000122:	9232                	add	tp,tp,a2

  j _init
    80000124:	6d40006f          	j	800007f8 <_init>

0000000080000128 <trap_entry>:

  .align 2
trap_entry:
  addi sp, sp, -272
    80000128:	716d                	addi	sp,sp,-272

  # goto trap handler if not exit ecall
  csrr t5, mcause
    8000012a:	34202f73          	csrr	t5,mcause
  li t6, CAUSE_MACHINE_ECALL
    8000012e:	4fad                	li	t6,11
  bne t5, t6, 2f
    80000130:	03ff1b63          	bne	t5,t6,80000166 <trap_entry+0x3e>

  # skip flush signature cache lines if on spike
  csrr t2, marchid
    80000134:	f12023f3          	csrr	t2,marchid
  li t3, 5
    80000138:	4e15                	li	t3,5
  beq t2, t3, 3f
    8000013a:	03c38463          	beq	t2,t3,80000162 <trap_entry+0x3a>

  # flush signature cache lines
  la t0, begin_signature
    8000013e:	00100297          	auipc	t0,0x100
    80000142:	ec228293          	addi	t0,t0,-318 # 80100000 <begin_signature>
  la t1, end_signature
    80000146:	00100317          	auipc	t1,0x100
    8000014a:	eba30313          	addi	t1,t1,-326 # 80100000 <begin_signature>
  addi t1, t1, 0x40
    8000014e:	04030313          	addi	t1,t1,64
  li t2, 0x2010000
    80000152:	020103b7          	lui	t2,0x2010
4:
  sd t0, 0x200(t2)
    80000156:	2053b023          	sd	t0,512(t2) # 2010200 <putchar.buflen+0x20101c0>
  addi t0, t0, 64
    8000015a:	04028293          	addi	t0,t0,64
  blt t0, t1, 4b
    8000015e:	fe62cce3          	blt	t0,t1,80000156 <trap_entry+0x2e>

  # exit simulation
3:
  j tohost_exit
    80000162:	58a0006f          	j	800006ec <tohost_exit>

2:

  SREG x1, 1*REGBYTES(sp)
    80000166:	e406                	sd	ra,8(sp)
  SREG x2, 2*REGBYTES(sp)
    80000168:	e80a                	sd	sp,16(sp)
  SREG x3, 3*REGBYTES(sp)
    8000016a:	ec0e                	sd	gp,24(sp)
  SREG x4, 4*REGBYTES(sp)
    8000016c:	f012                	sd	tp,32(sp)
  SREG x5, 5*REGBYTES(sp)
    8000016e:	f416                	sd	t0,40(sp)
  SREG x6, 6*REGBYTES(sp)
    80000170:	f81a                	sd	t1,48(sp)
  SREG x7, 7*REGBYTES(sp)
    80000172:	fc1e                	sd	t2,56(sp)
  SREG x8, 8*REGBYTES(sp)
    80000174:	e0a2                	sd	s0,64(sp)
  SREG x9, 9*REGBYTES(sp)
    80000176:	e4a6                	sd	s1,72(sp)
  SREG x10, 10*REGBYTES(sp)
    80000178:	e8aa                	sd	a0,80(sp)
  SREG x11, 11*REGBYTES(sp)
    8000017a:	ecae                	sd	a1,88(sp)
  SREG x12, 12*REGBYTES(sp)
    8000017c:	f0b2                	sd	a2,96(sp)
  SREG x13, 13*REGBYTES(sp)
    8000017e:	f4b6                	sd	a3,104(sp)
  SREG x14, 14*REGBYTES(sp)
    80000180:	f8ba                	sd	a4,112(sp)
  SREG x15, 15*REGBYTES(sp)
    80000182:	fcbe                	sd	a5,120(sp)
  SREG x16, 16*REGBYTES(sp)
    80000184:	e142                	sd	a6,128(sp)
  SREG x17, 17*REGBYTES(sp)
    80000186:	e546                	sd	a7,136(sp)
  SREG x18, 18*REGBYTES(sp)
    80000188:	e94a                	sd	s2,144(sp)
  SREG x19, 19*REGBYTES(sp)
    8000018a:	ed4e                	sd	s3,152(sp)
  SREG x20, 20*REGBYTES(sp)
    8000018c:	f152                	sd	s4,160(sp)
  SREG x21, 21*REGBYTES(sp)
    8000018e:	f556                	sd	s5,168(sp)
  SREG x22, 22*REGBYTES(sp)
    80000190:	f95a                	sd	s6,176(sp)
  SREG x23, 23*REGBYTES(sp)
    80000192:	fd5e                	sd	s7,184(sp)
  SREG x24, 24*REGBYTES(sp)
    80000194:	e1e2                	sd	s8,192(sp)
  SREG x25, 25*REGBYTES(sp)
    80000196:	e5e6                	sd	s9,200(sp)
  SREG x26, 26*REGBYTES(sp)
    80000198:	e9ea                	sd	s10,208(sp)
  SREG x27, 27*REGBYTES(sp)
    8000019a:	edee                	sd	s11,216(sp)
  SREG x28, 28*REGBYTES(sp)
    8000019c:	f1f2                	sd	t3,224(sp)
  SREG x29, 29*REGBYTES(sp)
    8000019e:	f5f6                	sd	t4,232(sp)
  SREG x30, 30*REGBYTES(sp)
    800001a0:	f9fa                	sd	t5,240(sp)
  SREG x31, 31*REGBYTES(sp)
    800001a2:	fdfe                	sd	t6,248(sp)

  csrr a0, mcause
    800001a4:	34202573          	csrr	a0,mcause
  csrr a1, mepc
    800001a8:	341025f3          	csrr	a1,mepc
  mv a2, sp
    800001ac:	860a                	mv	a2,sp
  jal handle_trap
    800001ae:	54c000ef          	jal	800006fa <handle_trap>
  csrw mepc, a0
    800001b2:	34151073          	csrw	mepc,a0

  # Remain in M-mode after eret
  li t0, MSTATUS_MPP
    800001b6:	428d                	li	t0,3
    800001b8:	02ae                	slli	t0,t0,0xb
  csrs mstatus, t0
    800001ba:	3002a073          	csrs	mstatus,t0

  LREG x1, 1*REGBYTES(sp)
    800001be:	60a2                	ld	ra,8(sp)
  LREG x2, 2*REGBYTES(sp)
    800001c0:	6142                	ld	sp,16(sp)
  LREG x3, 3*REGBYTES(sp)
    800001c2:	61e2                	ld	gp,24(sp)
  LREG x4, 4*REGBYTES(sp)
    800001c4:	7202                	ld	tp,32(sp)
  LREG x5, 5*REGBYTES(sp)
    800001c6:	72a2                	ld	t0,40(sp)
  LREG x6, 6*REGBYTES(sp)
    800001c8:	7342                	ld	t1,48(sp)
  LREG x7, 7*REGBYTES(sp)
    800001ca:	73e2                	ld	t2,56(sp)
  LREG x8, 8*REGBYTES(sp)
    800001cc:	6406                	ld	s0,64(sp)
  LREG x9, 9*REGBYTES(sp)
    800001ce:	64a6                	ld	s1,72(sp)
  LREG x10, 10*REGBYTES(sp)
    800001d0:	6546                	ld	a0,80(sp)
  LREG x11, 11*REGBYTES(sp)
    800001d2:	65e6                	ld	a1,88(sp)
  LREG x12, 12*REGBYTES(sp)
    800001d4:	7606                	ld	a2,96(sp)
  LREG x13, 13*REGBYTES(sp)
    800001d6:	76a6                	ld	a3,104(sp)
  LREG x14, 14*REGBYTES(sp)
    800001d8:	7746                	ld	a4,112(sp)
  LREG x15, 15*REGBYTES(sp)
    800001da:	77e6                	ld	a5,120(sp)
  LREG x16, 16*REGBYTES(sp)
    800001dc:	680a                	ld	a6,128(sp)
  LREG x17, 17*REGBYTES(sp)
    800001de:	68aa                	ld	a7,136(sp)
  LREG x18, 18*REGBYTES(sp)
    800001e0:	694a                	ld	s2,144(sp)
  LREG x19, 19*REGBYTES(sp)
    800001e2:	69ea                	ld	s3,152(sp)
  LREG x20, 20*REGBYTES(sp)
    800001e4:	7a0a                	ld	s4,160(sp)
  LREG x21, 21*REGBYTES(sp)
    800001e6:	7aaa                	ld	s5,168(sp)
  LREG x22, 22*REGBYTES(sp)
    800001e8:	7b4a                	ld	s6,176(sp)
  LREG x23, 23*REGBYTES(sp)
    800001ea:	7bea                	ld	s7,184(sp)
  LREG x24, 24*REGBYTES(sp)
    800001ec:	6c0e                	ld	s8,192(sp)
  LREG x25, 25*REGBYTES(sp)
    800001ee:	6cae                	ld	s9,200(sp)
  LREG x26, 26*REGBYTES(sp)
    800001f0:	6d4e                	ld	s10,208(sp)
  LREG x27, 27*REGBYTES(sp)
    800001f2:	6dee                	ld	s11,216(sp)
  LREG x28, 28*REGBYTES(sp)
    800001f4:	7e0e                	ld	t3,224(sp)
  LREG x29, 29*REGBYTES(sp)
    800001f6:	7eae                	ld	t4,232(sp)
  LREG x30, 30*REGBYTES(sp)
    800001f8:	7f4e                	ld	t5,240(sp)
  LREG x31, 31*REGBYTES(sp)
    800001fa:	7fee                	ld	t6,248(sp)

  addi sp, sp, 272
    800001fc:	6151                	addi	sp,sp,272
  mret
    800001fe:	30200073          	mret

Disassembly of section .text:

0000000080000202 <main>:
// float golden[VLEN/32]={0.01962993f,0.19671424f,0.08201241f,0.04811186f,0.00819046f,0.00818966f,0.00553576f,0.14027424f,0.04858694f,0.07452876f,0.00476469f,0.21241336f,0.12256793f,0.01025998f,0.00908109f,0.00913865f};//,0.01011935f,0.02444698f,0.01686534f,0.00960609f,0.03463596f,0.00523547f,0.00964133f,0.01297375f,0.01857396f,0.06928197f,0.00666038f,0.02343940f,0.03204493f,0.00360847f,0.03404422f,0.00592735f};
// float diff_mem[VLEN/32]={0};
 float dst[N] = {0};
 float diff_mem[N] = {0};

int main(){
    80000202:	1101                	addi	sp,sp,-32
    80000204:	80010113          	addi	sp,sp,-2048
    80000208:	dc010113          	addi	sp,sp,-576
    8000020c:	ff800537          	lui	a0,0xff800

    const size_t vl1 = __riscv_vsetvlmax_e32m1(); 
    vfloat32m1_t vzero1   = __riscv_vreinterpret_v_u32m1_f32m1(__riscv_vmv_v_x_u32m1(0u,          vl1));
    vfloat32m1_t vtwo1    = __riscv_vreinterpret_v_u32m1_f32m1(__riscv_vmv_v_x_u32m1(BITS_TWO,    vl1));
    vfloat32m1_t veps1    = __riscv_vreinterpret_v_u32m1_f32m1(__riscv_vmv_v_x_u32m1(BITS_EPS,    vl1));
    vfloat32m1_t vneginf1 = __riscv_vreinterpret_v_u32m1_f32m1(__riscv_vmv_v_x_u32m1(BITS_NEG_INF,vl1));
    80000210:	0d0075d7          	vsetvli	a1,zero,e32,m1,ta,ma
    80000214:	5e0548d7          	vmv.v.x	v17,a0
        0x3F800000, // C1
        0x3F800000  // C0
    };
    size_t vl_table = __riscv_vsetvl_e32m8(9);
    vfloat32m8_t ptable = __riscv_vreinterpret_v_u32m8_f32m8(
        __riscv_vle32_v_u32m8(coeff_bits, vl_table));
    80000218:	00001517          	auipc	a0,0x1
    8000021c:	17850513          	addi	a0,a0,376 # 80001390 <softmax_stable_rvv_fp32.coeff_bits>
    80000220:	cd34f057          	vsetivli	zero,9,e32,m8,ta,ma
    80000224:	02056007          	vle32.v	v0,(a0)
    80000228:	08000513          	li	a0,128
    8000022c:	00001597          	auipc	a1,0x1
    80000230:	f6458593          	addi	a1,a1,-156 # 80001190 <src>
    80000234:	9f103857          	vmv1r.v	v16,v17
    // Pass-1：全局最大（块内 m8→m1 归约，跨块累积到 m1）
    float* src_orig = src;
    vfloat32m1_t vmax1 = vneginf1;
    size_t avl = n;
    while (avl > 0) {
        size_t vl = __riscv_vsetvl_e32m8(avl);
    80000238:	0d357657          	vsetvli	a2,a0,e32,m8,ta,ma
        vfloat32m8_t vx = __riscv_vle32_v_f32m8(src, vl);
    8000023c:	0205ec07          	vle32.v	v24,(a1)
        vfloat32m1_t blk_max = __riscv_vfredmax_vs_f32m8_f32m1(vx, vneginf1, vl); // 这里传 vl
        vmax1 = __riscv_vfmax_vv_f32m1(vmax1, blk_max, vl1);
        avl -= vl; src += vl;
    80000240:	8d11                	sub	a0,a0,a2
        vfloat32m1_t blk_max = __riscv_vfredmax_vs_f32m8_f32m1(vx, vneginf1, vl); // 这里传 vl
    80000242:	1f889457          	vfredmax.vs	v8,v24,v17
        avl -= vl; src += vl;
    80000246:	060a                	slli	a2,a2,0x2
        vmax1 = __riscv_vfmax_vv_f32m1(vmax1, blk_max, vl1);
    80000248:	0d0076d7          	vsetvli	a3,zero,e32,m1,ta,ma
    8000024c:	1b041857          	vfmax.vv	v16,v16,v8
        avl -= vl; src += vl;
    80000250:	95b2                	add	a1,a1,a2
    while (avl > 0) {
    80000252:	f17d                	bnez	a0,80000238 <main+0x36>
    80000254:	4881                	li	a7,0
    vfloat32m1_t vzero1   = __riscv_vreinterpret_v_u32m1_f32m1(__riscv_vmv_v_x_u32m1(0u,          vl1));
    80000256:	5e003457          	vmv.v.i	v8,0
    const size_t vlm8 = __riscv_vsetvlmax_e32m8();
    8000025a:	0d3075d7          	vsetvli	a1,zero,e32,m8,ta,ma
    8000025e:	3fb8b637          	lui	a2,0x3fb8b
    80000262:	3f3175b7          	lui	a1,0x3f317
    80000266:	388016b7          	lui	a3,0x38801
    8000026a:	0878                	addi	a4,sp,28
    vfloat32m8_t vln2_hi_8 = __riscv_vreinterpret_v_u32m8_f32m8(__riscv_vmv_v_x_u32m8(0x3F317000u, vlm8)); // ln2_hi
    8000026c:	5e05cc57          	vmv.v.x	v24,a1
    80000270:	42010513          	addi	a0,sp,1056
    80000274:	e2850c27          	vs8r.v	v24,(a0)
    80000278:	08000593          	li	a1,128
    }
    src = src_orig;

    // 提取 max 的位并供广播使用
    uint32_t max_bits[1];
    __riscv_vse32_v_u32m1(max_bits, __riscv_vreinterpret_v_f32m1_u32m1(vmax1), vl1);
    8000027c:	0d0077d7          	vsetvli	a5,zero,e32,m1,ta,ma
    80000280:	02076827          	vse32.v	v16,(a4)
    80000284:	00001717          	auipc	a4,0x1
    80000288:	a3b60793          	addi	a5,a2,-1477 # 3fb8aa3b <putchar.buflen+0x3fb8a9fb>
    8000028c:	c0068693          	addi	a3,a3,-1024 # 38800c00 <putchar.buflen+0x38800bc0>
    80000290:	f0c70613          	addi	a2,a4,-244 # 80001190 <src>
    vfloat32m8_t viln2_8   = __riscv_vreinterpret_v_u32m8_f32m8(__riscv_vmv_v_x_u32m8(0x3FB8AA3Bu, vlm8)); // 1/ln2
    80000294:	0d307757          	vsetvli	a4,zero,e32,m8,ta,ma
    80000298:	5e07c857          	vmv.v.x	v16,a5
    8000029c:	1408                	addi	a0,sp,544
    8000029e:	e2850827          	vs8r.v	v16,(a0)
    vfloat32m8_t vln2_lo_8 = __riscv_vreinterpret_v_u32m8_f32m8(__riscv_vmv_v_x_u32m8(0x38800C00u, vlm8)); // ln2_lo
    800002a2:	5e06c857          	vmv.v.x	v16,a3
    800002a6:	1008                	addi	a0,sp,32
    800002a8:	e2850827          	vs8r.v	v16,(a0)
    800002ac:	46f2                	lw	a3,28(sp)
    800002ae:	00001717          	auipc	a4,0x1
    800002b2:	68a70713          	addi	a4,a4,1674 # 80001938 <dst>
    800002b6:	07f00813          	li	a6,127
    800002ba:	9e803557          	vmv1r.v	v10,v8
    800002be:	7ff10513          	addi	a0,sp,2047
    800002c2:	22150513          	addi	a0,a0,545
    800002c6:	02850527          	vs1r.v	v10,(a0)

      // Pass-2: exp(x-max) + sum
    vfloat32m1_t vsum1 = vzero1;
    float* dst_orig = dst;
    for (size_t avl2 = n; avl2 > 0; ) {
        size_t vl = __riscv_vsetvl_e32m8(avl2);
    800002ca:	0d35f7d7          	vsetvli	a5,a1,e32,m8,ta,ma
        vfloat32m8_t vx = __riscv_vle32_v_f32m8(src, vl);
    800002ce:	02066807          	vle32.v	v16,(a2)

        // 减去 max
        vfloat32m8_t vmaxB = __riscv_vreinterpret_v_u32m8_f32m8(
            __riscv_vmv_v_x_u32m8(max_bits[0], vl));
    800002d2:	5e06cc57          	vmv.v.x	v24,a3
        vx = __riscv_vfsub_vv_f32m8(vx, vmaxB, vl);
    800002d6:	0b0c1c57          	vfsub.vv	v24,v16,v24
    800002da:	1408                	addi	a0,sp,544
    800002dc:	e2850407          	vl8r.v	v8,(a0)

        // k = round(vx/ln2)
        unsigned old_frm; asm volatile("csrr %0, frm" : "=r"(old_frm));
        asm volatile("csrw frm, %0" :: "r"(0)); // RNE
        vint32m8_t vk = __riscv_vfcvt_x_f_v_i32m8(
            __riscv_vfmul_vv_f32m8(vx, viln2_8, vl), vl);
    800002e0:	93841857          	vfmul.vv	v16,v24,v8
        vint32m8_t vk = __riscv_vfcvt_x_f_v_i32m8(
    800002e4:	4b009857          	vfcvt.x.f.v	v16,v16
    800002e8:	7ff10513          	addi	a0,sp,2047
    800002ec:	02150513          	addi	a0,a0,33
    800002f0:	e2850827          	vs8r.v	v16,(a0)
    800002f4:	9e03b457          	vmv8r.v	v8,v0
        asm volatile("csrw frm, %0" :: "r"(old_frm));

        // r = vx - k*ln2_hi - k*ln2_lo
        vfloat32m8_t vfk = __riscv_vfcvt_f_x_v_f32m8(vk, vl);
    800002f8:	4b019057          	vfcvt.f.x.v	v0,v16
    800002fc:	42010513          	addi	a0,sp,1056
    80000300:	e2850807          	vl8r.v	v16,(a0)
        vfloat32m8_t vr  = __riscv_vfsub_vv_f32m8(
            __riscv_vfsub_vv_f32m8(vx,
                __riscv_vfmul_vv_f32m8(vfk, vln2_hi_8, vl), vl),
    80000304:	92081857          	vfmul.vv	v16,v0,v16
            __riscv_vfsub_vv_f32m8(vx,
    80000308:	0b881857          	vfsub.vv	v16,v24,v16
            __riscv_vfmul_vv_f32m8(vfk, vln2_lo_8, vl), vl);

               // Horner：用 vrgather.vx 从 ptable 中按索引 0..8 取 C8..C0
        vfloat32m8_t p = __riscv_vrgather_vx_f32m8(ptable, 0, vl); // C8
    8000030c:	32803c57          	vrgather.vi	v24,v8,0
    80000310:	62010513          	addi	a0,sp,1568
    80000314:	e2850c27          	vs8r.v	v24,(a0)
    80000318:	1008                	addi	a0,sp,32
    8000031a:	e2850c07          	vl8r.v	v24,(a0)
            __riscv_vfmul_vv_f32m8(vfk, vln2_lo_8, vl), vl);
    8000031e:	920c1c57          	vfmul.vv	v24,v0,v24
    80000322:	9e83b057          	vmv8r.v	v0,v8
        vfloat32m8_t vr  = __riscv_vfsub_vv_f32m8(
    80000326:	0b0c1c57          	vfsub.vv	v24,v16,v24
        p = __riscv_vfmadd_vv_f32m8(p, vr, __riscv_vrgather_vx_f32m8(ptable, 1, vl), vl); // +C7
    8000032a:	3280b857          	vrgather.vi	v16,v8,1
    8000032e:	62010513          	addi	a0,sp,1568
    80000332:	e2850407          	vl8r.v	v8,(a0)
    80000336:	b28c1857          	vfmacc.vv	v16,v24,v8
        p = __riscv_vfmadd_vv_f32m8(p, vr, __riscv_vrgather_vx_f32m8(ptable, 2, vl), vl); // +C6
    8000033a:	32013457          	vrgather.vi	v8,v0,2
    8000033e:	b30c1457          	vfmacc.vv	v8,v24,v16
        p = __riscv_vfmadd_vv_f32m8(p, vr, __riscv_vrgather_vx_f32m8(ptable, 3, vl), vl); // +C5
    80000342:	3201b857          	vrgather.vi	v16,v0,3
    80000346:	b28c1857          	vfmacc.vv	v16,v24,v8
        p = __riscv_vfmadd_vv_f32m8(p, vr, __riscv_vrgather_vx_f32m8(ptable, 4, vl), vl); // +C4
    8000034a:	32023457          	vrgather.vi	v8,v0,4
    8000034e:	b30c1457          	vfmacc.vv	v8,v24,v16
        p = __riscv_vfmadd_vv_f32m8(p, vr, __riscv_vrgather_vx_f32m8(ptable, 5, vl), vl); // +C3
    80000352:	3202b857          	vrgather.vi	v16,v0,5
    80000356:	b28c1857          	vfmacc.vv	v16,v24,v8
        p = __riscv_vfmadd_vv_f32m8(p, vr, __riscv_vrgather_vx_f32m8(ptable, 6, vl), vl); // +C2
    8000035a:	32033457          	vrgather.vi	v8,v0,6
    8000035e:	b30c1457          	vfmacc.vv	v8,v24,v16
        p = __riscv_vfmadd_vv_f32m8(p, vr, __riscv_vrgather_vx_f32m8(ptable, 7, vl), vl); // +C1
    80000362:	3203b857          	vrgather.vi	v16,v0,7
    80000366:	b28c1857          	vfmacc.vv	v16,v24,v8
        p = __riscv_vfmadd_vv_f32m8(p, vr, __riscv_vrgather_vx_f32m8(ptable, 8, vl), vl); // +C0
    8000036a:	32043457          	vrgather.vi	v8,v0,8
    8000036e:	b30c1457          	vfmacc.vv	v8,v24,v16
    80000372:	7ff10513          	addi	a0,sp,2047
    80000376:	02150513          	addi	a0,a0,33
    8000037a:	e2850807          	vl8r.v	v16,(a0)

        // 2^k
        const int exp_bias = 127;
        vfloat32m8_t vf2k = __riscv_vreinterpret_v_i32m8_f32m8(
            __riscv_vsll_vx_i32m8(
                __riscv_vadd_vx_i32m8(vk, exp_bias, vl), 23, vl));
    8000037e:	03084857          	vadd.vx	v16,v16,a6
            __riscv_vsll_vx_i32m8(
    80000382:	970bb857          	vsll.vi	v16,v16,23
        vfloat32m8_t vexp8 = __riscv_vfmul_vv_f32m8(p, vf2k, vl);
    80000386:	92881457          	vfmul.vv	v8,v8,v16
        unsigned old_frm; asm volatile("csrr %0, frm" : "=r"(old_frm));
    8000038a:	00202573          	frrm	a0
        asm volatile("csrw frm, %0" :: "r"(0)); // RNE
    8000038e:	00289073          	fsrm	a7
        asm volatile("csrw frm, %0" :: "r"(old_frm));
    80000392:	00251073          	fsrm	a0
        __riscv_vse32_v_f32m8(dst, vexp8, vl);
    80000396:	0d35f057          	vsetvli	zero,a1,e32,m8,ta,ma
    8000039a:	02076427          	vse32.v	v8,(a4)

        // 块和
        vfloat32m1_t vblk = __riscv_vfredosum_vs_f32m8_f32m1(vexp8, vzero1, vl);
    8000039e:	0d007557          	vsetvli	a0,zero,e32,m1,ta,ma
    800003a2:	5e003857          	vmv.v.i	v16,0
    800003a6:	0d35f057          	vsetvli	zero,a1,e32,m8,ta,ma
    800003aa:	0e881457          	vfredosum.vs	v8,v8,v16
    800003ae:	7ff10513          	addi	a0,sp,2047
    800003b2:	22150513          	addi	a0,a0,545
    800003b6:	02850507          	vl1r.v	v10,(a0)
        vsum1 = __riscv_vfadd_vv_f32m1(vsum1, vblk, vl1);
    800003ba:	0d007557          	vsetvli	a0,zero,e32,m1,ta,ma
    800003be:	02a41557          	vfadd.vv	v10,v10,v8

        avl2 -= vl; src += vl; dst += vl;
    800003c2:	8d9d                	sub	a1,a1,a5
    800003c4:	078a                	slli	a5,a5,0x2
    800003c6:	963e                	add	a2,a2,a5
    800003c8:	973e                	add	a4,a4,a5
    for (size_t avl2 = n; avl2 > 0; ) {
    800003ca:	ee059ae3          	bnez	a1,800002be <main+0xbc>
    800003ce:	40000537          	lui	a0,0x40000
    800003d2:	322bd5b7          	lui	a1,0x322bd
    vfloat32m1_t vtwo1    = __riscv_vreinterpret_v_u32m1_f32m1(__riscv_vmv_v_x_u32m1(BITS_TWO,    vl1));
    800003d6:	5e054457          	vmv.v.x	v8,a0
    800003da:	c7758513          	addi	a0,a1,-905 # 322bcc77 <putchar.buflen+0x322bcc37>
    vfloat32m1_t veps1    = __riscv_vreinterpret_v_u32m1_f32m1(__riscv_vmv_v_x_u32m1(BITS_EPS,    vl1));
    800003de:	5e0544d7          	vmv.v.x	v9,a0
    }
    // 归一化
    vfloat32m1_t vsum1_eps = __riscv_vfadd_vv_f32m1(vsum1, veps1, vl1);
    800003e2:	02a494d7          	vfadd.vv	v9,v10,v9
    vfloat32m1_t vinv1 = __riscv_vfrec7_v_f32m1(vsum1_eps, vl1);
    800003e6:	4e929557          	vfrec7.v	v10,v9
    vfloat32m1_t corr = __riscv_vfnmsac_vv_f32m1(vtwo1, vsum1_eps, vinv1, vl1);
    800003ea:	9e9035d7          	vmv1r.v	v11,v9
    800003ee:	ae8515d7          	vfnmsub.vv	v11,v10,v8
    vinv1 = __riscv_vfmul_vv_f32m1(vinv1, corr, vl1);
    800003f2:	92a59557          	vfmul.vv	v10,v10,v11
    corr  = __riscv_vfnmsac_vv_f32m1(vtwo1, vsum1_eps, vinv1, vl1);
    800003f6:	ae8514d7          	vfnmsub.vv	v9,v10,v8
    vinv1 = __riscv_vfmul_vv_f32m1(vinv1, corr, vl1);
    800003fa:	92a49457          	vfmul.vv	v8,v10,v9
    800003fe:	0828                	addi	a0,sp,24

    uint32_t inv_bits[1];
    __riscv_vse32_v_u32m1(inv_bits, __riscv_vreinterpret_v_f32m1_u32m1(vinv1), vl1);
    80000400:	02056427          	vse32.v	v8,(a0)
    80000404:	4562                	lw	a0,24(sp)
    80000406:	08000593          	li	a1,128
    8000040a:	00001617          	auipc	a2,0x1
    8000040e:	52e60613          	addi	a2,a2,1326 # 80001938 <dst>

    dst = dst_orig;
    for (size_t avl3 = n; avl3 > 0; ) {
        size_t vl = __riscv_vsetvl_e32m8(avl3);
    80000412:	0d35f6d7          	vsetvli	a3,a1,e32,m8,ta,ma
        vfloat32m8_t row = __riscv_vle32_v_f32m8(dst, vl);
    80000416:	02066407          	vle32.v	v8,(a2)
        vfloat32m8_t vinvB = __riscv_vreinterpret_v_u32m8_f32m8(
            __riscv_vmv_v_x_u32m8(inv_bits[0], vl));
    8000041a:	5e054857          	vmv.v.x	v16,a0
        row = __riscv_vfmul_vv_f32m8(row, vinvB, vl);
        __riscv_vse32_v_f32m8(dst, row, vl);
        avl3 -= vl; dst += vl;
    8000041e:	8d95                	sub	a1,a1,a3
        row = __riscv_vfmul_vv_f32m8(row, vinvB, vl);
    80000420:	92881457          	vfmul.vv	v8,v8,v16
        __riscv_vse32_v_f32m8(dst, row, vl);
    80000424:	02066427          	vse32.v	v8,(a2)
        avl3 -= vl; dst += vl;
    80000428:	068a                	slli	a3,a3,0x2
    8000042a:	9636                	add	a2,a2,a3
    for (size_t avl3 = n; avl3 > 0; ) {
    8000042c:	f1fd                	bnez	a1,80000412 <main+0x210>
    8000042e:	08000513          	li	a0,128
    80000432:	00001597          	auipc	a1,0x1
    80000436:	50658593          	addi	a1,a1,1286 # 80001938 <dst>

    // 可选：再 load/store 一遍（m8）
    dst = dst_orig;
    size_t avl4 = n;
    while (avl4 > 0) {
        size_t vl = __riscv_vsetvl_e32m8(avl4);
    8000043a:	0d357657          	vsetvli	a2,a0,e32,m8,ta,ma
        vfloat32m8_t row2 = __riscv_vle32_v_f32m8(dst, vl);
    8000043e:	0205e407          	vle32.v	v8,(a1)
        __riscv_vse32_v_f32m8(dst, row2, vl);
        avl4 -= vl; dst += vl;
    80000442:	8d11                	sub	a0,a0,a2
        __riscv_vse32_v_f32m8(dst, row2, vl);
    80000444:	0205e427          	vse32.v	v8,(a1)
        avl4 -= vl; dst += vl;
    80000448:	060a                	slli	a2,a2,0x2
    8000044a:	95b2                	add	a1,a1,a2
    while (avl4 > 0) {
    8000044c:	f57d                	bnez	a0,8000043a <main+0x238>
    return 0;
    8000044e:	7f010113          	addi	sp,sp,2032
    80000452:	25010113          	addi	sp,sp,592
    80000456:	6105                	addi	sp,sp,32
    80000458:	8082                	ret

000000008000045a <softmax_stable_rvv_fp32>:
{
    8000045a:	1101                	addi	sp,sp,-32
    8000045c:	80010113          	addi	sp,sp,-2048
    80000460:	d4010113          	addi	sp,sp,-704
    80000464:	40000837          	lui	a6,0x40000
    80000468:	322bd6b7          	lui	a3,0x322bd
    8000046c:	ff800737          	lui	a4,0xff800
    vfloat32m1_t vneginf1 = __riscv_vreinterpret_v_u32m1_f32m1(__riscv_vmv_v_x_u32m1(BITS_NEG_INF,vl1));
    80000470:	0d0077d7          	vsetvli	a5,zero,e32,m1,ta,ma
    80000474:	5e074857          	vmv.v.x	v16,a4
        __riscv_vle32_v_u32m8(coeff_bits, vl_table));
    80000478:	00001717          	auipc	a4,0x1
    8000047c:	c7768893          	addi	a7,a3,-905 # 322bcc77 <putchar.buflen+0x322bcc37>
    80000480:	f1870293          	addi	t0,a4,-232 # 80001390 <softmax_stable_rvv_fp32.coeff_bits>
    while (avl > 0) {
    80000484:	c615                	beqz	a2,800004b0 <softmax_stable_rvv_fp32+0x56>
    80000486:	86ae                	mv	a3,a1
    80000488:	8732                	mv	a4,a2
    8000048a:	9f003457          	vmv1r.v	v8,v16
        size_t vl = __riscv_vsetvl_e32m8(avl);
    8000048e:	0d3777d7          	vsetvli	a5,a4,e32,m8,ta,ma
        vfloat32m8_t vx = __riscv_vle32_v_f32m8(src, vl);
    80000492:	0206ec07          	vle32.v	v24,(a3)
        avl -= vl; src += vl;
    80000496:	8f1d                	sub	a4,a4,a5
        vfloat32m1_t blk_max = __riscv_vfredmax_vs_f32m8_f32m1(vx, vneginf1, vl); // 这里传 vl
    80000498:	1f8814d7          	vfredmax.vs	v9,v24,v16
        avl -= vl; src += vl;
    8000049c:	00279313          	slli	t1,a5,0x2
        vmax1 = __riscv_vfmax_vv_f32m1(vmax1, blk_max, vl1);
    800004a0:	0d0077d7          	vsetvli	a5,zero,e32,m1,ta,ma
    800004a4:	1a849457          	vfmax.vv	v8,v8,v9
        avl -= vl; src += vl;
    800004a8:	969a                	add	a3,a3,t1
    while (avl > 0) {
    800004aa:	f375                	bnez	a4,8000048e <softmax_stable_rvv_fp32+0x34>
    800004ac:	9e803857          	vmv1r.v	v16,v8
    800004b0:	5e084457          	vmv.v.x	v8,a6
    800004b4:	1094                	addi	a3,sp,96
    800004b6:	02868427          	vs1r.v	v8,(a3)
    800004ba:	cd34f057          	vsetivli	zero,9,e32,m8,ta,ma
    800004be:	0202e407          	vle32.v	v8,(t0)
    800004c2:	0d0076d7          	vsetvli	a3,zero,e32,m1,ta,ma
    800004c6:	5e08c8d7          	vmv.v.x	v17,a7
    800004ca:	1014                	addi	a3,sp,32
    800004cc:	028688a7          	vs1r.v	v17,(a3)
    800004d0:	0874                	addi	a3,sp,28
    __riscv_vse32_v_u32m1(max_bits, __riscv_vreinterpret_v_f32m1_u32m1(vmax1), vl1);
    800004d2:	0206e827          	vse32.v	v16,(a3)
    for (size_t avl2 = n; avl2 > 0; ) {
    800004d6:	16060a63          	beqz	a2,8000064a <softmax_stable_rvv_fp32+0x1f0>
    800004da:	4881                	li	a7,0
    800004dc:	3fb8b6b7          	lui	a3,0x3fb8b
    800004e0:	38801737          	lui	a4,0x38801
    800004e4:	0d3077d7          	vsetvli	a5,zero,e32,m8,ta,ma
    800004e8:	3f3177b7          	lui	a5,0x3f317
    800004ec:	5e07c857          	vmv.v.x	v16,a5
    800004f0:	4a010793          	addi	a5,sp,1184
    800004f4:	e2878827          	vs8r.v	v16,(a5)
    800004f8:	42f2                	lw	t0,28(sp)
    800004fa:	a3b68693          	addi	a3,a3,-1477 # 3fb8aa3b <putchar.buflen+0x3fb8a9fb>
    800004fe:	c0070713          	addi	a4,a4,-1024 # 38800c00 <putchar.buflen+0x38800bc0>
    80000502:	5e06c857          	vmv.v.x	v16,a3
    80000506:	1514                	addi	a3,sp,672
    80000508:	e2868827          	vs8r.v	v16,(a3)
    8000050c:	5e074857          	vmv.v.x	v16,a4
    80000510:	1114                	addi	a3,sp,160
    80000512:	e2868827          	vs8r.v	v16,(a3)
    80000516:	07f00813          	li	a6,127
    8000051a:	87aa                	mv	a5,a0
    8000051c:	86b2                	mv	a3,a2
    8000051e:	0d007757          	vsetvli	a4,zero,e32,m1,ta,ma
    80000522:	5e003857          	vmv.v.i	v16,0
    80000526:	7ff10713          	addi	a4,sp,2047
    8000052a:	2a170713          	addi	a4,a4,673
    8000052e:	02870827          	vs1r.v	v16,(a4)
        size_t vl = __riscv_vsetvl_e32m8(avl2);
    80000532:	0d36f357          	vsetvli	t1,a3,e32,m8,ta,ma
        vfloat32m8_t vx = __riscv_vle32_v_f32m8(src, vl);
    80000536:	0205e807          	vle32.v	v16,(a1)
            __riscv_vmv_v_x_u32m8(max_bits[0], vl));
    8000053a:	5e02cc57          	vmv.v.x	v24,t0
        vx = __riscv_vfsub_vv_f32m8(vx, vmaxB, vl);
    8000053e:	0b0c1c57          	vfsub.vv	v24,v16,v24
    80000542:	1518                	addi	a4,sp,672
    80000544:	e2870807          	vl8r.v	v16,(a4)
            __riscv_vfmul_vv_f32m8(vx, viln2_8, vl), vl);
    80000548:	93881857          	vfmul.vv	v16,v24,v16
        vint32m8_t vk = __riscv_vfcvt_x_f_v_i32m8(
    8000054c:	4b009857          	vfcvt.x.f.v	v16,v16
    80000550:	7ff10713          	addi	a4,sp,2047
    80000554:	0a170713          	addi	a4,a4,161
    80000558:	e2870827          	vs8r.v	v16,(a4)
        vfloat32m8_t vfk = __riscv_vfcvt_f_x_v_f32m8(vk, vl);
    8000055c:	4b019057          	vfcvt.f.x.v	v0,v16
    80000560:	4a010713          	addi	a4,sp,1184
    80000564:	e2870807          	vl8r.v	v16,(a4)
                __riscv_vfmul_vv_f32m8(vfk, vln2_hi_8, vl), vl),
    80000568:	92081857          	vfmul.vv	v16,v0,v16
            __riscv_vfsub_vv_f32m8(vx,
    8000056c:	0b881857          	vfsub.vv	v16,v24,v16
        vfloat32m8_t p = __riscv_vrgather_vx_f32m8(ptable, 0, vl); // C8
    80000570:	32803c57          	vrgather.vi	v24,v8,0
    80000574:	6a010713          	addi	a4,sp,1696
    80000578:	e2870c27          	vs8r.v	v24,(a4)
    8000057c:	1118                	addi	a4,sp,160
    8000057e:	e2870c07          	vl8r.v	v24,(a4)
            __riscv_vfmul_vv_f32m8(vfk, vln2_lo_8, vl), vl);
    80000582:	920c1c57          	vfmul.vv	v24,v0,v24
        vfloat32m8_t vr  = __riscv_vfsub_vv_f32m8(
    80000586:	0b0c1c57          	vfsub.vv	v24,v16,v24
        p = __riscv_vfmadd_vv_f32m8(p, vr, __riscv_vrgather_vx_f32m8(ptable, 1, vl), vl); // +C7
    8000058a:	3280b857          	vrgather.vi	v16,v8,1
    8000058e:	6a010713          	addi	a4,sp,1696
    80000592:	e2870007          	vl8r.v	v0,(a4)
    80000596:	b20c1857          	vfmacc.vv	v16,v24,v0
        p = __riscv_vfmadd_vv_f32m8(p, vr, __riscv_vrgather_vx_f32m8(ptable, 2, vl), vl); // +C6
    8000059a:	32813057          	vrgather.vi	v0,v8,2
    8000059e:	b30c1057          	vfmacc.vv	v0,v24,v16
        p = __riscv_vfmadd_vv_f32m8(p, vr, __riscv_vrgather_vx_f32m8(ptable, 3, vl), vl); // +C5
    800005a2:	3281b857          	vrgather.vi	v16,v8,3
    800005a6:	b20c1857          	vfmacc.vv	v16,v24,v0
        p = __riscv_vfmadd_vv_f32m8(p, vr, __riscv_vrgather_vx_f32m8(ptable, 4, vl), vl); // +C4
    800005aa:	32823057          	vrgather.vi	v0,v8,4
    800005ae:	b30c1057          	vfmacc.vv	v0,v24,v16
        p = __riscv_vfmadd_vv_f32m8(p, vr, __riscv_vrgather_vx_f32m8(ptable, 5, vl), vl); // +C3
    800005b2:	3282b857          	vrgather.vi	v16,v8,5
    800005b6:	b20c1857          	vfmacc.vv	v16,v24,v0
        p = __riscv_vfmadd_vv_f32m8(p, vr, __riscv_vrgather_vx_f32m8(ptable, 6, vl), vl); // +C2
    800005ba:	32833057          	vrgather.vi	v0,v8,6
    800005be:	b30c1057          	vfmacc.vv	v0,v24,v16
        p = __riscv_vfmadd_vv_f32m8(p, vr, __riscv_vrgather_vx_f32m8(ptable, 7, vl), vl); // +C1
    800005c2:	3283b857          	vrgather.vi	v16,v8,7
    800005c6:	b20c1857          	vfmacc.vv	v16,v24,v0
        p = __riscv_vfmadd_vv_f32m8(p, vr, __riscv_vrgather_vx_f32m8(ptable, 8, vl), vl); // +C0
    800005ca:	32843057          	vrgather.vi	v0,v8,8
    800005ce:	b30c1057          	vfmacc.vv	v0,v24,v16
    800005d2:	7ff10713          	addi	a4,sp,2047
    800005d6:	0a170713          	addi	a4,a4,161
    800005da:	e2870807          	vl8r.v	v16,(a4)
                __riscv_vadd_vx_i32m8(vk, exp_bias, vl), 23, vl));
    800005de:	03084857          	vadd.vx	v16,v16,a6
            __riscv_vsll_vx_i32m8(
    800005e2:	970bb857          	vsll.vi	v16,v16,23
        vfloat32m8_t vexp8 = __riscv_vfmul_vv_f32m8(p, vf2k, vl);
    800005e6:	92081857          	vfmul.vv	v16,v0,v16
        unsigned old_frm; asm volatile("csrr %0, frm" : "=r"(old_frm));
    800005ea:	00202773          	frrm	a4
        asm volatile("csrw frm, %0" :: "r"(0)); // RNE
    800005ee:	00289073          	fsrm	a7
        asm volatile("csrw frm, %0" :: "r"(old_frm));
    800005f2:	00271073          	fsrm	a4
        __riscv_vse32_v_f32m8(dst, vexp8, vl);
    800005f6:	0d36f057          	vsetvli	zero,a3,e32,m8,ta,ma
    800005fa:	0207e827          	vse32.v	v16,(a5)
        vfloat32m1_t vblk = __riscv_vfredosum_vs_f32m8_f32m1(vexp8, vzero1, vl);
    800005fe:	0d007757          	vsetvli	a4,zero,e32,m1,ta,ma
    80000602:	5e003c57          	vmv.v.i	v24,0
    80000606:	0d36f057          	vsetvli	zero,a3,e32,m8,ta,ma
    8000060a:	0f0c1857          	vfredosum.vs	v16,v16,v24
    8000060e:	7ff10713          	addi	a4,sp,2047
    80000612:	2a170713          	addi	a4,a4,673
    80000616:	02870887          	vl1r.v	v17,(a4)
        vsum1 = __riscv_vfadd_vv_f32m1(vsum1, vblk, vl1);
    8000061a:	0d007757          	vsetvli	a4,zero,e32,m1,ta,ma
    8000061e:	031818d7          	vfadd.vv	v17,v17,v16
    80000622:	7ff10713          	addi	a4,sp,2047
    80000626:	2a170713          	addi	a4,a4,673
    8000062a:	028708a7          	vs1r.v	v17,(a4)
    8000062e:	7ff10713          	addi	a4,sp,2047
    80000632:	2a170713          	addi	a4,a4,673
    80000636:	02870807          	vl1r.v	v16,(a4)
        avl2 -= vl; src += vl; dst += vl;
    8000063a:	406686b3          	sub	a3,a3,t1
    8000063e:	030a                	slli	t1,t1,0x2
    80000640:	959a                	add	a1,a1,t1
    80000642:	979a                	add	a5,a5,t1
    for (size_t avl2 = n; avl2 > 0; ) {
    80000644:	ee0691e3          	bnez	a3,80000526 <softmax_stable_rvv_fp32+0xcc>
    80000648:	a029                	j	80000652 <softmax_stable_rvv_fp32+0x1f8>
    8000064a:	5e003457          	vmv.v.i	v8,0
    8000064e:	9e803857          	vmv1r.v	v16,v8
    80000652:	100c                	addi	a1,sp,32
    80000654:	02858407          	vl1r.v	v8,(a1)
    vfloat32m1_t vsum1_eps = __riscv_vfadd_vv_f32m1(vsum1, veps1, vl1);
    80000658:	03041457          	vfadd.vv	v8,v16,v8
    vfloat32m1_t vinv1 = __riscv_vfrec7_v_f32m1(vsum1_eps, vl1);
    8000065c:	4e8294d7          	vfrec7.v	v9,v8
    vfloat32m1_t corr = __riscv_vfnmsac_vv_f32m1(vtwo1, vsum1_eps, vinv1, vl1);
    80000660:	9e803557          	vmv1r.v	v10,v8
    80000664:	108c                	addi	a1,sp,96
    80000666:	02858587          	vl1r.v	v11,(a1)
    8000066a:	aeb49557          	vfnmsub.vv	v10,v9,v11
    vinv1 = __riscv_vfmul_vv_f32m1(vinv1, corr, vl1);
    8000066e:	929514d7          	vfmul.vv	v9,v9,v10
    corr  = __riscv_vfnmsac_vv_f32m1(vtwo1, vsum1_eps, vinv1, vl1);
    80000672:	aeb49457          	vfnmsub.vv	v8,v9,v11
    vinv1 = __riscv_vfmul_vv_f32m1(vinv1, corr, vl1);
    80000676:	92941457          	vfmul.vv	v8,v9,v8
    8000067a:	082c                	addi	a1,sp,24
    __riscv_vse32_v_u32m1(inv_bits, __riscv_vreinterpret_v_f32m1_u32m1(vinv1), vl1);
    8000067c:	0205e427          	vse32.v	v8,(a1)
    for (size_t avl3 = n; avl3 > 0; ) {
    80000680:	ce05                	beqz	a2,800006b8 <softmax_stable_rvv_fp32+0x25e>
    80000682:	45e2                	lw	a1,24(sp)
    80000684:	86aa                	mv	a3,a0
    80000686:	8732                	mv	a4,a2
        size_t vl = __riscv_vsetvl_e32m8(avl3);
    80000688:	0d3777d7          	vsetvli	a5,a4,e32,m8,ta,ma
        vfloat32m8_t row = __riscv_vle32_v_f32m8(dst, vl);
    8000068c:	0206e407          	vle32.v	v8,(a3)
            __riscv_vmv_v_x_u32m8(inv_bits[0], vl));
    80000690:	5e05c857          	vmv.v.x	v16,a1
        avl3 -= vl; dst += vl;
    80000694:	8f1d                	sub	a4,a4,a5
        row = __riscv_vfmul_vv_f32m8(row, vinvB, vl);
    80000696:	92881457          	vfmul.vv	v8,v8,v16
        __riscv_vse32_v_f32m8(dst, row, vl);
    8000069a:	0206e427          	vse32.v	v8,(a3)
        avl3 -= vl; dst += vl;
    8000069e:	078a                	slli	a5,a5,0x2
    800006a0:	96be                	add	a3,a3,a5
    800006a2:	f37d                	bnez	a4,80000688 <softmax_stable_rvv_fp32+0x22e>
        size_t vl = __riscv_vsetvl_e32m8(avl4);
    800006a4:	0d3675d7          	vsetvli	a1,a2,e32,m8,ta,ma
        vfloat32m8_t row2 = __riscv_vle32_v_f32m8(dst, vl);
    800006a8:	02056407          	vle32.v	v8,(a0)
        avl4 -= vl; dst += vl;
    800006ac:	8e0d                	sub	a2,a2,a1
        __riscv_vse32_v_f32m8(dst, row2, vl);
    800006ae:	02056427          	vse32.v	v8,(a0)
        avl4 -= vl; dst += vl;
    800006b2:	058a                	slli	a1,a1,0x2
    800006b4:	952e                	add	a0,a0,a1
    800006b6:	f67d                	bnez	a2,800006a4 <softmax_stable_rvv_fp32+0x24a>
    // dbg_print_line("Final results:\n");
    // for (size_t i = 0; i < n; i++) {
    //     dbg_print_idx_hex32("dst", (uint32_t)i, "bits", load_f32_bits(&dst_orig[i]));
    //     dbg_print_idx_hex32("golden", (uint32_t)i, "bits", load_f32_bits(&golden[i]));
    // }
    800006b8:	7f010113          	addi	sp,sp,2032
    800006bc:	2d010113          	addi	sp,sp,720
    800006c0:	6105                	addi	sp,sp,32
    800006c2:	8082                	ret

00000000800006c4 <setStats>:
    uintptr_t csr = read_csr(name); \
    if (!enable) { csr -= counters[i]; counter_names[i] = #name; } \
    counters[i++] = csr; \
  } while (0)

  READ_CTR(mcycle);
    800006c4:	b00025f3          	csrr	a1,mcycle
    800006c8:	00001617          	auipc	a2,0x1
    800006cc:	67060613          	addi	a2,a2,1648 # 80001d38 <counters.0>
    800006d0:	6214                	ld	a3,0(a2)
    800006d2:	00a03533          	snez	a0,a0
    800006d6:	157d                	addi	a0,a0,-1 # 3fffffff <putchar.buflen+0x3fffffbf>
    800006d8:	8ee9                	and	a3,a3,a0
    800006da:	8d95                	sub	a1,a1,a3
    800006dc:	e20c                	sd	a1,0(a2)
  READ_CTR(minstret);
    800006de:	b02025f3          	csrr	a1,minstret
    800006e2:	6614                	ld	a3,8(a2)
    800006e4:	8d75                	and	a0,a0,a3
    800006e6:	8d89                	sub	a1,a1,a0
    800006e8:	e60c                	sd	a1,8(a2)

#undef READ_CTR
}
    800006ea:	8082                	ret

00000000800006ec <tohost_exit>:
  } while(pos < end_signature);
}

void __attribute__((noreturn)) tohost_exit(uintptr_t code)
{
  tohost = (code << 1) | 1;
    800006ec:	0506                	slli	a0,a0,0x1
    800006ee:	0505                	addi	a0,a0,1
    800006f0:	00001597          	auipc	a1,0x1
    800006f4:	68a5b823          	sd	a0,1680(a1) # 80001d80 <tohost>
  while (1);
    800006f8:	a001                	j	800006f8 <tohost_exit+0xc>

00000000800006fa <handle_trap>:
  tohost = (code << 1) | 1;
    800006fa:	00001517          	auipc	a0,0x1
    800006fe:	6585                	lui	a1,0x1
    80000700:	a7358593          	addi	a1,a1,-1421 # a73 <putchar.buflen+0xa33>
    80000704:	68b53323          	sd	a1,1670(a0) # 80001d80 <tohost>
  while (1);
    80000708:	a001                	j	80000708 <handle_trap+0xe>

000000008000070a <exit>:
}

void exit(int code)
{
  //flush_signature_cachelines();
  asm("ecall");
    8000070a:	00000073          	ecall
  tohost = (code << 1) | 1;
    8000070e:	0506                	slli	a0,a0,0x1
    80000710:	0505                	addi	a0,a0,1
    80000712:	00001597          	auipc	a1,0x1
    80000716:	66a5b723          	sd	a0,1646(a1) # 80001d80 <tohost>
  while (1);
    8000071a:	a001                	j	8000071a <exit+0x10>

000000008000071c <abort>:
  asm("ecall");
    8000071c:	00000073          	ecall
  tohost = (code << 1) | 1;
    80000720:	00001517          	auipc	a0,0x1
    80000724:	10d00593          	li	a1,269
    80000728:	66b53023          	sd	a1,1632(a0) # 80001d80 <tohost>
  while (1);
    8000072c:	a001                	j	8000072c <abort+0x10>

000000008000072e <printstr>:
{
  exit(128 + SIGABRT);
}

void printstr(const char* s)
{
    8000072e:	4581                	li	a1,0
}

size_t strlen(const char *s)
{
  const char *p = s;
  while (*p)
    80000730:	00b50633          	add	a2,a0,a1
    80000734:	00064603          	lbu	a2,0(a2)
    80000738:	0585                	addi	a1,a1,1
    8000073a:	fa7d                	bnez	a2,80000730 <printstr+0x2>
    8000073c:	7119                	addi	sp,sp,-128
    8000073e:	fc86                	sd	ra,120(sp)
    80000740:	f8a2                	sd	s0,112(sp)
    80000742:	0100                	addi	s0,sp,128
    80000744:	fc017113          	andi	sp,sp,-64
  volatile uint64_t magic_mem[8] __attribute__((aligned(64)));
    80000748:	15fd                	addi	a1,a1,-1
    8000074a:	04000613          	li	a2,64
  magic_mem[0] = which;
    8000074e:	e032                	sd	a2,0(sp)
    80000750:	4605                	li	a2,1
  magic_mem[1] = arg0;
    80000752:	e432                	sd	a2,8(sp)
  tohost = (uintptr_t)magic_mem;
    80000754:	00001617          	auipc	a2,0x1
  magic_mem[2] = arg1;
    80000758:	e82a                	sd	a0,16(sp)
    8000075a:	850a                	mv	a0,sp
  magic_mem[3] = arg2;
    8000075c:	ec2e                	sd	a1,24(sp)
  __sync_synchronize();
    8000075e:	0330000f          	fence	rw,rw
  tohost = (uintptr_t)magic_mem;
    80000762:	62a63623          	sd	a0,1580(a2) # 80001d80 <tohost>
    80000766:	00001517          	auipc	a0,0x1
  while (fromhost == 0)
    8000076a:	65a53583          	ld	a1,1626(a0) # 80001dc0 <fromhost>
    8000076e:	ddf5                	beqz	a1,8000076a <printstr+0x3c>
  fromhost = 0;
    80000770:	64053d23          	sd	zero,1626(a0)
  __sync_synchronize();
    80000774:	0330000f          	fence	rw,rw
  return magic_mem[0];
    80000778:	00013003          	ld	zero,0(sp)
}
    8000077c:	f8040113          	addi	sp,s0,-128
    80000780:	70e6                	ld	ra,120(sp)
    80000782:	7446                	ld	s0,112(sp)
    80000784:	6109                	addi	sp,sp,128
    80000786:	8082                	ret

0000000080000788 <strlen>:
{
    80000788:	4581                	li	a1,0
  while (*p)
    8000078a:	00b50633          	add	a2,a0,a1
    8000078e:	00064603          	lbu	a2,0(a2)
    80000792:	0585                	addi	a1,a1,1
    80000794:	fa7d                	bnez	a2,8000078a <strlen+0x2>
    p++;
  return p - s;
    80000796:	fff58513          	addi	a0,a1,-1
    8000079a:	8082                	ret

000000008000079c <thread_entry>:
  while (cid != 0);
    8000079c:	c111                	beqz	a0,800007a0 <thread_entry+0x4>
    8000079e:	a001                	j	8000079e <thread_entry+0x2>
}
    800007a0:	8082                	ret
{
    800007a2:	7119                	addi	sp,sp,-128
    800007a4:	fc86                	sd	ra,120(sp)
    800007a6:	f8a2                	sd	s0,112(sp)
    800007a8:	0100                	addi	s0,sp,128
    800007aa:	fc017113          	andi	sp,sp,-64
    800007ae:	04000513          	li	a0,64
    800007b2:	4585                	li	a1,1
  magic_mem[0] = which;
    800007b4:	e02a                	sd	a0,0(sp)
  magic_mem[2] = arg1;
    800007b6:	00001517          	auipc	a0,0x1
  magic_mem[1] = arg0;
    800007ba:	e42e                	sd	a1,8(sp)
    800007bc:	45dd                	li	a1,23
  magic_mem[2] = arg1;
    800007be:	16250513          	addi	a0,a0,354 # 80001918 <softmax_stable_rvv_fp32.coeff_bits+0x588>
    800007c2:	e82a                	sd	a0,16(sp)
  tohost = (uintptr_t)magic_mem;
    800007c4:	00001517          	auipc	a0,0x1
  magic_mem[3] = arg2;
    800007c8:	ec2e                	sd	a1,24(sp)
    800007ca:	858a                	mv	a1,sp
  __sync_synchronize();
    800007cc:	0330000f          	fence	rw,rw
  tohost = (uintptr_t)magic_mem;
    800007d0:	5ab53e23          	sd	a1,1468(a0) # 80001d80 <tohost>
    800007d4:	00001517          	auipc	a0,0x1
  while (fromhost == 0)
    800007d8:	5ec53583          	ld	a1,1516(a0) # 80001dc0 <fromhost>
    800007dc:	ddf5                	beqz	a1,800007d8 <thread_entry+0x3c>
  fromhost = 0;
    800007de:	5e053623          	sd	zero,1516(a0)
  __sync_synchronize();
    800007e2:	0330000f          	fence	rw,rw
  return magic_mem[0];
    800007e6:	00013003          	ld	zero,0(sp)
  return -1;
    800007ea:	557d                	li	a0,-1
    800007ec:	f8040113          	addi	sp,s0,-128
    800007f0:	70e6                	ld	ra,120(sp)
    800007f2:	7446                	ld	s0,112(sp)
    800007f4:	6109                	addi	sp,sp,128
    800007f6:	8082                	ret

00000000800007f8 <_init>:
{
    800007f8:	1141                	addi	sp,sp,-16
    800007fa:	e406                	sd	ra,8(sp)
  asm volatile("mv %0, tp" : "=r"(thread_pointer));
    800007fc:	8892                	mv	a7,tp
  if ((((uintptr_t)dest | (uintptr_t)src | len) & (sizeof(uintptr_t)-1)) == 0) {
    800007fe:	00001617          	auipc	a2,0x1
    80000802:	00001717          	auipc	a4,0x1
    80000806:	5ca60793          	addi	a5,a2,1482 # 80001dc8 <_tdata_begin>
    8000080a:	5c670813          	addi	a6,a4,1478 # 80001dc8 <_tdata_begin>
    8000080e:	40f80633          	sub	a2,a6,a5
    80000812:	0117e733          	or	a4,a5,a7
    80000816:	8f51                	or	a4,a4,a2
    80000818:	00777693          	andi	a3,a4,7
    8000081c:	00c882b3          	add	t0,a7,a2
    80000820:	ce91                	beqz	a3,8000083c <_init+0x44>
    while (d < (char*)(dest + len))
    80000822:	ce0d                	beqz	a2,8000085c <_init+0x64>
    80000824:	8646                	mv	a2,a7
      *d++ = *s++;
    80000826:	0007c683          	lbu	a3,0(a5) # 3f317000 <putchar.buflen+0x3f316fc0>
    8000082a:	0785                	addi	a5,a5,1
    8000082c:	00160713          	addi	a4,a2,1
    80000830:	00d60023          	sb	a3,0(a2)
    80000834:	863a                	mv	a2,a4
    80000836:	fe5768e3          	bltu	a4,t0,80000826 <_init+0x2e>
    8000083a:	a00d                	j	8000085c <_init+0x64>
    8000083c:	00001797          	auipc	a5,0x1
    80000840:	58c78793          	addi	a5,a5,1420 # 80001dc8 <_tdata_begin>
    80000844:	40f80633          	sub	a2,a6,a5
    while (d < (uintptr_t*)(dest + len))
    80000848:	ca11                	beqz	a2,8000085c <_init+0x64>
    8000084a:	8646                	mv	a2,a7
      *d++ = *s++;
    8000084c:	6394                	ld	a3,0(a5)
    8000084e:	07a1                	addi	a5,a5,8
    80000850:	00860713          	addi	a4,a2,8
    80000854:	e214                	sd	a3,0(a2)
    80000856:	863a                	mv	a2,a4
    while (d < (uintptr_t*)(dest + len))
    80000858:	fe576ae3          	bltu	a4,t0,8000084c <_init+0x54>
  memset(thread_pointer + tdata_size, 0, tbss_size);
    8000085c:	00001617          	auipc	a2,0x1
  if ((((uintptr_t)dest | len) & (sizeof(uintptr_t)-1)) == 0) {
    80000860:	00001697          	auipc	a3,0x1
  memset(thread_pointer + tdata_size, 0, tbss_size);
    80000864:	56c60613          	addi	a2,a2,1388 # 80001dc8 <_tdata_begin>
  if ((((uintptr_t)dest | len) & (sizeof(uintptr_t)-1)) == 0) {
    80000868:	5e468793          	addi	a5,a3,1508 # 80001e44 <_tbss_end>
  memset(thread_pointer + tdata_size, 0, tbss_size);
    8000086c:	40c80733          	sub	a4,a6,a2
  if ((((uintptr_t)dest | len) & (sizeof(uintptr_t)-1)) == 0) {
    80000870:	410786b3          	sub	a3,a5,a6
  memset(thread_pointer + tdata_size, 0, tbss_size);
    80000874:	9746                	add	a4,a4,a7
  if ((((uintptr_t)dest | len) & (sizeof(uintptr_t)-1)) == 0) {
    80000876:	8ed9                	or	a3,a3,a4
    80000878:	8a9d                	andi	a3,a3,7
    8000087a:	40c78633          	sub	a2,a5,a2
    8000087e:	9646                	add	a2,a2,a7
    80000880:	ce81                	beqz	a3,80000898 <_init+0xa0>
    80000882:	410786b3          	sub	a3,a5,a6
    while (d < (char*)(dest + len))
    80000886:	c29d                	beqz	a3,800008ac <_init+0xb4>
      *d++ = byte;
    80000888:	00170693          	addi	a3,a4,1
    8000088c:	00070023          	sb	zero,0(a4)
    80000890:	8736                	mv	a4,a3
    80000892:	fec6ebe3          	bltu	a3,a2,80000888 <_init+0x90>
    80000896:	a819                	j	800008ac <_init+0xb4>
    80000898:	410786b3          	sub	a3,a5,a6
    while (d < (uintptr_t*)(dest + len))
    8000089c:	ca81                	beqz	a3,800008ac <_init+0xb4>
      *d++ = word;
    8000089e:	00870693          	addi	a3,a4,8
    800008a2:	00073023          	sd	zero,0(a4)
    800008a6:	8736                	mv	a4,a3
    while (d < (uintptr_t*)(dest + len))
    800008a8:	fec6ebe3          	bltu	a3,a2,8000089e <_init+0xa6>
  thread_entry(cid, nc);
    800008ac:	00000097          	auipc	ra,0x0
    800008b0:	ef0080e7          	jalr	-272(ra) # 8000079c <thread_entry>
  int ret = main(0, 0);
    800008b4:	4501                	li	a0,0
    800008b6:	4581                	li	a1,0
    800008b8:	00000097          	auipc	ra,0x0
    800008bc:	94a080e7          	jalr	-1718(ra) # 80000202 <main>
  asm("ecall");
    800008c0:	00000073          	ecall
  tohost = (code << 1) | 1;
    800008c4:	0506                	slli	a0,a0,0x1
    800008c6:	0505                	addi	a0,a0,1
    800008c8:	00001597          	auipc	a1,0x1
    800008cc:	4aa5bc23          	sd	a0,1208(a1) # 80001d80 <tohost>
  while (1);
    800008d0:	a001                	j	800008d0 <_init+0xd8>

00000000800008d2 <putchar>:
  buf[buflen++] = ch;
    800008d2:	000005b7          	lui	a1,0x0
    800008d6:	004586b3          	add	a3,a1,tp
    800008da:	0406a603          	lw	a2,64(a3)
    800008de:	000005b7          	lui	a1,0x0
    800008e2:	004585b3          	add	a1,a1,tp
    800008e6:	00058593          	mv	a1,a1
    800008ea:	00c58733          	add	a4,a1,a2
    800008ee:	00a70023          	sb	a0,0(a4)
    800008f2:	4729                	li	a4,10
    800008f4:	2605                	addiw	a2,a2,1
    800008f6:	04c6a023          	sw	a2,64(a3)
  if (ch == '\n' || buflen == sizeof(buf))
    800008fa:	00e50863          	beq	a0,a4,8000090a <putchar+0x38>
    800008fe:	04000513          	li	a0,64
    80000902:	00a60463          	beq	a2,a0,8000090a <putchar+0x38>
  return 0;
    80000906:	4501                	li	a0,0
    80000908:	8082                	ret
    8000090a:	7119                	addi	sp,sp,-128
    8000090c:	fc86                	sd	ra,120(sp)
    8000090e:	f8a2                	sd	s0,112(sp)
    80000910:	0100                	addi	s0,sp,128
    80000912:	fc017113          	andi	sp,sp,-64
    80000916:	04068513          	addi	a0,a3,64
    8000091a:	04000693          	li	a3,64
  magic_mem[0] = which;
    8000091e:	e036                	sd	a3,0(sp)
    80000920:	4685                	li	a3,1
  magic_mem[1] = arg0;
    80000922:	e436                	sd	a3,8(sp)
  tohost = (uintptr_t)magic_mem;
    80000924:	00001697          	auipc	a3,0x1
  magic_mem[2] = arg1;
    80000928:	e82e                	sd	a1,16(sp)
    8000092a:	858a                	mv	a1,sp
  magic_mem[3] = arg2;
    8000092c:	ec32                	sd	a2,24(sp)
  __sync_synchronize();
    8000092e:	0330000f          	fence	rw,rw
  tohost = (uintptr_t)magic_mem;
    80000932:	44b6be23          	sd	a1,1116(a3) # 80001d80 <tohost>
    80000936:	00001597          	auipc	a1,0x1
  while (fromhost == 0)
    8000093a:	48a5b603          	ld	a2,1162(a1) # 80001dc0 <fromhost>
    8000093e:	de75                	beqz	a2,8000093a <putchar+0x68>
  fromhost = 0;
    80000940:	4805b523          	sd	zero,1162(a1)
  __sync_synchronize();
    80000944:	0330000f          	fence	rw,rw
  return magic_mem[0];
    80000948:	00013003          	ld	zero,0(sp)
    buflen = 0;
    8000094c:	00052023          	sw	zero,0(a0)
    80000950:	f8040113          	addi	sp,s0,-128
    80000954:	70e6                	ld	ra,120(sp)
    80000956:	7446                	ld	s0,112(sp)
    80000958:	6109                	addi	sp,sp,128
  return 0;
    8000095a:	4501                	li	a0,0
    8000095c:	8082                	ret

000000008000095e <printhex>:
{
    8000095e:	7131                	addi	sp,sp,-192
    80000960:	fd06                	sd	ra,184(sp)
    80000962:	f922                	sd	s0,176(sp)
    80000964:	0180                	addi	s0,sp,192
    80000966:	fc017113          	andi	sp,sp,-64
  for (i = 0; i < 16; i++)
    8000096a:	03e10593          	addi	a1,sp,62
    8000096e:	02e10613          	addi	a2,sp,46
    80000972:	46a9                	li	a3,10
    80000974:	a811                	j	80000988 <printhex+0x2a>
    80000976:	05700793          	li	a5,87
    str[15-i] = (x & 0xF) + ((x & 0xF) < 10 ? '0' : 'a'-10);
    8000097a:	973e                	add	a4,a4,a5
    8000097c:	00e58023          	sb	a4,0(a1)
  for (i = 0; i < 16; i++)
    80000980:	15fd                	addi	a1,a1,-1
    x >>= 4;
    80000982:	8111                	srli	a0,a0,0x4
  for (i = 0; i < 16; i++)
    80000984:	00c58963          	beq	a1,a2,80000996 <printhex+0x38>
    str[15-i] = (x & 0xF) + ((x & 0xF) < 10 ? '0' : 'a'-10);
    80000988:	00f57713          	andi	a4,a0,15
    8000098c:	fed775e3          	bgeu	a4,a3,80000976 <printhex+0x18>
    80000990:	03000793          	li	a5,48
    80000994:	b7dd                	j	8000097a <printhex+0x1c>
    80000996:	4501                	li	a0,0
  str[16] = 0;
    80000998:	02010fa3          	sb	zero,63(sp)
    8000099c:	02f10593          	addi	a1,sp,47
  while (*p)
    800009a0:	00a58633          	add	a2,a1,a0
    800009a4:	00064603          	lbu	a2,0(a2)
    800009a8:	0505                	addi	a0,a0,1
    800009aa:	fa7d                	bnez	a2,800009a0 <printhex+0x42>
  volatile uint64_t magic_mem[8] __attribute__((aligned(64)));
    800009ac:	157d                	addi	a0,a0,-1
    800009ae:	04000593          	li	a1,64
  magic_mem[0] = which;
    800009b2:	e0ae                	sd	a1,64(sp)
    800009b4:	4585                	li	a1,1
  magic_mem[1] = arg0;
    800009b6:	e4ae                	sd	a1,72(sp)
    800009b8:	02f10593          	addi	a1,sp,47
  magic_mem[2] = arg1;
    800009bc:	e8ae                	sd	a1,80(sp)
  tohost = (uintptr_t)magic_mem;
    800009be:	00001597          	auipc	a1,0x1
  magic_mem[3] = arg2;
    800009c2:	ecaa                	sd	a0,88(sp)
    800009c4:	0088                	addi	a0,sp,64
  __sync_synchronize();
    800009c6:	0330000f          	fence	rw,rw
  tohost = (uintptr_t)magic_mem;
    800009ca:	3ca5b123          	sd	a0,962(a1) # 80001d80 <tohost>
    800009ce:	00001517          	auipc	a0,0x1
  while (fromhost == 0)
    800009d2:	3f253583          	ld	a1,1010(a0) # 80001dc0 <fromhost>
    800009d6:	ddf5                	beqz	a1,800009d2 <printhex+0x74>
  fromhost = 0;
    800009d8:	3e053923          	sd	zero,1010(a0)
  __sync_synchronize();
    800009dc:	0330000f          	fence	rw,rw
  return magic_mem[0];
    800009e0:	04013003          	ld	zero,64(sp)
}
    800009e4:	f4040113          	addi	sp,s0,-192
    800009e8:	70ea                	ld	ra,184(sp)
    800009ea:	744a                	ld	s0,176(sp)
    800009ec:	6129                	addi	sp,sp,192
    800009ee:	8082                	ret

00000000800009f0 <printf>:
{
    800009f0:	715d                	addi	sp,sp,-80
    800009f2:	e406                	sd	ra,8(sp)
    800009f4:	82aa                	mv	t0,a0
    800009f6:	fc3e                	sd	a5,56(sp)
    800009f8:	e0c2                	sd	a6,64(sp)
    800009fa:	e4c6                	sd	a7,72(sp)
    800009fc:	ec2e                	sd	a1,24(sp)
    800009fe:	f032                	sd	a2,32(sp)
    80000a00:	f436                	sd	a3,40(sp)
    80000a02:	f83a                	sd	a4,48(sp)
    80000a04:	0828                	addi	a0,sp,24
  va_start(ap, fmt);
    80000a06:	e02a                	sd	a0,0(sp)
  vprintfmt((void*)putchar, 0, fmt, ap);
    80000a08:	00000517          	auipc	a0,0x0
    80000a0c:	eca50513          	addi	a0,a0,-310 # 800008d2 <putchar>
    80000a10:	0834                	addi	a3,sp,24
    80000a12:	4581                	li	a1,0
    80000a14:	8616                	mv	a2,t0
    80000a16:	00000097          	auipc	ra,0x0
    80000a1a:	010080e7          	jalr	16(ra) # 80000a26 <vprintfmt>
  return 0; // incorrect return value, but who cares, anyway?
    80000a1e:	4501                	li	a0,0
    80000a20:	60a2                	ld	ra,8(sp)
    80000a22:	6161                	addi	sp,sp,80
    80000a24:	8082                	ret

0000000080000a26 <vprintfmt>:
{
    80000a26:	7149                	addi	sp,sp,-368
    80000a28:	f686                	sd	ra,360(sp)
    80000a2a:	f2a2                	sd	s0,352(sp)
    80000a2c:	eea6                	sd	s1,344(sp)
    80000a2e:	eaca                	sd	s2,336(sp)
    80000a30:	e6ce                	sd	s3,328(sp)
    80000a32:	e2d2                	sd	s4,320(sp)
    80000a34:	fe56                	sd	s5,312(sp)
    80000a36:	fa5a                	sd	s6,304(sp)
    80000a38:	f65e                	sd	s7,296(sp)
    80000a3a:	f262                	sd	s8,288(sp)
    80000a3c:	ee66                	sd	s9,280(sp)
    80000a3e:	ea6a                	sd	s10,272(sp)
    80000a40:	e66e                	sd	s11,264(sp)
    80000a42:	8a36                	mv	s4,a3
    80000a44:	8b32                	mv	s6,a2
    80000a46:	8cae                	mv	s9,a1
    80000a48:	892a                	mv	s2,a0
    80000a4a:	02500c13          	li	s8,37
    80000a4e:	5d59                	li	s10,-10
    80000a50:	4aa5                	li	s5,9
    while ((ch = *(unsigned char *) fmt) != '%') {
    80000a52:	001b0993          	addi	s3,s6,1
    80000a56:	fff9c503          	lbu	a0,-1(s3)
    80000a5a:	01850b63          	beq	a0,s8,80000a70 <vprintfmt+0x4a>
    80000a5e:	24050b63          	beqz	a0,80000cb4 <vprintfmt+0x28e>
      putch(ch, putdat);
    80000a62:	85e6                	mv	a1,s9
    80000a64:	9902                	jalr	s2
    while ((ch = *(unsigned char *) fmt) != '%') {
    80000a66:	0985                	addi	s3,s3,1
    80000a68:	fff9c503          	lbu	a0,-1(s3)
    80000a6c:	ff8519e3          	bne	a0,s8,80000a5e <vprintfmt+0x38>
    80000a70:	e052                	sd	s4,0(sp)
    80000a72:	4501                	li	a0,0
    80000a74:	02000a13          	li	s4,32
    80000a78:	5bfd                	li	s7,-1
    80000a7a:	8b4e                	mv	s6,s3
    80000a7c:	5dfd                	li	s11,-1
    80000a7e:	05500413          	li	s0,85
    80000a82:	a031                	j	80000a8e <vprintfmt+0x68>
      if (width < 0)
    80000a84:	43fbd693          	srai	a3,s7,0x3f
    80000a88:	00c6edb3          	or	s11,a3,a2
    80000a8c:	8bae                	mv	s7,a1
    80000a8e:	017025b3          	sgtz	a1,s7
    80000a92:	40b005bb          	negw	a1,a1
    80000a96:	0175f633          	and	a2,a1,s7
    switch (ch = *(unsigned char *) fmt++) {
    80000a9a:	000b4583          	lbu	a1,0(s6)
    80000a9e:	fdd58713          	addi	a4,a1,-35
    80000aa2:	18e46d63          	bltu	s0,a4,80000c3c <vprintfmt+0x216>
    80000aa6:	86da                	mv	a3,s6
    80000aa8:	070e                	slli	a4,a4,0x3
    80000aaa:	00001797          	auipc	a5,0x1
    80000aae:	90e78793          	addi	a5,a5,-1778 # 800013b8 <softmax_stable_rvv_fp32.coeff_bits+0x28>
    80000ab2:	973e                	add	a4,a4,a5
    80000ab4:	6318                	ld	a4,0(a4)
    80000ab6:	0b05                	addi	s6,s6,1
    80000ab8:	8702                	jr	a4
    80000aba:	8a2e                	mv	s4,a1
    80000abc:	bff9                	j	80000a9a <vprintfmt+0x74>
    80000abe:	8bb2                	mv	s7,a2
    80000ac0:	bfe9                	j	80000a9a <vprintfmt+0x74>
    80000ac2:	4601                	li	a2,0
        precision = precision * 10 + ch - '0';
    80000ac4:	00161713          	slli	a4,a2,0x1
    80000ac8:	060e                	slli	a2,a2,0x3
    80000aca:	963a                	add	a2,a2,a4
    80000acc:	962e                	add	a2,a2,a1
        ch = *fmt;
    80000ace:	0016c583          	lbu	a1,1(a3)
    80000ad2:	0685                	addi	a3,a3,1
        if (ch < '0' || ch > '9')
    80000ad4:	fc658713          	addi	a4,a1,-58
        precision = precision * 10 + ch - '0';
    80000ad8:	fd06061b          	addiw	a2,a2,-48
        if (ch < '0' || ch > '9')
    80000adc:	ffa774e3          	bgeu	a4,s10,80000ac4 <vprintfmt+0x9e>
    80000ae0:	8b36                	mv	s6,a3
    80000ae2:	85b2                	mv	a1,a2
      if (width < 0)
    80000ae4:	fa0bc0e3          	bltz	s7,80000a84 <vprintfmt+0x5e>
    80000ae8:	85de                	mv	a1,s7
    80000aea:	bf69                	j	80000a84 <vprintfmt+0x5e>
    80000aec:	6582                	ld	a1,0(sp)
      precision = va_arg(ap, int);
    80000aee:	4190                	lw	a2,0(a1)
    80000af0:	05a1                	addi	a1,a1,8
    80000af2:	e02e                	sd	a1,0(sp)
    80000af4:	85b2                	mv	a1,a2
      if (width < 0)
    80000af6:	f80bc7e3          	bltz	s7,80000a84 <vprintfmt+0x5e>
    80000afa:	b7fd                	j	80000ae8 <vprintfmt+0xc2>
      lflag++;
    80000afc:	2505                	addiw	a0,a0,1
      goto reswitch;
    80000afe:	bf41                	j	80000a8e <vprintfmt+0x68>
    80000b00:	49a1                	li	s3,8
  if (lflag >= 2)
    80000b02:	4589                	li	a1,2
    80000b04:	08b54e63          	blt	a0,a1,80000ba0 <vprintfmt+0x17a>
    80000b08:	a869                	j	80000ba2 <vprintfmt+0x17c>
    80000b0a:	49a9                	li	s3,10
    80000b0c:	4589                	li	a1,2
    80000b0e:	08b54963          	blt	a0,a1,80000ba0 <vprintfmt+0x17a>
    80000b12:	a841                	j	80000ba2 <vprintfmt+0x17c>
    80000b14:	6502                	ld	a0,0(sp)
      if ((p = va_arg(ap, char *)) == NULL)
    80000b16:	00053983          	ld	s3,0(a0)
    80000b1a:	00099663          	bnez	s3,80000b26 <vprintfmt+0x100>
    80000b1e:	00001997          	auipc	s3,0x1
    80000b22:	e1298993          	addi	s3,s3,-494 # 80001930 <softmax_stable_rvv_fp32.coeff_bits+0x5a0>
      if (width > 0 && padc != '-')
    80000b26:	15705e63          	blez	s7,80000c82 <vprintfmt+0x25c>
    80000b2a:	02d00513          	li	a0,45
    80000b2e:	12aa0363          	beq	s4,a0,80000c54 <vprintfmt+0x22e>
    80000b32:	854e                	mv	a0,s3
}

size_t strnlen(const char *s, size_t n)
{
  const char *p = s;
  while (n-- && *p)
    80000b34:	000d8d63          	beqz	s11,80000b4e <vprintfmt+0x128>
    80000b38:	01b985b3          	add	a1,s3,s11
    80000b3c:	866e                	mv	a2,s11
    80000b3e:	854e                	mv	a0,s3
    80000b40:	00054683          	lbu	a3,0(a0)
    80000b44:	c689                	beqz	a3,80000b4e <vprintfmt+0x128>
    80000b46:	167d                	addi	a2,a2,-1
    p++;
    80000b48:	0505                	addi	a0,a0,1
  while (n-- && *p)
    80000b4a:	fa7d                	bnez	a2,80000b40 <vprintfmt+0x11a>
    80000b4c:	852e                	mv	a0,a1
  return p - s;
    80000b4e:	40a98533          	sub	a0,s3,a0
        for (width -= strnlen(p, precision); width > 0; width--)
    80000b52:	00ab843b          	addw	s0,s7,a0
    80000b56:	10805063          	blez	s0,80000c56 <vprintfmt+0x230>
    80000b5a:	955e                	add	a0,a0,s7
    80000b5c:	00150413          	addi	s0,a0,1
    80000b60:	4485                	li	s1,1
          putch(padc, putdat);
    80000b62:	8552                	mv	a0,s4
    80000b64:	85e6                	mv	a1,s9
    80000b66:	9902                	jalr	s2
        for (width -= strnlen(p, precision); width > 0; width--)
    80000b68:	347d                	addiw	s0,s0,-1
    80000b6a:	fe84cce3          	blt	s1,s0,80000b62 <vprintfmt+0x13c>
    80000b6e:	4401                	li	s0,0
      for (; (ch = *p) != '\0' && (precision < 0 || --precision >= 0); width--) {
    80000b70:	0009c503          	lbu	a0,0(s3)
    80000b74:	e565                	bnez	a0,80000c5c <vprintfmt+0x236>
    80000b76:	aa11                	j	80000c8a <vprintfmt+0x264>
    80000b78:	6402                	ld	s0,0(sp)
      putch(va_arg(ap, int), putdat);
    80000b7a:	4008                	lw	a0,0(s0)
    80000b7c:	00840a13          	addi	s4,s0,8
    80000b80:	85e6                	mv	a1,s9
    80000b82:	9902                	jalr	s2
      break;
    80000b84:	b5f9                	j	80000a52 <vprintfmt+0x2c>
      putch('0', putdat);
    80000b86:	03000513          	li	a0,48
    80000b8a:	85e6                	mv	a1,s9
    80000b8c:	9902                	jalr	s2
      putch('x', putdat);
    80000b8e:	07800513          	li	a0,120
    80000b92:	85e6                	mv	a1,s9
    80000b94:	9902                	jalr	s2
    80000b96:	4505                	li	a0,1
    80000b98:	49c1                	li	s3,16
  if (lflag >= 2)
    80000b9a:	4589                	li	a1,2
    80000b9c:	00b55363          	bge	a0,a1,80000ba2 <vprintfmt+0x17c>
  else if (lflag)
    80000ba0:	c54d                	beqz	a0,80000c4a <vprintfmt+0x224>
    80000ba2:	6482                	ld	s1,0(sp)
    80000ba4:	8da6                	mv	s11,s1
    80000ba6:	6084                	ld	s1,0(s1)
    digs[pos++] = num % base;
    80000ba8:	0334f533          	remu	a0,s1,s3
    80000bac:	c42a                	sw	a0,8(sp)
    80000bae:	4405                	li	s0,1
    if (num < base)
    80000bb0:	0134ec63          	bltu	s1,s3,80000bc8 <vprintfmt+0x1a2>
    80000bb4:	0068                	addi	a0,sp,12
    num /= base;
    80000bb6:	0334d4b3          	divu	s1,s1,s3
    digs[pos++] = num % base;
    80000bba:	0334f5b3          	remu	a1,s1,s3
    80000bbe:	c10c                	sw	a1,0(a0)
    if (num < base)
    80000bc0:	0511                	addi	a0,a0,4
    80000bc2:	2405                	addiw	s0,s0,1
    80000bc4:	ff34f9e3          	bgeu	s1,s3,80000bb6 <vprintfmt+0x190>
  while (width-- > pos)
    80000bc8:	01745863          	bge	s0,s7,80000bd8 <vprintfmt+0x1b2>
    80000bcc:	3bfd                	addiw	s7,s7,-1
    putch(padc, putdat);
    80000bce:	8552                	mv	a0,s4
    80000bd0:	85e6                	mv	a1,s9
    80000bd2:	9902                	jalr	s2
  while (width-- > pos)
    80000bd4:	ff744ce3          	blt	s0,s7,80000bcc <vprintfmt+0x1a6>
    80000bd8:	8522                	mv	a0,s0
    80000bda:	8a6e                	mv	s4,s11
    80000bdc:	00805363          	blez	s0,80000be2 <vprintfmt+0x1bc>
    80000be0:	4505                	li	a0,1
    80000be2:	0a21                	addi	s4,s4,8
  while (pos-- > 0)
    80000be4:	040a                	slli	s0,s0,0x2
    80000be6:	050a                	slli	a0,a0,0x2
    80000be8:	004c                	addi	a1,sp,4
    80000bea:	942e                	add	s0,s0,a1
    80000bec:	848a                	mv	s1,sp
    80000bee:	94aa                	add	s1,s1,a0
    80000bf0:	a809                	j	80000c02 <vprintfmt+0x1dc>
    80000bf2:	03000593          	li	a1,48
    putch(digs[pos] + (digs[pos] >= 10 ? 'a' - 10 : '0'), putdat);
    80000bf6:	9d2d                	addw	a0,a0,a1
    80000bf8:	85e6                	mv	a1,s9
    80000bfa:	9902                	jalr	s2
  while (pos-- > 0)
    80000bfc:	1471                	addi	s0,s0,-4
    80000bfe:	e4940ae3          	beq	s0,s1,80000a52 <vprintfmt+0x2c>
    putch(digs[pos] + (digs[pos] >= 10 ? 'a' - 10 : '0'), putdat);
    80000c02:	4008                	lw	a0,0(s0)
    80000c04:	feaaf7e3          	bgeu	s5,a0,80000bf2 <vprintfmt+0x1cc>
    80000c08:	05700593          	li	a1,87
    80000c0c:	b7ed                	j	80000bf6 <vprintfmt+0x1d0>
      putch(ch, putdat);
    80000c0e:	02500513          	li	a0,37
    80000c12:	85e6                	mv	a1,s9
    80000c14:	9902                	jalr	s2
    80000c16:	6a02                	ld	s4,0(sp)
      break;
    80000c18:	bd2d                	j	80000a52 <vprintfmt+0x2c>
  if (lflag >= 2)
    80000c1a:	4589                	li	a1,2
    80000c1c:	00b55363          	bge	a0,a1,80000c22 <vprintfmt+0x1fc>
  else if (lflag)
    80000c20:	c159                	beqz	a0,80000ca6 <vprintfmt+0x280>
    80000c22:	6482                	ld	s1,0(sp)
    80000c24:	8da6                	mv	s11,s1
    80000c26:	6084                	ld	s1,0(s1)
    80000c28:	49a9                	li	s3,10
      if ((long long) num < 0) {
    80000c2a:	f604dfe3          	bgez	s1,80000ba8 <vprintfmt+0x182>
        putch('-', putdat);
    80000c2e:	02d00513          	li	a0,45
    80000c32:	85e6                	mv	a1,s9
    80000c34:	9902                	jalr	s2
        num = -(long long) num;
    80000c36:	409004b3          	neg	s1,s1
      }
    80000c3a:	b7bd                	j	80000ba8 <vprintfmt+0x182>
      putch('%', putdat);
    80000c3c:	02500513          	li	a0,37
    80000c40:	85e6                	mv	a1,s9
    80000c42:	9902                	jalr	s2
    80000c44:	8b4e                	mv	s6,s3
    80000c46:	6a02                	ld	s4,0(sp)
      break;
    80000c48:	b529                	j	80000a52 <vprintfmt+0x2c>
    80000c4a:	6482                	ld	s1,0(sp)
    80000c4c:	8da6                	mv	s11,s1
    return va_arg(*ap, unsigned int);
    80000c4e:	0004e483          	lwu	s1,0(s1)
    80000c52:	bf99                	j	80000ba8 <vprintfmt+0x182>
    80000c54:	845e                	mv	s0,s7
      for (; (ch = *p) != '\0' && (precision < 0 || --precision >= 0); width--) {
    80000c56:	0009c503          	lbu	a0,0(s3)
    80000c5a:	c905                	beqz	a0,80000c8a <vprintfmt+0x264>
    80000c5c:	0985                	addi	s3,s3,1
    80000c5e:	4485                	li	s1,1
    80000c60:	6a02                	ld	s4,0(sp)
    80000c62:	a811                	j	80000c76 <vprintfmt+0x250>
    80000c64:	0ff57513          	zext.b	a0,a0
        putch(ch, putdat);
    80000c68:	85e6                	mv	a1,s9
    80000c6a:	9902                	jalr	s2
      for (; (ch = *p) != '\0' && (precision < 0 || --precision >= 0); width--) {
    80000c6c:	0009c503          	lbu	a0,0(s3)
    80000c70:	347d                	addiw	s0,s0,-1
    80000c72:	0985                	addi	s3,s3,1
    80000c74:	cd09                	beqz	a0,80000c8e <vprintfmt+0x268>
    80000c76:	fe0dc7e3          	bltz	s11,80000c64 <vprintfmt+0x23e>
    80000c7a:	000d8a63          	beqz	s11,80000c8e <vprintfmt+0x268>
    80000c7e:	3dfd                	addiw	s11,s11,-1
    80000c80:	b7d5                	j	80000c64 <vprintfmt+0x23e>
    80000c82:	845e                	mv	s0,s7
    80000c84:	0009c503          	lbu	a0,0(s3)
    80000c88:	f971                	bnez	a0,80000c5c <vprintfmt+0x236>
    80000c8a:	4485                	li	s1,1
    80000c8c:	6a02                	ld	s4,0(sp)
    80000c8e:	0a21                	addi	s4,s4,8
      for (; width > 0; width--)
    80000c90:	dc8051e3          	blez	s0,80000a52 <vprintfmt+0x2c>
    80000c94:	0405                	addi	s0,s0,1
        putch(' ', putdat);
    80000c96:	02000513          	li	a0,32
    80000c9a:	85e6                	mv	a1,s9
    80000c9c:	9902                	jalr	s2
      for (; width > 0; width--)
    80000c9e:	347d                	addiw	s0,s0,-1
    80000ca0:	fe84cbe3          	blt	s1,s0,80000c96 <vprintfmt+0x270>
    80000ca4:	b37d                	j	80000a52 <vprintfmt+0x2c>
    80000ca6:	6482                	ld	s1,0(sp)
    80000ca8:	8da6                	mv	s11,s1
    return va_arg(*ap, int);
    80000caa:	4084                	lw	s1,0(s1)
    80000cac:	49a9                	li	s3,10
      if ((long long) num < 0) {
    80000cae:	ee04dde3          	bgez	s1,80000ba8 <vprintfmt+0x182>
    80000cb2:	bfb5                	j	80000c2e <vprintfmt+0x208>
}
    80000cb4:	70b6                	ld	ra,360(sp)
    80000cb6:	7416                	ld	s0,352(sp)
    80000cb8:	64f6                	ld	s1,344(sp)
    80000cba:	6956                	ld	s2,336(sp)
    80000cbc:	69b6                	ld	s3,328(sp)
    80000cbe:	6a16                	ld	s4,320(sp)
    80000cc0:	7af2                	ld	s5,312(sp)
    80000cc2:	7b52                	ld	s6,304(sp)
    80000cc4:	7bb2                	ld	s7,296(sp)
    80000cc6:	7c12                	ld	s8,288(sp)
    80000cc8:	6cf2                	ld	s9,280(sp)
    80000cca:	6d52                	ld	s10,272(sp)
    80000ccc:	6db2                	ld	s11,264(sp)
    80000cce:	6175                	addi	sp,sp,368
    80000cd0:	8082                	ret

0000000080000cd2 <sprintf_putch>:
  **pstr = ch;
    80000cd2:	6190                	ld	a2,0(a1)
    80000cd4:	00a60023          	sb	a0,0(a2)
  (*pstr)++;
    80000cd8:	6188                	ld	a0,0(a1)
    80000cda:	0505                	addi	a0,a0,1
    80000cdc:	e188                	sd	a0,0(a1)
}
    80000cde:	8082                	ret

0000000080000ce0 <sprintf>:
{
    80000ce0:	7125                	addi	sp,sp,-416
    80000ce2:	f6a2                	sd	s0,360(sp)
    80000ce4:	f2a6                	sd	s1,352(sp)
    80000ce6:	eeca                	sd	s2,344(sp)
    80000ce8:	eace                	sd	s3,336(sp)
    80000cea:	e6d2                	sd	s4,328(sp)
    80000cec:	e2d6                	sd	s5,320(sp)
    80000cee:	fe5a                	sd	s6,312(sp)
    80000cf0:	fa5e                	sd	s7,304(sp)
    80000cf2:	f662                	sd	s8,296(sp)
    80000cf4:	f266                	sd	s9,288(sp)
    80000cf6:	ee6a                	sd	s10,280(sp)
    80000cf8:	ea6e                	sd	s11,272(sp)
    80000cfa:	eb42                	sd	a6,400(sp)
    80000cfc:	ef46                	sd	a7,408(sp)
    80000cfe:	fab2                	sd	a2,368(sp)
    80000d00:	feb6                	sd	a3,376(sp)
    80000d02:	e33a                	sd	a4,384(sp)
    80000d04:	e73e                	sd	a5,392(sp)
    80000d06:	17010e93          	addi	t4,sp,368
  while (1) {
    80000d0a:	40a002b3          	neg	t0,a0
    80000d0e:	01410813          	addi	a6,sp,20
    80000d12:	00c10893          	addi	a7,sp,12
    80000d16:	02500b93          	li	s7,37
    80000d1a:	05500313          	li	t1,85
    80000d1e:	5ad9                	li	s5,-10
    80000d20:	4389                	li	t2,2
    80000d22:	02d00e13          	li	t3,45
    80000d26:	49a5                	li	s3,9
    80000d28:	03000f13          	li	t5,48
    80000d2c:	07800f93          	li	t6,120
  va_start(ap, fmt);
    80000d30:	e476                	sd	t4,8(sp)
    80000d32:	02000913          	li	s2,32
    80000d36:	4d81                	li	s11,0
    while ((ch = *(unsigned char *) fmt) != '%') {
    80000d38:	00a2863b          	addw	a2,t0,a0
    80000d3c:	00158693          	addi	a3,a1,1
    80000d40:	84aa                	mv	s1,a0
    80000d42:	fff6c583          	lbu	a1,-1(a3)
    80000d46:	24058963          	beqz	a1,80000f98 <sprintf+0x2b8>
    80000d4a:	01758c63          	beq	a1,s7,80000d62 <sprintf+0x82>
  **pstr = ch;
    80000d4e:	00b48023          	sb	a1,0(s1)
  (*pstr)++;
    80000d52:	0485                	addi	s1,s1,1
    while ((ch = *(unsigned char *) fmt) != '%') {
    80000d54:	2605                	addiw	a2,a2,1
    80000d56:	0685                	addi	a3,a3,1
    80000d58:	0d85                	addi	s11,s11,1
    80000d5a:	fff6c583          	lbu	a1,-1(a3)
    80000d5e:	f5f5                	bnez	a1,80000d4a <sprintf+0x6a>
    80000d60:	ac25                	j	80000f98 <sprintf+0x2b8>
    80000d62:	4b01                	li	s6,0
    80000d64:	02000c13          	li	s8,32
    80000d68:	5cfd                	li	s9,-1
    80000d6a:	85b6                	mv	a1,a3
    80000d6c:	5a7d                	li	s4,-1
    80000d6e:	01902633          	sgtz	a2,s9
    80000d72:	40c0063b          	negw	a2,a2
    80000d76:	01967d33          	and	s10,a2,s9
    80000d7a:	862e                	mv	a2,a1
    switch (ch = *(unsigned char *) fmt++) {
    80000d7c:	0005c403          	lbu	s0,0(a1)
    80000d80:	fdd40593          	addi	a1,s0,-35
    80000d84:	1cb36763          	bltu	t1,a1,80000f52 <sprintf+0x272>
    80000d88:	058e                	slli	a1,a1,0x3
    80000d8a:	00001797          	auipc	a5,0x1
    80000d8e:	8de78793          	addi	a5,a5,-1826 # 80001668 <softmax_stable_rvv_fp32.coeff_bits+0x2d8>
    80000d92:	95be                	add	a1,a1,a5
    80000d94:	619c                	ld	a5,0(a1)
    80000d96:	00160593          	addi	a1,a2,1
    80000d9a:	8782                	jr	a5
    80000d9c:	8c22                	mv	s8,s0
    80000d9e:	bff1                	j	80000d7a <sprintf+0x9a>
    80000da0:	8cea                	mv	s9,s10
    80000da2:	bfe1                	j	80000d7a <sprintf+0x9a>
    80000da4:	4781                	li	a5,0
        precision = precision * 10 + ch - '0';
    80000da6:	00179593          	slli	a1,a5,0x1
    80000daa:	078e                	slli	a5,a5,0x3
    80000dac:	95be                	add	a1,a1,a5
    80000dae:	95a2                	add	a1,a1,s0
        ch = *fmt;
    80000db0:	00164403          	lbu	s0,1(a2)
    80000db4:	0605                	addi	a2,a2,1
        if (ch < '0' || ch > '9')
    80000db6:	fc640713          	addi	a4,s0,-58
        precision = precision * 10 + ch - '0';
    80000dba:	fd05879b          	addiw	a5,a1,-48
        if (ch < '0' || ch > '9')
    80000dbe:	ff5774e3          	bgeu	a4,s5,80000da6 <sprintf+0xc6>
    80000dc2:	85b2                	mv	a1,a2
    80000dc4:	863e                	mv	a2,a5
      if (width < 0)
    80000dc6:	000cc363          	bltz	s9,80000dcc <sprintf+0xec>
    80000dca:	8666                	mv	a2,s9
    80000dcc:	43fcd713          	srai	a4,s9,0x3f
    80000dd0:	00f76a33          	or	s4,a4,a5
    80000dd4:	8cb2                	mv	s9,a2
    80000dd6:	bf61                	j	80000d6e <sprintf+0x8e>
      precision = va_arg(ap, int);
    80000dd8:	000ea783          	lw	a5,0(t4)
    80000ddc:	0ea1                	addi	t4,t4,8
    80000dde:	863e                	mv	a2,a5
      if (width < 0)
    80000de0:	fe0cd5e3          	bgez	s9,80000dca <sprintf+0xea>
    80000de4:	b7e5                	j	80000dcc <sprintf+0xec>
      lflag++;
    80000de6:	2b05                	addiw	s6,s6,1
      goto reswitch;
    80000de8:	b759                	j	80000d6e <sprintf+0x8e>
    80000dea:	4521                	li	a0,8
  if (lflag >= 2)
    80000dec:	027b5663          	bge	s6,t2,80000e18 <sprintf+0x138>
    80000df0:	a015                	j	80000e14 <sprintf+0x134>
    80000df2:	4541                	li	a0,16
    80000df4:	027b5263          	bge	s6,t2,80000e18 <sprintf+0x138>
    80000df8:	a831                	j	80000e14 <sprintf+0x134>
  **pstr = ch;
    80000dfa:	01e48023          	sb	t5,0(s1)
    80000dfe:	01f480a3          	sb	t6,1(s1)
  (*pstr)++;
    80000e02:	0489                	addi	s1,s1,2
    80000e04:	4b05                	li	s6,1
    80000e06:	4541                	li	a0,16
  if (lflag >= 2)
    80000e08:	007b4663          	blt	s6,t2,80000e14 <sprintf+0x134>
    80000e0c:	a031                	j	80000e18 <sprintf+0x138>
    80000e0e:	4529                	li	a0,10
    80000e10:	007b5463          	bge	s6,t2,80000e18 <sprintf+0x138>
  else if (lflag)
    80000e14:	140b0563          	beqz	s6,80000f5e <sprintf+0x27e>
    80000e18:	000eb683          	ld	a3,0(t4)
    digs[pos++] = num % base;
    80000e1c:	02a6f633          	remu	a2,a3,a0
    80000e20:	c832                	sw	a2,16(sp)
    80000e22:	4705                	li	a4,1
    80000e24:	00a6ec63          	bltu	a3,a0,80000e3c <sprintf+0x15c>
    80000e28:	8642                	mv	a2,a6
    num /= base;
    80000e2a:	02a6d6b3          	divu	a3,a3,a0
    digs[pos++] = num % base;
    80000e2e:	02a6f7b3          	remu	a5,a3,a0
    80000e32:	c21c                	sw	a5,0(a2)
    if (num < base)
    80000e34:	0611                	addi	a2,a2,4
    80000e36:	2705                	addiw	a4,a4,1
    80000e38:	fea6f9e3          	bgeu	a3,a0,80000e2a <sprintf+0x14a>
    80000e3c:	01975e63          	bge	a4,s9,80000e58 <sprintf+0x178>
  while (width-- > pos)
    80000e40:	fff74513          	not	a0,a4
    80000e44:	9566                	add	a0,a0,s9
    80000e46:	1502                	slli	a0,a0,0x20
    80000e48:	9101                	srli	a0,a0,0x20
    80000e4a:	9526                	add	a0,a0,s1
    80000e4c:	0505                	addi	a0,a0,1
  **pstr = ch;
    80000e4e:	01848023          	sb	s8,0(s1)
  (*pstr)++;
    80000e52:	0485                	addi	s1,s1,1
    80000e54:	fea49de3          	bne	s1,a0,80000e4e <sprintf+0x16e>
    80000e58:	853a                	mv	a0,a4
    80000e5a:	00e05363          	blez	a4,80000e60 <sprintf+0x180>
    80000e5e:	4505                	li	a0,1
    80000e60:	0ea1                	addi	t4,t4,8
  while (pos-- > 0)
    80000e62:	00271613          	slli	a2,a4,0x2
    80000e66:	8f09                	sub	a4,a4,a0
    80000e68:	00c88533          	add	a0,a7,a2
    80000e6c:	00e48633          	add	a2,s1,a4
    80000e70:	0605                	addi	a2,a2,1
    80000e72:	a811                	j	80000e86 <sprintf+0x1a6>
    80000e74:	03000713          	li	a4,48
    putch(digs[pos] + (digs[pos] >= 10 ? 'a' - 10 : '0'), putdat);
    80000e78:	96ba                	add	a3,a3,a4
  **pstr = ch;
    80000e7a:	00d48023          	sb	a3,0(s1)
  (*pstr)++;
    80000e7e:	0485                	addi	s1,s1,1
  while (pos-- > 0)
    80000e80:	1571                	addi	a0,a0,-4
    80000e82:	00c48863          	beq	s1,a2,80000e92 <sprintf+0x1b2>
    putch(digs[pos] + (digs[pos] >= 10 ? 'a' - 10 : '0'), putdat);
    80000e86:	4114                	lw	a3,0(a0)
    80000e88:	fed9f6e3          	bgeu	s3,a3,80000e74 <sprintf+0x194>
    80000e8c:	05700713          	li	a4,87
    80000e90:	b7e5                	j	80000e78 <sprintf+0x198>
    80000e92:	8526                	mv	a0,s1
      break;
    80000e94:	b54d                	j	80000d36 <sprintf+0x56>
      putch(va_arg(ap, int), putdat);
    80000e96:	000ec503          	lbu	a0,0(t4)
    80000e9a:	0ea1                	addi	t4,t4,8
  **pstr = ch;
    80000e9c:	00a48023          	sb	a0,0(s1)
  (*pstr)++;
    80000ea0:	00148513          	addi	a0,s1,1
      break;
    80000ea4:	bd49                	j	80000d36 <sprintf+0x56>
      if ((p = va_arg(ap, char *)) == NULL)
    80000ea6:	000eb683          	ld	a3,0(t4)
    80000eaa:	e689                	bnez	a3,80000eb4 <sprintf+0x1d4>
    80000eac:	00001697          	auipc	a3,0x1
    80000eb0:	a8468693          	addi	a3,a3,-1404 # 80001930 <softmax_stable_rvv_fp32.coeff_bits+0x5a0>
      if (width > 0 && padc != '-')
    80000eb4:	05905763          	blez	s9,80000f02 <sprintf+0x222>
    80000eb8:	05cc0563          	beq	s8,t3,80000f02 <sprintf+0x222>
    80000ebc:	8636                	mv	a2,a3
  while (n-- && *p)
    80000ebe:	000a0d63          	beqz	s4,80000ed8 <sprintf+0x1f8>
    80000ec2:	014687b3          	add	a5,a3,s4
    80000ec6:	8452                	mv	s0,s4
    80000ec8:	8636                	mv	a2,a3
    80000eca:	00064703          	lbu	a4,0(a2)
    80000ece:	c709                	beqz	a4,80000ed8 <sprintf+0x1f8>
    80000ed0:	147d                	addi	s0,s0,-1
    p++;
    80000ed2:	0605                	addi	a2,a2,1
  while (n-- && *p)
    80000ed4:	f87d                	bnez	s0,80000eca <sprintf+0x1ea>
    80000ed6:	863e                	mv	a2,a5
  return p - s;
    80000ed8:	40c68733          	sub	a4,a3,a2
        for (width -= strnlen(p, precision); width > 0; width--)
    80000edc:	00ec87bb          	addw	a5,s9,a4
    80000ee0:	08f05263          	blez	a5,80000f64 <sprintf+0x284>
    80000ee4:	956e                	add	a0,a0,s11
    80000ee6:	fff64613          	not	a2,a2
    80000eea:	9cb6                	add	s9,s9,a3
    80000eec:	9666                	add	a2,a2,s9
    80000eee:	1602                	slli	a2,a2,0x20
    80000ef0:	9201                	srli	a2,a2,0x20
    80000ef2:	9532                	add	a0,a0,a2
    80000ef4:	0505                	addi	a0,a0,1
  **pstr = ch;
    80000ef6:	01848023          	sb	s8,0(s1)
  (*pstr)++;
    80000efa:	0485                	addi	s1,s1,1
        for (width -= strnlen(p, precision); width > 0; width--)
    80000efc:	fea49de3          	bne	s1,a0,80000ef6 <sprintf+0x216>
    80000f00:	4c81                	li	s9,0
      for (; (ch = *p) != '\0' && (precision < 0 || --precision >= 0); width--) {
    80000f02:	0006c703          	lbu	a4,0(a3)
    80000f06:	c33d                	beqz	a4,80000f6c <sprintf+0x28c>
    80000f08:	0685                	addi	a3,a3,1
    80000f0a:	8526                	mv	a0,s1
    80000f0c:	a811                	j	80000f20 <sprintf+0x240>
    80000f0e:	3a7d                	addiw	s4,s4,-1
  **pstr = ch;
    80000f10:	00e50023          	sb	a4,0(a0)
      for (; (ch = *p) != '\0' && (precision < 0 || --precision >= 0); width--) {
    80000f14:	0006c703          	lbu	a4,0(a3)
  (*pstr)++;
    80000f18:	0505                	addi	a0,a0,1
      for (; (ch = *p) != '\0' && (precision < 0 || --precision >= 0); width--) {
    80000f1a:	3cfd                	addiw	s9,s9,-1
    80000f1c:	0685                	addi	a3,a3,1
    80000f1e:	cb21                	beqz	a4,80000f6e <sprintf+0x28e>
    80000f20:	fe0a48e3          	bltz	s4,80000f10 <sprintf+0x230>
    80000f24:	fe0a15e3          	bnez	s4,80000f0e <sprintf+0x22e>
    80000f28:	a099                	j	80000f6e <sprintf+0x28e>
  **pstr = ch;
    80000f2a:	01748023          	sb	s7,0(s1)
  (*pstr)++;
    80000f2e:	00148513          	addi	a0,s1,1
      break;
    80000f32:	b511                	j	80000d36 <sprintf+0x56>
  if (lflag >= 2)
    80000f34:	007b5463          	bge	s6,t2,80000f3c <sprintf+0x25c>
    80000f38:	040b0a63          	beqz	s6,80000f8c <sprintf+0x2ac>
    80000f3c:	000eb683          	ld	a3,0(t4)
    80000f40:	4529                	li	a0,10
      if ((long long) num < 0) {
    80000f42:	ec06dde3          	bgez	a3,80000e1c <sprintf+0x13c>
  **pstr = ch;
    80000f46:	01c48023          	sb	t3,0(s1)
  (*pstr)++;
    80000f4a:	0485                	addi	s1,s1,1
        num = -(long long) num;
    80000f4c:	40d006b3          	neg	a3,a3
    80000f50:	b5f1                	j	80000e1c <sprintf+0x13c>
  **pstr = ch;
    80000f52:	01748023          	sb	s7,0(s1)
  (*pstr)++;
    80000f56:	00148513          	addi	a0,s1,1
    80000f5a:	85b6                	mv	a1,a3
      break;
    80000f5c:	bbe9                	j	80000d36 <sprintf+0x56>
    return va_arg(*ap, unsigned int);
    80000f5e:	000ee683          	lwu	a3,0(t4)
    80000f62:	bd6d                	j	80000e1c <sprintf+0x13c>
    80000f64:	8cbe                	mv	s9,a5
      for (; (ch = *p) != '\0' && (precision < 0 || --precision >= 0); width--) {
    80000f66:	0006c703          	lbu	a4,0(a3)
    80000f6a:	ff59                	bnez	a4,80000f08 <sprintf+0x228>
    80000f6c:	8526                	mv	a0,s1
    80000f6e:	0ea1                	addi	t4,t4,8
      for (; width > 0; width--)
    80000f70:	dd9053e3          	blez	s9,80000d36 <sprintf+0x56>
    80000f74:	1cfd                	addi	s9,s9,-1
    80000f76:	1c82                	slli	s9,s9,0x20
    80000f78:	020cd613          	srli	a2,s9,0x20
    80000f7c:	962a                	add	a2,a2,a0
    80000f7e:	0605                	addi	a2,a2,1
  **pstr = ch;
    80000f80:	01250023          	sb	s2,0(a0)
  (*pstr)++;
    80000f84:	0505                	addi	a0,a0,1
      for (; width > 0; width--)
    80000f86:	fec51de3          	bne	a0,a2,80000f80 <sprintf+0x2a0>
    80000f8a:	b375                	j	80000d36 <sprintf+0x56>
    return va_arg(*ap, int);
    80000f8c:	000ea683          	lw	a3,0(t4)
    80000f90:	4529                	li	a0,10
      if ((long long) num < 0) {
    80000f92:	e806d5e3          	bgez	a3,80000e1c <sprintf+0x13c>
    80000f96:	bf45                	j	80000f46 <sprintf+0x266>
  *str = 0;
    80000f98:	00048023          	sb	zero,0(s1)
  return str - str0;
    80000f9c:	8532                	mv	a0,a2
    80000f9e:	7436                	ld	s0,360(sp)
    80000fa0:	7496                	ld	s1,352(sp)
    80000fa2:	6976                	ld	s2,344(sp)
    80000fa4:	69d6                	ld	s3,336(sp)
    80000fa6:	6a36                	ld	s4,328(sp)
    80000fa8:	6a96                	ld	s5,320(sp)
    80000faa:	7b72                	ld	s6,312(sp)
    80000fac:	7bd2                	ld	s7,304(sp)
    80000fae:	7c32                	ld	s8,296(sp)
    80000fb0:	7c92                	ld	s9,288(sp)
    80000fb2:	6d72                	ld	s10,280(sp)
    80000fb4:	6dd2                	ld	s11,272(sp)
    80000fb6:	611d                	addi	sp,sp,416
    80000fb8:	8082                	ret

0000000080000fba <memcpy>:
  if ((((uintptr_t)dest | (uintptr_t)src | len) & (sizeof(uintptr_t)-1)) == 0) {
    80000fba:	00a5e6b3          	or	a3,a1,a0
    80000fbe:	8ed1                	or	a3,a3,a2
    80000fc0:	0076f713          	andi	a4,a3,7
    80000fc4:	00c506b3          	add	a3,a0,a2
    80000fc8:	cf11                	beqz	a4,80000fe4 <memcpy+0x2a>
    while (d < (char*)(dest + len))
    80000fca:	c61d                	beqz	a2,80000ff8 <memcpy+0x3e>
    80000fcc:	862a                	mv	a2,a0
      *d++ = *s++;
    80000fce:	0005c703          	lbu	a4,0(a1)
    80000fd2:	0585                	addi	a1,a1,1
    80000fd4:	00160793          	addi	a5,a2,1
    80000fd8:	00e60023          	sb	a4,0(a2)
    80000fdc:	863e                	mv	a2,a5
    80000fde:	fed7e8e3          	bltu	a5,a3,80000fce <memcpy+0x14>
    80000fe2:	a819                	j	80000ff8 <memcpy+0x3e>
    while (d < (uintptr_t*)(dest + len))
    80000fe4:	ca11                	beqz	a2,80000ff8 <memcpy+0x3e>
    80000fe6:	862a                	mv	a2,a0
      *d++ = *s++;
    80000fe8:	6198                	ld	a4,0(a1)
    80000fea:	05a1                	addi	a1,a1,8
    80000fec:	00860793          	addi	a5,a2,8
    80000ff0:	e218                	sd	a4,0(a2)
    80000ff2:	863e                	mv	a2,a5
    while (d < (uintptr_t*)(dest + len))
    80000ff4:	fed7eae3          	bltu	a5,a3,80000fe8 <memcpy+0x2e>
  return dest;
    80000ff8:	8082                	ret

0000000080000ffa <memset>:
  if ((((uintptr_t)dest | len) & (sizeof(uintptr_t)-1)) == 0) {
    80000ffa:	00a666b3          	or	a3,a2,a0
    80000ffe:	8a9d                	andi	a3,a3,7
    80001000:	ce81                	beqz	a3,80001018 <memset+0x1e>
    while (d < (char*)(dest + len))
    80001002:	ce1d                	beqz	a2,80001040 <memset+0x46>
    80001004:	962a                	add	a2,a2,a0
    80001006:	86aa                	mv	a3,a0
      *d++ = byte;
    80001008:	00168713          	addi	a4,a3,1
    8000100c:	00b68023          	sb	a1,0(a3)
    80001010:	86ba                	mv	a3,a4
    80001012:	fec76be3          	bltu	a4,a2,80001008 <memset+0xe>
    80001016:	a02d                	j	80001040 <memset+0x46>
    while (d < (uintptr_t*)(dest + len))
    80001018:	c605                	beqz	a2,80001040 <memset+0x46>
    8000101a:	15e2                	slli	a1,a1,0x38
    8000101c:	101016b7          	lui	a3,0x10101
    80001020:	0692                	slli	a3,a3,0x4
    80001022:	10068693          	addi	a3,a3,256 # 10101100 <putchar.buflen+0x101010c0>
    80001026:	02d5b5b3          	mulhu	a1,a1,a3
    8000102a:	02059693          	slli	a3,a1,0x20
    8000102e:	8dd5                	or	a1,a1,a3
    80001030:	962a                	add	a2,a2,a0
    80001032:	86aa                	mv	a3,a0
      *d++ = word;
    80001034:	00868713          	addi	a4,a3,8
    80001038:	e28c                	sd	a1,0(a3)
    8000103a:	86ba                	mv	a3,a4
    while (d < (uintptr_t*)(dest + len))
    8000103c:	fec76ce3          	bltu	a4,a2,80001034 <memset+0x3a>
  return dest;
    80001040:	8082                	ret

0000000080001042 <strnlen>:
{
    80001042:	862a                	mv	a2,a0
  while (n-- && *p)
    80001044:	c999                	beqz	a1,8000105a <strnlen+0x18>
    80001046:	00b506b3          	add	a3,a0,a1
    8000104a:	862a                	mv	a2,a0
    8000104c:	00064703          	lbu	a4,0(a2)
    80001050:	c709                	beqz	a4,8000105a <strnlen+0x18>
    80001052:	15fd                	addi	a1,a1,-1
    p++;
    80001054:	0605                	addi	a2,a2,1
  while (n-- && *p)
    80001056:	f9fd                	bnez	a1,8000104c <strnlen+0xa>
    80001058:	8636                	mv	a2,a3
  return p - s;
    8000105a:	40a60533          	sub	a0,a2,a0
    8000105e:	8082                	ret

0000000080001060 <strcmp>:
int strcmp(const char* s1, const char* s2)
{
  unsigned char c1, c2;

  do {
    c1 = *s1++;
    80001060:	00054603          	lbu	a2,0(a0)
    c2 = *s2++;
    80001064:	0005c683          	lbu	a3,0(a1)
  } while (c1 != 0 && c1 == c2);
    80001068:	c609                	beqz	a2,80001072 <strcmp+0x12>
    8000106a:	0505                	addi	a0,a0,1
    8000106c:	0585                	addi	a1,a1,1
    8000106e:	fed609e3          	beq	a2,a3,80001060 <strcmp>

  return c1 - c2;
    80001072:	40d60533          	sub	a0,a2,a3
    80001076:	8082                	ret

0000000080001078 <strcpy>:
}

char* strcpy(char* dest, const char* src)
{
    80001078:	862a                	mv	a2,a0
  char* d = dest;
  while ((*d++ = *src++))
    8000107a:	0005c683          	lbu	a3,0(a1)
    8000107e:	0585                	addi	a1,a1,1
    80001080:	00160713          	addi	a4,a2,1
    80001084:	00d60023          	sb	a3,0(a2)
    80001088:	863a                	mv	a2,a4
    8000108a:	fae5                	bnez	a3,8000107a <strcpy+0x2>
    ;
  return dest;
    8000108c:	8082                	ret

000000008000108e <atol>:
}

long atol(const char* str)
{
    8000108e:	02000613          	li	a2,32
  long res = 0;
  int sign = 0;

  while (*str == ' ')
    80001092:	00054583          	lbu	a1,0(a0)
    80001096:	00c59763          	bne	a1,a2,800010a4 <atol+0x16>
    str++;
    8000109a:	0505                	addi	a0,a0,1
  while (*str == ' ')
    8000109c:	00054583          	lbu	a1,0(a0)
    800010a0:	fec58de3          	beq	a1,a2,8000109a <atol+0xc>
    800010a4:	02b00613          	li	a2,43
    800010a8:	00c58663          	beq	a1,a2,800010b4 <atol+0x26>
    800010ac:	02d00613          	li	a2,45
    800010b0:	02c59c63          	bne	a1,a2,800010e8 <atol+0x5a>

  if (*str == '-' || *str == '+') {
    sign = *str == '-';
    800010b4:	fd358593          	addi	a1,a1,-45
    800010b8:	00b03633          	snez	a2,a1
    str++;
    800010bc:	0505                	addi	a0,a0,1
  }

  while (*str) {
    800010be:	00054683          	lbu	a3,0(a0)
    800010c2:	c69d                	beqz	a3,800010f0 <atol+0x62>
    800010c4:	4581                	li	a1,0
    800010c6:	0505                	addi	a0,a0,1
    res *= 10;
    800010c8:	00159713          	slli	a4,a1,0x1
    800010cc:	058e                	slli	a1,a1,0x3
    800010ce:	95ba                	add	a1,a1,a4
    res += *str++ - '0';
    800010d0:	95b6                	add	a1,a1,a3
  while (*str) {
    800010d2:	00054683          	lbu	a3,0(a0)
    res += *str++ - '0';
    800010d6:	fd058593          	addi	a1,a1,-48
  while (*str) {
    800010da:	0505                	addi	a0,a0,1
    800010dc:	f6f5                	bnez	a3,800010c8 <atol+0x3a>
  }

  return sign ? -res : res;
    800010de:	e219                	bnez	a2,800010e4 <atol+0x56>
    800010e0:	40b005b3          	neg	a1,a1
    800010e4:	852e                	mv	a0,a1
    800010e6:	8082                	ret
    800010e8:	4605                	li	a2,1
  while (*str) {
    800010ea:	00054683          	lbu	a3,0(a0)
    800010ee:	faf9                	bnez	a3,800010c4 <atol+0x36>
    800010f0:	4581                	li	a1,0
  return sign ? -res : res;
    800010f2:	d67d                	beqz	a2,800010e0 <atol+0x52>
    800010f4:	bfc5                	j	800010e4 <atol+0x56>

00000000800010f6 <_close>:
// Provided by linker script
extern char _end;            // end of bss
static char *heap_end;       // current heap pointer

int _close(int fd) {
    (void)fd; return -1;     // no files
    800010f6:	557d                	li	a0,-1
    800010f8:	8082                	ret

00000000800010fa <_fstat>:
}

int _fstat(int fd, struct stat *st) {
    (void)fd; if (st) { st->st_mode = S_IFCHR; } return 0; // pretend char device
    800010fa:	c199                	beqz	a1,80001100 <_fstat+0x6>
    800010fc:	6509                	lui	a0,0x2
    800010fe:	c1c8                	sw	a0,4(a1)
    80001100:	4501                	li	a0,0
    80001102:	8082                	ret

0000000080001104 <_isatty>:
}

int _isatty(int fd) {
    (void)fd; return 1;      // yes, treat as tty
    80001104:	4505                	li	a0,1
    80001106:	8082                	ret

0000000080001108 <_lseek>:
}

off_t _lseek(int fd, off_t offset, int whence) {
    (void)fd; (void)offset; (void)whence; return 0; // not supported
    80001108:	4501                	li	a0,0
    8000110a:	8082                	ret

000000008000110c <_open>:
}

int _open(const char *path, int flags, int mode) {
    (void)path; (void)flags; (void)mode; return -1; // fail
    8000110c:	557d                	li	a0,-1
    8000110e:	8082                	ret

0000000080001110 <_read>:
}

int _read(int fd, void *buf, size_t cnt) {
    (void)fd; (void)buf; (void)cnt; return 0; // EOF
    80001110:	4501                	li	a0,0
    80001112:	8082                	ret

0000000080001114 <_sbrk>:
}

// Simple bump allocator. NOT thread-safe. No heap limit enforcement besides arbitrary max.
void* _sbrk(ptrdiff_t incr) {
    if (heap_end == 0) heap_end = &_end;
    80001114:	00001617          	auipc	a2,0x1
    80001118:	c3463583          	ld	a1,-972(a2) # 80001d48 <heap_end>
    8000111c:	e599                	bnez	a1,8000112a <_sbrk+0x16>
    8000111e:	0013f597          	auipc	a1,0x13f
    80001122:	ee258593          	addi	a1,a1,-286 # 80140000 <_end>
    80001126:	c2b63a23          	sd	a1,-972(a2)
    char *prev = heap_end;
    8000112a:	c3463583          	ld	a1,-972(a2)
    heap_end += incr;
    8000112e:	952e                	add	a0,a0,a1
    80001130:	c2a63a23          	sd	a0,-972(a2)
    return prev; // no out-of-memory check
    80001134:	852e                	mv	a0,a1
    80001136:	8082                	ret

0000000080001138 <_write>:
}

int _write(int fd, const void *buf, size_t cnt) {
    80001138:	7179                	addi	sp,sp,-48
    8000113a:	f406                	sd	ra,40(sp)
    8000113c:	f022                	sd	s0,32(sp)
    8000113e:	ec26                	sd	s1,24(sp)
    80001140:	e84a                	sd	s2,16(sp)
    80001142:	8932                	mv	s2,a2
    // Reuse existing proxy write (putchar based) if available.
    // We declare printstr here weakly to avoid circular deps.
    extern void printstr(const char*) __attribute__((weak));
    if (printstr) {
    80001144:	0013f517          	auipc	a0,0x13f
    80001148:	ec453503          	ld	a0,-316(a0) # 80140008 <_end+0x8>
    8000114c:	c50d                	beqz	a0,80001176 <_write+0x3e>
    8000114e:	02090463          	beqz	s2,80001176 <_write+0x3e>
    80001152:	84ae                	mv	s1,a1
        // crude: assume buf is text without NUL, allocate temp with NUL termination
        const char *c = (const char*)buf;
        for (size_t i=0;i<cnt;i++) {
    80001154:	01258433          	add	s0,a1,s2
            char tmp[2] = { c[i], 0 };
    80001158:	0004c503          	lbu	a0,0(s1)
    8000115c:	00a10723          	sb	a0,14(sp)
    80001160:	000107a3          	sb	zero,15(sp)
            printstr(tmp);
    80001164:	00e10513          	addi	a0,sp,14
    80001168:	fffff097          	auipc	ra,0xfffff
    8000116c:	5c6080e7          	jalr	1478(ra) # 8000072e <printstr>
        for (size_t i=0;i<cnt;i++) {
    80001170:	0485                	addi	s1,s1,1
    80001172:	fe8493e3          	bne	s1,s0,80001158 <_write+0x20>
        }
    }
    return (int)cnt;
    80001176:	0009051b          	sext.w	a0,s2
    8000117a:	70a2                	ld	ra,40(sp)
    8000117c:	7402                	ld	s0,32(sp)
    8000117e:	64e2                	ld	s1,24(sp)
    80001180:	6942                	ld	s2,16(sp)
    80001182:	6145                	addi	sp,sp,48
    80001184:	8082                	ret

0000000080001186 <__errno>:
}

// Optional errno (newlib may look for it)
int *__errno(void) {
    static int e; return &e;
    80001186:	00001517          	auipc	a0,0x1
    8000118a:	bca50513          	addi	a0,a0,-1078 # 80001d50 <__errno.e>
    8000118e:	8082                	ret
