
build/matmul-AB/test.elf:     file format elf64-littleriscv


Disassembly of section .text.init:

0000000080000000 <_start>:
#endif

  .section ".text.init"
  .globl _start
_start:
  li  x1, 0
    80000000:	4081                	li	ra,0
  li  x2, 0
    80000002:	4101                	li	sp,0
  li  x3, 0
    80000004:	4181                	li	gp,0
  li  x4, 0
    80000006:	4201                	li	tp,0
  li  x5, 0
    80000008:	4281                	li	t0,0
  li  x6, 0
    8000000a:	4301                	li	t1,0
  li  x7, 0
    8000000c:	4381                	li	t2,0
  li  x8, 0
    8000000e:	4401                	li	s0,0
  li  x9, 0
    80000010:	4481                	li	s1,0
  li  x10,0
    80000012:	4501                	li	a0,0
  li  x11,0
    80000014:	4581                	li	a1,0
  li  x12,0
    80000016:	4601                	li	a2,0
  li  x13,0
    80000018:	4681                	li	a3,0
  li  x14,0
    8000001a:	4701                	li	a4,0
  li  x15,0
    8000001c:	4781                	li	a5,0
  li  x16,0
    8000001e:	4801                	li	a6,0
  li  x17,0
    80000020:	4881                	li	a7,0
  li  x18,0
    80000022:	4901                	li	s2,0
  li  x19,0
    80000024:	4981                	li	s3,0
  li  x20,0
    80000026:	4a01                	li	s4,0
  li  x21,0
    80000028:	4a81                	li	s5,0
  li  x22,0
    8000002a:	4b01                	li	s6,0
  li  x23,0
    8000002c:	4b81                	li	s7,0
  li  x24,0
    8000002e:	4c01                	li	s8,0
  li  x25,0
    80000030:	4c81                	li	s9,0
  li  x26,0
    80000032:	4d01                	li	s10,0
  li  x27,0
    80000034:	4d81                	li	s11,0
  li  x28,0
    80000036:	4e01                	li	t3,0
  li  x29,0
    80000038:	4e81                	li	t4,0
  li  x30,0
    8000003a:	4f01                	li	t5,0
  li  x31,0
    8000003c:	4f81                	li	t6,0

  # enable FPU and accelerator if present
  li t0, MSTATUS_FS | MSTATUS_XS | MSTATUS_VS
    8000003e:	62f9                	lui	t0,0x1e
    80000040:	6002829b          	addiw	t0,t0,1536 # 1e600 <.Lline_table_start0+0x1cf6e>
  csrs mstatus, t0
    80000044:	3002a073          	csrs	mstatus,t0

  # make sure XLEN agrees with compilation choice
  li t0, 1
    80000048:	4285                	li	t0,1
  slli t0, t0, 31
    8000004a:	02fe                	slli	t0,t0,0x1f
#if __riscv_xlen == 64
  bgez t0, 1f
    8000004c:	0002d863          	bgez	t0,8000005c <.Lpcrel_hi0+0xa>
#else
  bltz t0, 1f
#endif
2:
  li a0, 1
    80000050:	4505                	li	a0,1

0000000080000052 <.Lpcrel_hi0>:
  sw a0, tohost, t0
    80000052:	00002297          	auipc	t0,0x2
    80000056:	bea2a723          	sw	a0,-1042(t0) # 80001c40 <_matB_end>
  j 2b
    8000005a:	bfdd                	j	80000050 <_start+0x50>
1:

#ifdef __riscv_flen
  # initialize FPU if we have one
  la t0, 1f
    8000005c:	00000297          	auipc	t0,0x0
    80000060:	09028293          	addi	t0,t0,144 # 800000ec <.Lpcrel_hi0+0x9a>
  csrw mtvec, t0
    80000064:	30529073          	csrw	mtvec,t0

  fssr    x0
    80000068:	00301073          	fscsr	zero
  fmv.s.x f0, x0
    8000006c:	f0000053          	fmv.w.x	ft0,zero
  fmv.s.x f1, x0
    80000070:	f00000d3          	fmv.w.x	ft1,zero
  fmv.s.x f2, x0
    80000074:	f0000153          	fmv.w.x	ft2,zero
  fmv.s.x f3, x0
    80000078:	f00001d3          	fmv.w.x	ft3,zero
  fmv.s.x f4, x0
    8000007c:	f0000253          	fmv.w.x	ft4,zero
  fmv.s.x f5, x0
    80000080:	f00002d3          	fmv.w.x	ft5,zero
  fmv.s.x f6, x0
    80000084:	f0000353          	fmv.w.x	ft6,zero
  fmv.s.x f7, x0
    80000088:	f00003d3          	fmv.w.x	ft7,zero
  fmv.s.x f8, x0
    8000008c:	f0000453          	fmv.w.x	fs0,zero
  fmv.s.x f9, x0
    80000090:	f00004d3          	fmv.w.x	fs1,zero
  fmv.s.x f10,x0
    80000094:	f0000553          	fmv.w.x	fa0,zero
  fmv.s.x f11,x0
    80000098:	f00005d3          	fmv.w.x	fa1,zero
  fmv.s.x f12,x0
    8000009c:	f0000653          	fmv.w.x	fa2,zero
  fmv.s.x f13,x0
    800000a0:	f00006d3          	fmv.w.x	fa3,zero
  fmv.s.x f14,x0
    800000a4:	f0000753          	fmv.w.x	fa4,zero
  fmv.s.x f15,x0
    800000a8:	f00007d3          	fmv.w.x	fa5,zero
  fmv.s.x f16,x0
    800000ac:	f0000853          	fmv.w.x	fa6,zero
  fmv.s.x f17,x0
    800000b0:	f00008d3          	fmv.w.x	fa7,zero
  fmv.s.x f18,x0
    800000b4:	f0000953          	fmv.w.x	fs2,zero
  fmv.s.x f19,x0
    800000b8:	f00009d3          	fmv.w.x	fs3,zero
  fmv.s.x f20,x0
    800000bc:	f0000a53          	fmv.w.x	fs4,zero
  fmv.s.x f21,x0
    800000c0:	f0000ad3          	fmv.w.x	fs5,zero
  fmv.s.x f22,x0
    800000c4:	f0000b53          	fmv.w.x	fs6,zero
  fmv.s.x f23,x0
    800000c8:	f0000bd3          	fmv.w.x	fs7,zero
  fmv.s.x f24,x0
    800000cc:	f0000c53          	fmv.w.x	fs8,zero
  fmv.s.x f25,x0
    800000d0:	f0000cd3          	fmv.w.x	fs9,zero
  fmv.s.x f26,x0
    800000d4:	f0000d53          	fmv.w.x	fs10,zero
  fmv.s.x f27,x0
    800000d8:	f0000dd3          	fmv.w.x	fs11,zero
  fmv.s.x f28,x0
    800000dc:	f0000e53          	fmv.w.x	ft8,zero
  fmv.s.x f29,x0
    800000e0:	f0000ed3          	fmv.w.x	ft9,zero
  fmv.s.x f30,x0
    800000e4:	f0000f53          	fmv.w.x	ft10,zero
  fmv.s.x f31,x0
    800000e8:	f0000fd3          	fmv.w.x	ft11,zero
1:
#endif

  # initialize trap vector
  la t0, trap_entry
    800000ec:	00000297          	auipc	t0,0x0
    800000f0:	03c28293          	addi	t0,t0,60 # 80000128 <trap_entry>
  csrw mtvec, t0
    800000f4:	30529073          	csrw	mtvec,t0

00000000800000f8 <.Lpcrel_hi3>:

  # initialize global pointer
.option push
.option norelax
  la gp, __global_pointer$
    800000f8:	00002197          	auipc	gp,0x2
    800000fc:	11718193          	addi	gp,gp,279 # 8000220f <__global_pointer$>

0000000080000100 <.Lpcrel_hi4>:
.option pop

  la  tp, _end + 63
    80000100:	00140217          	auipc	tp,0x140
    80000104:	f3f20213          	addi	tp,tp,-193 # 8014003f <_end+0x3f>
  and tp, tp, -64
    80000108:	fc027213          	andi	tp,tp,-64

  # get core id
  csrr a0, mhartid
    8000010c:	f1402573          	csrr	a0,mhartid
#ifndef CORENUMS
  # for now, assume only 1 core
  li a1, 1
    80000110:	4585                	li	a1,1
1:bgeu a0, a1, 1b
    80000112:	00b57063          	bgeu	a0,a1,80000112 <.Lpcrel_hi4+0x12>
#endif

  # give each core 128KB of stack + TLS
#define STKSHIFT 17
  add sp, a0, 1
    80000116:	00150113          	addi	sp,a0,1
  sll sp, sp, STKSHIFT
    8000011a:	0146                	slli	sp,sp,0x11
  add sp, sp, tp
    8000011c:	9112                	add	sp,sp,tp
  sll a2, a0, STKSHIFT
    8000011e:	01151613          	slli	a2,a0,0x11
  add tp, tp, a2
    80000122:	9232                	add	tp,tp,a2

  j _init
    80000124:	3920006f          	j	800004b6 <_init>

0000000080000128 <trap_entry>:

  .align 2
trap_entry:
  addi sp, sp, -272
    80000128:	716d                	addi	sp,sp,-272

  # goto trap handler if not exit ecall
  csrr t5, mcause
    8000012a:	34202f73          	csrr	t5,mcause
  li t6, CAUSE_MACHINE_ECALL
    8000012e:	4fad                	li	t6,11
  bne t5, t6, 2f
    80000130:	03ff1b63          	bne	t5,t6,80000166 <.Lpcrel_hi6+0x20>

  # skip flush signature cache lines if on spike
  csrr t2, marchid
    80000134:	f12023f3          	csrr	t2,marchid
  li t3, 5
    80000138:	4e15                	li	t3,5
  beq t2, t3, 3f
    8000013a:	03c38463          	beq	t2,t3,80000162 <.Lpcrel_hi6+0x1c>

000000008000013e <.Lpcrel_hi5>:

  # flush signature cache lines
  la t0, begin_signature
    8000013e:	00100297          	auipc	t0,0x100
    80000142:	ec228293          	addi	t0,t0,-318 # 80100000 <begin_signature>

0000000080000146 <.Lpcrel_hi6>:
  la t1, end_signature
    80000146:	00100317          	auipc	t1,0x100
    8000014a:	eba30313          	addi	t1,t1,-326 # 80100000 <begin_signature>
  addi t1, t1, 0x40
    8000014e:	04030313          	addi	t1,t1,64
  li t2, 0x2010000
    80000152:	020103b7          	lui	t2,0x2010
4:
  sd t0, 0x200(t2)
    80000156:	2053b023          	sd	t0,512(t2) # 2010200 <.Lline_table_start0+0x200eb6e>
  addi t0, t0, 64
    8000015a:	04028293          	addi	t0,t0,64
  blt t0, t1, 4b
    8000015e:	fe62cce3          	blt	t0,t1,80000156 <.Lpcrel_hi6+0x10>

  # exit simulation
3:
  j tohost_exit
    80000162:	2380006f          	j	8000039a <tohost_exit>

2:

  SREG x1, 1*REGBYTES(sp)
    80000166:	e406                	sd	ra,8(sp)
  SREG x2, 2*REGBYTES(sp)
    80000168:	e80a                	sd	sp,16(sp)
  SREG x3, 3*REGBYTES(sp)
    8000016a:	ec0e                	sd	gp,24(sp)
  SREG x4, 4*REGBYTES(sp)
    8000016c:	f012                	sd	tp,32(sp)
  SREG x5, 5*REGBYTES(sp)
    8000016e:	f416                	sd	t0,40(sp)
  SREG x6, 6*REGBYTES(sp)
    80000170:	f81a                	sd	t1,48(sp)
  SREG x7, 7*REGBYTES(sp)
    80000172:	fc1e                	sd	t2,56(sp)
  SREG x8, 8*REGBYTES(sp)
    80000174:	e0a2                	sd	s0,64(sp)
  SREG x9, 9*REGBYTES(sp)
    80000176:	e4a6                	sd	s1,72(sp)
  SREG x10, 10*REGBYTES(sp)
    80000178:	e8aa                	sd	a0,80(sp)
  SREG x11, 11*REGBYTES(sp)
    8000017a:	ecae                	sd	a1,88(sp)
  SREG x12, 12*REGBYTES(sp)
    8000017c:	f0b2                	sd	a2,96(sp)
  SREG x13, 13*REGBYTES(sp)
    8000017e:	f4b6                	sd	a3,104(sp)
  SREG x14, 14*REGBYTES(sp)
    80000180:	f8ba                	sd	a4,112(sp)
  SREG x15, 15*REGBYTES(sp)
    80000182:	fcbe                	sd	a5,120(sp)
  SREG x16, 16*REGBYTES(sp)
    80000184:	e142                	sd	a6,128(sp)
  SREG x17, 17*REGBYTES(sp)
    80000186:	e546                	sd	a7,136(sp)
  SREG x18, 18*REGBYTES(sp)
    80000188:	e94a                	sd	s2,144(sp)
  SREG x19, 19*REGBYTES(sp)
    8000018a:	ed4e                	sd	s3,152(sp)
  SREG x20, 20*REGBYTES(sp)
    8000018c:	f152                	sd	s4,160(sp)
  SREG x21, 21*REGBYTES(sp)
    8000018e:	f556                	sd	s5,168(sp)
  SREG x22, 22*REGBYTES(sp)
    80000190:	f95a                	sd	s6,176(sp)
  SREG x23, 23*REGBYTES(sp)
    80000192:	fd5e                	sd	s7,184(sp)
  SREG x24, 24*REGBYTES(sp)
    80000194:	e1e2                	sd	s8,192(sp)
  SREG x25, 25*REGBYTES(sp)
    80000196:	e5e6                	sd	s9,200(sp)
  SREG x26, 26*REGBYTES(sp)
    80000198:	e9ea                	sd	s10,208(sp)
  SREG x27, 27*REGBYTES(sp)
    8000019a:	edee                	sd	s11,216(sp)
  SREG x28, 28*REGBYTES(sp)
    8000019c:	f1f2                	sd	t3,224(sp)
  SREG x29, 29*REGBYTES(sp)
    8000019e:	f5f6                	sd	t4,232(sp)
  SREG x30, 30*REGBYTES(sp)
    800001a0:	f9fa                	sd	t5,240(sp)
  SREG x31, 31*REGBYTES(sp)
    800001a2:	fdfe                	sd	t6,248(sp)

  csrr a0, mcause
    800001a4:	34202573          	csrr	a0,mcause
  csrr a1, mepc
    800001a8:	341025f3          	csrr	a1,mepc
  mv a2, sp
    800001ac:	860a                	mv	a2,sp
  jal handle_trap
    800001ae:	1fe000ef          	jal	800003ac <handle_trap>
  csrw mepc, a0
    800001b2:	34151073          	csrw	mepc,a0

  # Remain in M-mode after eret
  li t0, MSTATUS_MPP
    800001b6:	6289                	lui	t0,0x2
    800001b8:	8002829b          	addiw	t0,t0,-2048 # 1800 <.Lline_table_start0+0x16e>
  csrs mstatus, t0
    800001bc:	3002a073          	csrs	mstatus,t0

  LREG x1, 1*REGBYTES(sp)
    800001c0:	60a2                	ld	ra,8(sp)
  LREG x2, 2*REGBYTES(sp)
    800001c2:	6142                	ld	sp,16(sp)
  LREG x3, 3*REGBYTES(sp)
    800001c4:	61e2                	ld	gp,24(sp)
  LREG x4, 4*REGBYTES(sp)
    800001c6:	7202                	ld	tp,32(sp)
  LREG x5, 5*REGBYTES(sp)
    800001c8:	72a2                	ld	t0,40(sp)
  LREG x6, 6*REGBYTES(sp)
    800001ca:	7342                	ld	t1,48(sp)
  LREG x7, 7*REGBYTES(sp)
    800001cc:	73e2                	ld	t2,56(sp)
  LREG x8, 8*REGBYTES(sp)
    800001ce:	6406                	ld	s0,64(sp)
  LREG x9, 9*REGBYTES(sp)
    800001d0:	64a6                	ld	s1,72(sp)
  LREG x10, 10*REGBYTES(sp)
    800001d2:	6546                	ld	a0,80(sp)
  LREG x11, 11*REGBYTES(sp)
    800001d4:	65e6                	ld	a1,88(sp)
  LREG x12, 12*REGBYTES(sp)
    800001d6:	7606                	ld	a2,96(sp)
  LREG x13, 13*REGBYTES(sp)
    800001d8:	76a6                	ld	a3,104(sp)
  LREG x14, 14*REGBYTES(sp)
    800001da:	7746                	ld	a4,112(sp)
  LREG x15, 15*REGBYTES(sp)
    800001dc:	77e6                	ld	a5,120(sp)
  LREG x16, 16*REGBYTES(sp)
    800001de:	680a                	ld	a6,128(sp)
  LREG x17, 17*REGBYTES(sp)
    800001e0:	68aa                	ld	a7,136(sp)
  LREG x18, 18*REGBYTES(sp)
    800001e2:	694a                	ld	s2,144(sp)
  LREG x19, 19*REGBYTES(sp)
    800001e4:	69ea                	ld	s3,152(sp)
  LREG x20, 20*REGBYTES(sp)
    800001e6:	7a0a                	ld	s4,160(sp)
  LREG x21, 21*REGBYTES(sp)
    800001e8:	7aaa                	ld	s5,168(sp)
  LREG x22, 22*REGBYTES(sp)
    800001ea:	7b4a                	ld	s6,176(sp)
  LREG x23, 23*REGBYTES(sp)
    800001ec:	7bea                	ld	s7,184(sp)
  LREG x24, 24*REGBYTES(sp)
    800001ee:	6c0e                	ld	s8,192(sp)
  LREG x25, 25*REGBYTES(sp)
    800001f0:	6cae                	ld	s9,200(sp)
  LREG x26, 26*REGBYTES(sp)
    800001f2:	6d4e                	ld	s10,208(sp)
  LREG x27, 27*REGBYTES(sp)
    800001f4:	6dee                	ld	s11,216(sp)
  LREG x28, 28*REGBYTES(sp)
    800001f6:	7e0e                	ld	t3,224(sp)
  LREG x29, 29*REGBYTES(sp)
    800001f8:	7eae                	ld	t4,232(sp)
  LREG x30, 30*REGBYTES(sp)
    800001fa:	7f4e                	ld	t5,240(sp)
  LREG x31, 31*REGBYTES(sp)
    800001fc:	7fee                	ld	t6,248(sp)

  addi sp, sp, 272
    800001fe:	6151                	addi	sp,sp,272
  mret
    80000200:	30200073          	mret

Disassembly of section .text:

0000000080000204 <main>:
                          int m, int n,int k) {
  return matmul_batch1(A, B, C, m, n, k);
}

int main()
{
    80000204:	7179                	addi	sp,sp,-48
    // 将 data.h 中的 A_i8/B_i8 拷贝到固定段 .matA/.matB；C 清零
    memcpy(A, A_i8, M * K * sizeof(int8_t));
    80000206:	f406                	sd	ra,40(sp)
    80000208:	f022                	sd	s0,32(sp)
    8000020a:	ec26                	sd	s1,24(sp)
    8000020c:	e84a                	sd	s2,16(sp)
    8000020e:	e44e                	sd	s3,8(sp)

0000000080000210 <.LBB0_13>:
    80000210:	00002917          	auipc	s2,0x2
    80000214:	83090913          	addi	s2,s2,-2000 # 80001a40 <A>

0000000080000218 <.LBB0_14>:
    80000218:	00001597          	auipc	a1,0x1
    8000021c:	c6858593          	addi	a1,a1,-920 # 80000e80 <A_i8>
    80000220:	10000613          	li	a2,256
    80000224:	854a                	mv	a0,s2
    80000226:	00001097          	auipc	ra,0x1
    8000022a:	a38080e7          	jalr	-1480(ra) # 80000c5e <memcpy>

000000008000022e <.LBB0_15>:
    memcpy(B, B_i8, K * N * sizeof(int8_t));
    8000022e:	00002497          	auipc	s1,0x2
    80000232:	91248493          	addi	s1,s1,-1774 # 80001b40 <B>

0000000080000236 <.LBB0_16>:
    80000236:	00001597          	auipc	a1,0x1
    8000023a:	d4a58593          	addi	a1,a1,-694 # 80000f80 <B_i8>
    8000023e:	10000613          	li	a2,256
    80000242:	8526                	mv	a0,s1
    80000244:	00001097          	auipc	ra,0x1
    80000248:	a1a080e7          	jalr	-1510(ra) # 80000c5e <memcpy>

000000008000024c <.LBB0_17>:
    memcpy(C, C_i32, M * N * sizeof(int32_t));
    8000024c:	00002997          	auipc	s3,0x2
    80000250:	a7498993          	addi	s3,s3,-1420 # 80001cc0 <C>

0000000080000254 <.LBB0_18>:
    80000254:	00001597          	auipc	a1,0x1
    80000258:	e2c58593          	addi	a1,a1,-468 # 80001080 <C_i32>
    8000025c:	40000613          	li	a2,1024
    80000260:	854e                	mv	a0,s3
    80000262:	00001097          	auipc	ra,0x1
    80000266:	9fc080e7          	jalr	-1540(ra) # 80000c5e <memcpy>
    8000026a:	4881                	li	a7,0
    8000026c:	45c1                	li	a1,16
    8000026e:	04000293          	li	t0,64
    80000272:	4701                	li	a4,0
    tile_m = msettilem(m - i);
    80000274:	4115853b          	subw	a0,a1,a7
    80000278:	04055877          	.insn	4, 0x04055877
    8000027c:	0048951b          	slliw	a0,a7,0x4
    80000280:	00251613          	slli	a2,a0,0x2
    80000284:	01360333          	add	t1,a2,s3
    80000288:	01250433          	add	s0,a0,s2
      tile_n = msettilen(n - j);
    8000028c:	40e5853b          	subw	a0,a1,a4
    80000290:	040543f7          	.insn	4, 0x040543f7
      mint32_t acc1 = mlc_m(C + i * n + j, ldc_bytes);
    80000294:	0007061b          	sext.w	a2,a4
    80000298:	00261513          	slli	a0,a2,0x2
    8000029c:	00a30e33          	add	t3,t1,a0
    800002a0:	005e2077          	.insn	4, 0x005e2077
    800002a4:	4781                	li	a5,0
        tile_k = msettilek(k - kk);
    800002a6:	40f586bb          	subw	a3,a1,a5
    800002aa:	0406e6f7          	.insn	4, 0x0406e6f7
        mint8_t tr0 = mla_m(A + i * k + kk, lda_bytes);
    800002ae:	0007851b          	sext.w	a0,a5
    800002b2:	9522                	add	a0,a0,s0
    800002b4:	04b50077          	.insn	4, 0x04b50077
        mint8_t tr1 = mlbt_m(B + kk * k + j, ldb_bytes); //按行取
    800002b8:	0047951b          	slliw	a0,a5,0x4
    800002bc:	9532                	add	a0,a0,a2
    800002be:	9526                	add	a0,a0,s1
    800002c0:	08b508f7          	.insn	4, 0x08b508f7
      for (int kk = 0; kk < k; kk += tile_k) {
    800002c4:	9fb5                	addw	a5,a5,a3
        acc1 = mqma_b_mm(acc1, tr0, tr1);
    800002c6:	28180877          	.insn	4, 0x28180877
    800002ca:	fcb7cee3          	blt	a5,a1,800002a6 <.LBB0_18+0x52>
    for (int j = 0; j < n; j += tile_n) {
    800002ce:	0077073b          	addw	a4,a4,t2
      msc_m(acc1, C + i * n + j, ldc_bytes);
    800002d2:	025e2077          	.insn	4, 0x025e2077
    for (int j = 0; j < n; j += tile_n) {
    800002d6:	fab74be3          	blt	a4,a1,8000028c <.LBB0_18+0x38>
  for (int i = 0; i < m; i += tile_m) {
    800002da:	010888bb          	addw	a7,a7,a6
    800002de:	f8b8cae3          	blt	a7,a1,80000272 <.LBB0_18+0x1e>
    800002e2:	4581                	li	a1,0
    800002e4:	3e700513          	li	a0,999
  for (unsigned i = 0; i < cycles; ++i) {
    800002e8:	0005861b          	sext.w	a2,a1
    800002ec:	2585                	addiw	a1,a1,1
    asm volatile("nop");
    800002ee:	0001                	nop
  for (unsigned i = 0; i < cycles; ++i) {
    800002f0:	fea66ce3          	bltu	a2,a0,800002e8 <.LBB0_18+0x94>
    800002f4:	4501                	li	a0,0
    800002f6:	45c1                	li	a1,16
    800002f8:	04000613          	li	a2,64
    800002fc:	4681                	li	a3,0
    tile_m = msettilem(m - i);
    800002fe:	40a5873b          	subw	a4,a1,a0
    80000302:	04075777          	.insn	4, 0x04075777
    80000306:	0045179b          	slliw	a5,a0,0x4
    8000030a:	078a                	slli	a5,a5,0x2
    8000030c:	97ce                	add	a5,a5,s3
      tile_n = msettilen(n - j);
    8000030e:	40d584bb          	subw	s1,a1,a3
    80000312:	0404c4f7          	.insn	4, 0x0404c4f7
      mint32_t acc1 = mlc_m(C + i * n + j, ldc_bytes);
    80000316:	0006841b          	sext.w	s0,a3
    8000031a:	040a                	slli	s0,s0,0x2
    8000031c:	943e                	add	s0,s0,a5
    8000031e:	00c42077          	.insn	4, 0x00c42077
    for (int j = 0; j < n; j += tile_n) {
    80000322:	9ea5                	addw	a3,a3,s1
      msc_m(acc1, C + i * n + j, ldc_bytes);
    80000324:	02c42077          	.insn	4, 0x02c42077
    80000328:	feb6c3e3          	blt	a3,a1,8000030e <.LBB0_18+0xba>
    for (int i = 0; i < m; i += tile_m) {
    8000032c:	9d39                	addw	a0,a0,a4
    8000032e:	fcb547e3          	blt	a0,a1,800002fc <.LBB0_18+0xa8>
    //     printf("Compare with D: PASS\n");
    // } else {
    //     printf("Compare with D: FAIL, total mismatches=%d\n", mismatch);
    // }

    return 0;
    80000332:	4501                	li	a0,0
    80000334:	69a2                	ld	s3,8(sp)
    80000336:	6942                	ld	s2,16(sp)
    80000338:	64e2                	ld	s1,24(sp)
    8000033a:	7402                	ld	s0,32(sp)
    8000033c:	70a2                	ld	ra,40(sp)
    8000033e:	6145                	addi	sp,sp,48
    80000340:	8082                	ret
	...

0000000080000344 <setStats>:
    uintptr_t csr = read_csr(name); \
    if (!enable) { csr -= counters[i]; counter_names[i] = #name; } \
    counters[i++] = csr; \
  } while (0)

  READ_CTR(mcycle);
    80000344:	b0002673          	csrr	a2,mcycle
    80000348:	00153593          	seqz	a1,a0

000000008000034c <.LBB0_5>:
    8000034c:	00002697          	auipc	a3,0x2
    80000350:	d7468693          	addi	a3,a3,-652 # 800020c0 <counters.0>
    80000354:	ed01                	bnez	a0,8000036c <.LBB0_7+0xa>
    80000356:	6288                	ld	a0,0(a3)
    80000358:	8e09                	sub	a2,a2,a0

000000008000035a <.LBB0_6>:
    8000035a:	00002517          	auipc	a0,0x2
    8000035e:	d8650513          	addi	a0,a0,-634 # 800020e0 <counter_names>

0000000080000362 <.LBB0_7>:
    80000362:	00001717          	auipc	a4,0x1
    80000366:	69f70713          	addi	a4,a4,1695 # 80001a01 <.LJTI15_0+0x2d1>
    8000036a:	e118                	sd	a4,0(a0)
    8000036c:	e290                	sd	a2,0(a3)
  READ_CTR(minstret);
    8000036e:	b0202573          	csrr	a0,minstret

0000000080000372 <.LBB0_8>:
    80000372:	00002617          	auipc	a2,0x2
    80000376:	d5660613          	addi	a2,a2,-682 # 800020c8 <counters.1>
    8000037a:	e199                	bnez	a1,80000380 <.LBB0_8+0xe>
    8000037c:	e208                	sd	a0,0(a2)

#undef READ_CTR
}
    8000037e:	8082                	ret
  READ_CTR(minstret);
    80000380:	620c                	ld	a1,0(a2)
    80000382:	8d0d                	sub	a0,a0,a1

0000000080000384 <.LBB0_9>:
    80000384:	00001597          	auipc	a1,0x1
    80000388:	67458593          	addi	a1,a1,1652 # 800019f8 <.LJTI15_0+0x2c8>

000000008000038c <.LBB0_10>:
    8000038c:	00002697          	auipc	a3,0x2
    80000390:	d5468693          	addi	a3,a3,-684 # 800020e0 <counter_names>
    80000394:	e68c                	sd	a1,8(a3)
    80000396:	e208                	sd	a0,0(a2)
}
    80000398:	8082                	ret

000000008000039a <tohost_exit>:
  } while(pos < end_signature);
}

void __attribute__((noreturn)) tohost_exit(uintptr_t code)
{
  tohost = (code << 1) | 1;
    8000039a:	0506                	slli	a0,a0,0x1
    8000039c:	00156513          	ori	a0,a0,1

00000000800003a0 <.LBB1_2>:
    800003a0:	00002597          	auipc	a1,0x2
    800003a4:	8a058593          	addi	a1,a1,-1888 # 80001c40 <_matB_end>
    800003a8:	e188                	sd	a0,0(a1)
  while (1);
    800003aa:	a001                	j	800003aa <.LBB1_2+0xa>

00000000800003ac <handle_trap>:
  tohost = (code << 1) | 1;
    800003ac:	00002517          	auipc	a0,0x2
    800003b0:	89450513          	addi	a0,a0,-1900 # 80001c40 <_matB_end>
    800003b4:	6585                	lui	a1,0x1
    800003b6:	a735859b          	addiw	a1,a1,-1421 # a73 <.Lline_table_start0+0x6cb>
    800003ba:	e10c                	sd	a1,0(a0)
  while (1);
    800003bc:	a001                	j	800003bc <handle_trap+0x10>

00000000800003be <exit>:
}

void exit(int code)
{
  //flush_signature_cachelines();
  asm("ecall");
    800003be:	00000073          	ecall
  tohost = (code << 1) | 1;
    800003c2:	0506                	slli	a0,a0,0x1
    800003c4:	00156513          	ori	a0,a0,1

00000000800003c8 <.LBB3_2>:
    800003c8:	00002597          	auipc	a1,0x2
    800003cc:	87858593          	addi	a1,a1,-1928 # 80001c40 <_matB_end>
    800003d0:	e188                	sd	a0,0(a1)
  while (1);
    800003d2:	a001                	j	800003d2 <.LBB3_2+0xa>

00000000800003d4 <abort>:
  asm("ecall");
    800003d4:	00000073          	ecall

00000000800003d8 <.LBB4_2>:
  tohost = (code << 1) | 1;
    800003d8:	00002517          	auipc	a0,0x2
    800003dc:	86850513          	addi	a0,a0,-1944 # 80001c40 <_matB_end>
    800003e0:	10d00593          	li	a1,269
    800003e4:	e10c                	sd	a1,0(a0)
  while (1);
    800003e6:	a001                	j	800003e6 <.LBB4_2+0xe>

00000000800003e8 <printstr>:
{
  exit(128 + SIGABRT);
}

void printstr(const char* s)
{
    800003e8:	7119                	addi	sp,sp,-128
    800003ea:	fc86                	sd	ra,120(sp)
    800003ec:	f8a2                	sd	s0,112(sp)
    800003ee:	0100                	addi	s0,sp,128
    800003f0:	fc017113          	andi	sp,sp,-64
    800003f4:	4581                	li	a1,0
}

size_t strlen(const char *s)
{
  const char *p = s;
  while (*p)
    800003f6:	00b50633          	add	a2,a0,a1
    800003fa:	00064603          	lbu	a2,0(a2)
    800003fe:	0585                	addi	a1,a1,1
    80000400:	fa7d                	bnez	a2,800003f6 <printstr+0xe>
  volatile uint64_t magic_mem[8] __attribute__((aligned(64)));
    80000402:	15fd                	addi	a1,a1,-1
    80000404:	04000613          	li	a2,64
  magic_mem[0] = which;
    80000408:	e032                	sd	a2,0(sp)
    8000040a:	4605                	li	a2,1
  magic_mem[1] = arg0;
    8000040c:	e432                	sd	a2,8(sp)
  magic_mem[2] = arg1;
    8000040e:	e82a                	sd	a0,16(sp)
  magic_mem[3] = arg2;
    80000410:	ec2e                	sd	a1,24(sp)
  __sync_synchronize();
    80000412:	0330000f          	fence	rw,rw

0000000080000416 <.LBB5_5>:
  tohost = (uintptr_t)magic_mem;
    80000416:	00002517          	auipc	a0,0x2
    8000041a:	82a50513          	addi	a0,a0,-2006 # 80001c40 <_matB_end>
    8000041e:	858a                	mv	a1,sp
    80000420:	e10c                	sd	a1,0(a0)

0000000080000422 <.LBB5_6>:
    80000422:	00002517          	auipc	a0,0x2
    80000426:	85e50513          	addi	a0,a0,-1954 # 80001c80 <fromhost>
  while (fromhost == 0)
    8000042a:	610c                	ld	a1,0(a0)
    8000042c:	ddfd                	beqz	a1,8000042a <.LBB5_6+0x8>
  fromhost = 0;
    8000042e:	00053023          	sd	zero,0(a0)
  __sync_synchronize();
    80000432:	0330000f          	fence	rw,rw
  return magic_mem[0];
    80000436:	6502                	ld	a0,0(sp)
}
    80000438:	f8040113          	addi	sp,s0,-128
    8000043c:	7446                	ld	s0,112(sp)
    8000043e:	70e6                	ld	ra,120(sp)
    80000440:	6109                	addi	sp,sp,128
    80000442:	8082                	ret

0000000080000444 <strlen>:
{
    80000444:	4581                	li	a1,0
  while (*p)
    80000446:	00b50633          	add	a2,a0,a1
    8000044a:	00064603          	lbu	a2,0(a2)
    8000044e:	0585                	addi	a1,a1,1
    80000450:	fa7d                	bnez	a2,80000446 <strlen+0x2>
    p++;
  return p - s;
    80000452:	fff58513          	addi	a0,a1,-1
    80000456:	8082                	ret

0000000080000458 <thread_entry>:
  while (cid != 0);
    80000458:	c111                	beqz	a0,8000045c <thread_entry+0x4>
    8000045a:	a001                	j	8000045a <thread_entry+0x2>
}
    8000045c:	8082                	ret
{
    8000045e:	7119                	addi	sp,sp,-128
    80000460:	fc86                	sd	ra,120(sp)
    80000462:	f8a2                	sd	s0,112(sp)
    80000464:	0100                	addi	s0,sp,128
    80000466:	fc017113          	andi	sp,sp,-64
    8000046a:	04000513          	li	a0,64
  magic_mem[0] = which;
    8000046e:	e02a                	sd	a0,0(sp)
    80000470:	4505                	li	a0,1
  magic_mem[1] = arg0;
    80000472:	e42a                	sd	a0,8(sp)

0000000080000474 <.LBB8_3>:
  magic_mem[2] = arg1;
    80000474:	00001517          	auipc	a0,0x1
    80000478:	56c50513          	addi	a0,a0,1388 # 800019e0 <.LJTI15_0+0x2b0>
    8000047c:	e82a                	sd	a0,16(sp)
    8000047e:	455d                	li	a0,23
  magic_mem[3] = arg2;
    80000480:	ec2a                	sd	a0,24(sp)
  __sync_synchronize();
    80000482:	0330000f          	fence	rw,rw

0000000080000486 <.LBB8_4>:
  tohost = (uintptr_t)magic_mem;
    80000486:	00001517          	auipc	a0,0x1
    8000048a:	7ba50513          	addi	a0,a0,1978 # 80001c40 <_matB_end>
    8000048e:	858a                	mv	a1,sp
    80000490:	e10c                	sd	a1,0(a0)

0000000080000492 <.LBB8_5>:
    80000492:	00001517          	auipc	a0,0x1
    80000496:	7ee50513          	addi	a0,a0,2030 # 80001c80 <fromhost>
  while (fromhost == 0)
    8000049a:	610c                	ld	a1,0(a0)
    8000049c:	ddfd                	beqz	a1,8000049a <.LBB8_5+0x8>
  fromhost = 0;
    8000049e:	00053023          	sd	zero,0(a0)
  __sync_synchronize();
    800004a2:	0330000f          	fence	rw,rw
  return magic_mem[0];
    800004a6:	6502                	ld	a0,0(sp)
  return -1;
    800004a8:	557d                	li	a0,-1
    800004aa:	f8040113          	addi	sp,s0,-128
    800004ae:	7446                	ld	s0,112(sp)
    800004b0:	70e6                	ld	ra,120(sp)
    800004b2:	6109                	addi	sp,sp,128
    800004b4:	8082                	ret

00000000800004b6 <_init>:
{
    800004b6:	1141                	addi	sp,sp,-16
  asm volatile("mv %0, tp" : "=r"(thread_pointer));
    800004b8:	e406                	sd	ra,8(sp)
    800004ba:	8292                	mv	t0,tp

00000000800004bc <.LBB9_14>:
  if ((((uintptr_t)dest | (uintptr_t)src | len) & (sizeof(uintptr_t)-1)) == 0) {
    800004bc:	00002797          	auipc	a5,0x2
    800004c0:	c3478793          	addi	a5,a5,-972 # 800020f0 <_tdata_begin>

00000000800004c4 <.LBB9_15>:
    800004c4:	00002817          	auipc	a6,0x2
    800004c8:	c2c80813          	addi	a6,a6,-980 # 800020f0 <_tdata_begin>
    800004cc:	40f80733          	sub	a4,a6,a5
    800004d0:	005766b3          	or	a3,a4,t0
    800004d4:	8edd                	or	a3,a3,a5
    800004d6:	0076f893          	andi	a7,a3,7
    800004da:	00e28333          	add	t1,t0,a4
    800004de:	02088063          	beqz	a7,800004fe <.LBB9_15+0x3a>
    while (d < (char*)(dest + len))
    800004e2:	0262fd63          	bgeu	t0,t1,8000051c <.LBB9_17>
    800004e6:	8696                	mv	a3,t0
      *d++ = *s++;
    800004e8:	00078603          	lb	a2,0(a5)
    800004ec:	0785                	addi	a5,a5,1
    800004ee:	00168893          	addi	a7,a3,1
    while (d < (char*)(dest + len))
    800004f2:	177d                	addi	a4,a4,-1
      *d++ = *s++;
    800004f4:	00c68023          	sb	a2,0(a3)
    800004f8:	86c6                	mv	a3,a7
    800004fa:	f77d                	bnez	a4,800004e8 <.LBB9_15+0x24>
    800004fc:	a005                	j	8000051c <.LBB9_17>
    while (d < (uintptr_t*)(dest + len))
    800004fe:	0062ff63          	bgeu	t0,t1,8000051c <.LBB9_17>

0000000080000502 <.LBB9_16>:
    80000502:	00002797          	auipc	a5,0x2
    80000506:	bee78793          	addi	a5,a5,-1042 # 800020f0 <_tdata_begin>
    8000050a:	8716                	mv	a4,t0
      *d++ = *s++;
    8000050c:	6390                	ld	a2,0(a5)
    8000050e:	07a1                	addi	a5,a5,8
    80000510:	00870693          	addi	a3,a4,8
    80000514:	e310                	sd	a2,0(a4)
    80000516:	8736                	mv	a4,a3
    while (d < (uintptr_t*)(dest + len))
    80000518:	fe66eae3          	bltu	a3,t1,8000050c <.LBB9_16+0xa>

000000008000051c <.LBB9_17>:
  memset(thread_pointer + tdata_size, 0, tbss_size);
    8000051c:	00002897          	auipc	a7,0x2
    80000520:	bd488893          	addi	a7,a7,-1068 # 800020f0 <_tdata_begin>
    80000524:	411806b3          	sub	a3,a6,a7
    80000528:	00d28733          	add	a4,t0,a3

000000008000052c <.LBB9_18>:
  if ((((uintptr_t)dest | len) & (sizeof(uintptr_t)-1)) == 0) {
    8000052c:	00002797          	auipc	a5,0x2
    80000530:	c1878793          	addi	a5,a5,-1000 # 80002144 <_tbss_end>
    80000534:	410786b3          	sub	a3,a5,a6
    80000538:	00d76633          	or	a2,a4,a3
    8000053c:	00767813          	andi	a6,a2,7
    80000540:	41178633          	sub	a2,a5,a7
    80000544:	9616                	add	a2,a2,t0
    80000546:	00080c63          	beqz	a6,8000055e <.LBB9_18+0x32>
    while (d < (char*)(dest + len))
    8000054a:	02c77363          	bgeu	a4,a2,80000570 <.LBB9_18+0x44>
      *d++ = byte;
    8000054e:	00170613          	addi	a2,a4,1
    while (d < (char*)(dest + len))
    80000552:	16fd                	addi	a3,a3,-1
      *d++ = byte;
    80000554:	00070023          	sb	zero,0(a4)
    80000558:	8732                	mv	a4,a2
    8000055a:	faf5                	bnez	a3,8000054e <.LBB9_18+0x22>
    8000055c:	a811                	j	80000570 <.LBB9_18+0x44>
    while (d < (uintptr_t*)(dest + len))
    8000055e:	00c77963          	bgeu	a4,a2,80000570 <.LBB9_18+0x44>
      *d++ = word;
    80000562:	00870693          	addi	a3,a4,8
    80000566:	00073023          	sd	zero,0(a4)
    8000056a:	8736                	mv	a4,a3
    while (d < (uintptr_t*)(dest + len))
    8000056c:	fec6ebe3          	bltu	a3,a2,80000562 <.LBB9_18+0x36>
  thread_entry(cid, nc);
    80000570:	00000097          	auipc	ra,0x0
    80000574:	ee8080e7          	jalr	-280(ra) # 80000458 <thread_entry>
  int ret = main(0, 0);
    80000578:	4501                	li	a0,0
    8000057a:	4581                	li	a1,0
    8000057c:	00000097          	auipc	ra,0x0
    80000580:	c88080e7          	jalr	-888(ra) # 80000204 <main>
  asm("ecall");
    80000584:	00000073          	ecall
  tohost = (code << 1) | 1;
    80000588:	0506                	slli	a0,a0,0x1
    8000058a:	00156513          	ori	a0,a0,1

000000008000058e <.LBB9_19>:
    8000058e:	00001597          	auipc	a1,0x1
    80000592:	6b258593          	addi	a1,a1,1714 # 80001c40 <_matB_end>
    80000596:	e188                	sd	a0,0(a1)
  while (1);
    80000598:	a001                	j	80000598 <.LBB9_19+0xa>

000000008000059a <putchar>:
{
    8000059a:	7119                	addi	sp,sp,-128
  buf[buflen++] = ch;
    8000059c:	fc86                	sd	ra,120(sp)
    8000059e:	f8a2                	sd	s0,112(sp)
    800005a0:	0100                	addi	s0,sp,128
    800005a2:	fc017113          	andi	sp,sp,-64
    800005a6:	000005b7          	lui	a1,0x0
    800005aa:	00458633          	add	a2,a1,tp
    800005ae:	04062683          	lw	a3,64(a2)
    800005b2:	0016859b          	addiw	a1,a3,1
    800005b6:	fc058713          	addi	a4,a1,-64 # ffffffffffffffc0 <_end+0xffffffff7febffc0>
    800005ba:	00173713          	seqz	a4,a4
    800005be:	04b62023          	sw	a1,64(a2)
  if (ch == '\n' || buflen == sizeof(buf))
    800005c2:	ff650613          	addi	a2,a0,-10
    800005c6:	00163613          	seqz	a2,a2
    800005ca:	8f51                	or	a4,a4,a2
  buf[buflen++] = ch;
    800005cc:	00000637          	lui	a2,0x0
    800005d0:	00460633          	add	a2,a2,tp
    800005d4:	00060613          	mv	a2,a2
    800005d8:	96b2                	add	a3,a3,a2
    800005da:	00a68023          	sb	a0,0(a3)
  if (ch == '\n' || buflen == sizeof(buf))
    800005de:	c329                	beqz	a4,80000620 <.LBB10_6+0x22>
    800005e0:	04000513          	li	a0,64
  magic_mem[0] = which;
    800005e4:	e02a                	sd	a0,0(sp)
    800005e6:	4505                	li	a0,1
  magic_mem[1] = arg0;
    800005e8:	e42a                	sd	a0,8(sp)
  magic_mem[2] = arg1;
    800005ea:	e832                	sd	a2,16(sp)
  magic_mem[3] = arg2;
    800005ec:	ec2e                	sd	a1,24(sp)
  __sync_synchronize();
    800005ee:	0330000f          	fence	rw,rw

00000000800005f2 <.LBB10_5>:
  tohost = (uintptr_t)magic_mem;
    800005f2:	00001517          	auipc	a0,0x1
    800005f6:	64e50513          	addi	a0,a0,1614 # 80001c40 <_matB_end>
    800005fa:	858a                	mv	a1,sp
    800005fc:	e10c                	sd	a1,0(a0)

00000000800005fe <.LBB10_6>:
    800005fe:	00001517          	auipc	a0,0x1
    80000602:	68250513          	addi	a0,a0,1666 # 80001c80 <fromhost>
  while (fromhost == 0)
    80000606:	610c                	ld	a1,0(a0)
    80000608:	ddfd                	beqz	a1,80000606 <.LBB10_6+0x8>
  fromhost = 0;
    8000060a:	00053023          	sd	zero,0(a0)
  __sync_synchronize();
    8000060e:	0330000f          	fence	rw,rw
  return magic_mem[0];
    80000612:	6502                	ld	a0,0(sp)
    buflen = 0;
    80000614:	00000537          	lui	a0,0x0
    80000618:	00450533          	add	a0,a0,tp
    8000061c:	04052023          	sw	zero,64(a0) # 40 <putchar.buflen>
  return 0;
    80000620:	4501                	li	a0,0
    80000622:	f8040113          	addi	sp,s0,-128
    80000626:	7446                	ld	s0,112(sp)
    80000628:	70e6                	ld	ra,120(sp)
    8000062a:	6109                	addi	sp,sp,128
    8000062c:	8082                	ret

000000008000062e <printhex>:
{
    8000062e:	7131                	addi	sp,sp,-192
    80000630:	fd06                	sd	ra,184(sp)
    80000632:	f922                	sd	s0,176(sp)
    80000634:	0180                	addi	s0,sp,192
    80000636:	fc017113          	andi	sp,sp,-64
    8000063a:	45bd                	li	a1,15
    8000063c:	4829                	li	a6,10
    8000063e:	02f10693          	addi	a3,sp,47
    80000642:	577d                	li	a4,-1
    80000644:	a811                	j	80000658 <printhex+0x2a>
    str[15-i] = (x & 0xF) + ((x & 0xF) < 10 ? '0' : 'a'-10);
    80000646:	9e3d                	addw	a2,a2,a5
    80000648:	00b687b3          	add	a5,a3,a1
    8000064c:	00c78023          	sb	a2,0(a5)
  for (i = 0; i < 16; i++)
    80000650:	15fd                	addi	a1,a1,-1
    x >>= 4;
    80000652:	8111                	srli	a0,a0,0x4
  for (i = 0; i < 16; i++)
    80000654:	00e58b63          	beq	a1,a4,8000066a <printhex+0x3c>
    str[15-i] = (x & 0xF) + ((x & 0xF) < 10 ? '0' : 'a'-10);
    80000658:	00f57793          	andi	a5,a0,15
    8000065c:	03000613          	li	a2,48
    80000660:	ff07e3e3          	bltu	a5,a6,80000646 <printhex+0x18>
    80000664:	05700613          	li	a2,87
    80000668:	bff9                	j	80000646 <printhex+0x18>
    8000066a:	4501                	li	a0,0
  str[16] = 0;
    8000066c:	02010fa3          	sb	zero,63(sp)
    80000670:	02f10593          	addi	a1,sp,47
  while (*p)
    80000674:	00a58633          	add	a2,a1,a0
    80000678:	00064603          	lbu	a2,0(a2) # 0 <putchar.buf>
    8000067c:	0505                	addi	a0,a0,1
    8000067e:	fa7d                	bnez	a2,80000674 <printhex+0x46>
  volatile uint64_t magic_mem[8] __attribute__((aligned(64)));
    80000680:	157d                	addi	a0,a0,-1
    80000682:	04000593          	li	a1,64
  magic_mem[0] = which;
    80000686:	e0ae                	sd	a1,64(sp)
    80000688:	4585                	li	a1,1
  magic_mem[1] = arg0;
    8000068a:	e4ae                	sd	a1,72(sp)
    8000068c:	02f10593          	addi	a1,sp,47
  magic_mem[2] = arg1;
    80000690:	e8ae                	sd	a1,80(sp)
  magic_mem[3] = arg2;
    80000692:	ecaa                	sd	a0,88(sp)
  __sync_synchronize();
    80000694:	0330000f          	fence	rw,rw

0000000080000698 <.LBB11_9>:
  tohost = (uintptr_t)magic_mem;
    80000698:	00001517          	auipc	a0,0x1
    8000069c:	5a850513          	addi	a0,a0,1448 # 80001c40 <_matB_end>
    800006a0:	008c                	addi	a1,sp,64
    800006a2:	e10c                	sd	a1,0(a0)

00000000800006a4 <.LBB11_10>:
    800006a4:	00001517          	auipc	a0,0x1
    800006a8:	5dc50513          	addi	a0,a0,1500 # 80001c80 <fromhost>
  while (fromhost == 0)
    800006ac:	610c                	ld	a1,0(a0)
    800006ae:	ddfd                	beqz	a1,800006ac <.LBB11_10+0x8>
  fromhost = 0;
    800006b0:	00053023          	sd	zero,0(a0)
  __sync_synchronize();
    800006b4:	0330000f          	fence	rw,rw
  return magic_mem[0];
    800006b8:	6506                	ld	a0,64(sp)
}
    800006ba:	f4040113          	addi	sp,s0,-192
    800006be:	744a                	ld	s0,176(sp)
    800006c0:	70ea                	ld	ra,184(sp)
    800006c2:	6129                	addi	sp,sp,192
    800006c4:	8082                	ret

00000000800006c6 <printf>:
{
    800006c6:	715d                	addi	sp,sp,-80
    800006c8:	e406                	sd	ra,8(sp)
    800006ca:	82aa                	mv	t0,a0
    800006cc:	e4c6                	sd	a7,72(sp)
    800006ce:	e0c2                	sd	a6,64(sp)
    800006d0:	fc3e                	sd	a5,56(sp)
    800006d2:	f83a                	sd	a4,48(sp)
    800006d4:	f436                	sd	a3,40(sp)
    800006d6:	f032                	sd	a2,32(sp)
    800006d8:	ec2e                	sd	a1,24(sp)
    800006da:	0828                	addi	a0,sp,24
  va_start(ap, fmt);
    800006dc:	e02a                	sd	a0,0(sp)

00000000800006de <.LBB12_1>:
  vprintfmt((void*)putchar, 0, fmt, ap);
    800006de:	00000517          	auipc	a0,0x0
    800006e2:	ebc50513          	addi	a0,a0,-324 # 8000059a <putchar>
    800006e6:	0834                	addi	a3,sp,24
    800006e8:	4581                	li	a1,0
    800006ea:	8616                	mv	a2,t0
    800006ec:	00000097          	auipc	ra,0x0
    800006f0:	010080e7          	jalr	16(ra) # 800006fc <vprintfmt>
  return 0; // incorrect return value, but who cares, anyway?
    800006f4:	4501                	li	a0,0
    800006f6:	60a2                	ld	ra,8(sp)
    800006f8:	6161                	addi	sp,sp,80
    800006fa:	8082                	ret

00000000800006fc <vprintfmt>:
{
    800006fc:	7149                	addi	sp,sp,-368
    800006fe:	f686                	sd	ra,360(sp)
    80000700:	f2a2                	sd	s0,352(sp)
    80000702:	eea6                	sd	s1,344(sp)
    80000704:	eaca                	sd	s2,336(sp)
    80000706:	e6ce                	sd	s3,328(sp)
    80000708:	e2d2                	sd	s4,320(sp)
    8000070a:	fe56                	sd	s5,312(sp)
    8000070c:	fa5a                	sd	s6,304(sp)
    8000070e:	f65e                	sd	s7,296(sp)
    80000710:	f262                	sd	s8,288(sp)
    80000712:	ee66                	sd	s9,280(sp)
    80000714:	ea6a                	sd	s10,272(sp)
    80000716:	e66e                	sd	s11,264(sp)
    80000718:	84b6                	mv	s1,a3
    8000071a:	89b2                	mv	s3,a2
    8000071c:	8aae                	mv	s5,a1
    8000071e:	8d2a                	mv	s10,a0
    80000720:	02500c13          	li	s8,37

0000000080000724 <.LBB13_63>:
    80000724:	00001517          	auipc	a0,0x1
    80000728:	d5c50513          	addi	a0,a0,-676 # 80001480 <.LJTI13_0>
    8000072c:	e02a                	sd	a0,0(sp)
    8000072e:	4da9                	li	s11,10
    80000730:	4b25                	li	s6,9
    80000732:	4b85                	li	s7,1
    while ((ch = *(unsigned char *) fmt) != '%') {
    80000734:	00198413          	addi	s0,s3,1
    80000738:	fff44503          	lbu	a0,-1(s0)
    8000073c:	01850b63          	beq	a0,s8,80000752 <.LBB13_63+0x2e>
    80000740:	24050463          	beqz	a0,80000988 <.LBB13_43+0xb8>
      putch(ch, putdat);
    80000744:	85d6                	mv	a1,s5
    80000746:	9d02                	jalr	s10
    while ((ch = *(unsigned char *) fmt) != '%') {
    80000748:	0405                	addi	s0,s0,1
    8000074a:	fff44503          	lbu	a0,-1(s0)
    8000074e:	ff8519e3          	bne	a0,s8,80000740 <.LBB13_63+0x1c>
    80000752:	8a26                	mv	s4,s1
    80000754:	4501                	li	a0,0
    80000756:	02000813          	li	a6,32
    8000075a:	5cfd                	li	s9,-1
    8000075c:	597d                	li	s2,-1
    8000075e:	89a2                	mv	s3,s0
    80000760:	05500793          	li	a5,85
    80000764:	6482                	ld	s1,0(sp)

0000000080000766 <.LBB13_5>:
    switch (ch = *(unsigned char *) fmt++) {
    80000766:	0009c583          	lbu	a1,0(s3)
    8000076a:	fdd58693          	addi	a3,a1,-35
    8000076e:	06d7e363          	bltu	a5,a3,800007d4 <.LBB13_16>
    80000772:	864e                	mv	a2,s3
    80000774:	068e                	slli	a3,a3,0x3
    80000776:	96a6                	add	a3,a3,s1
    80000778:	6294                	ld	a3,0(a3)
    8000077a:	0985                	addi	s3,s3,1
    8000077c:	8682                	jr	a3

000000008000077e <.LBB13_7>:
    8000077e:	4c81                	li	s9,0
    80000780:	0ff5f693          	zext.b	a3,a1
        ch = *fmt;
    80000784:	00164583          	lbu	a1,1(a2)
    80000788:	0605                	addi	a2,a2,1
        precision = precision * 10 + ch - '0';
    8000078a:	03bc873b          	mulw	a4,s9,s11
    8000078e:	9eb9                	addw	a3,a3,a4
        if (ch < '0' || ch > '9')
    80000790:	fd058713          	addi	a4,a1,-48
    80000794:	0ff77713          	zext.b	a4,a4
        precision = precision * 10 + ch - '0';
    80000798:	fd068c9b          	addiw	s9,a3,-48
        if (ch < '0' || ch > '9')
    8000079c:	feeb72e3          	bgeu	s6,a4,80000780 <.LBB13_7+0x2>
    800007a0:	89b2                	mv	s3,a2
      if (width < 0)
    800007a2:	0009059b          	sext.w	a1,s2
    800007a6:	fc05d0e3          	bgez	a1,80000766 <.LBB13_5>
    800007aa:	8966                	mv	s2,s9
    800007ac:	5cfd                	li	s9,-1
    800007ae:	bf65                	j	80000766 <.LBB13_5>

00000000800007b0 <.LBB13_11>:
    800007b0:	882e                	mv	a6,a1
    800007b2:	bf55                	j	80000766 <.LBB13_5>

00000000800007b4 <.LBB13_12>:
      precision = va_arg(ap, int);
    800007b4:	000a6c83          	lwu	s9,0(s4)
    800007b8:	0a21                	addi	s4,s4,8
      if (width < 0)
    800007ba:	0009059b          	sext.w	a1,s2
    800007be:	fa05d4e3          	bgez	a1,80000766 <.LBB13_5>
    800007c2:	b7e5                	j	800007aa <.LBB13_7+0x2c>

00000000800007c4 <.LBB13_13>:
      if (width < 0)
    800007c4:	0009059b          	sext.w	a1,s2
    800007c8:	f8b04fe3          	bgtz	a1,80000766 <.LBB13_5>
    800007cc:	4901                	li	s2,0
    800007ce:	bf61                	j	80000766 <.LBB13_5>

00000000800007d0 <.LBB13_15>:
      lflag++;
    800007d0:	2505                	addiw	a0,a0,1
    800007d2:	bf51                	j	80000766 <.LBB13_5>

00000000800007d4 <.LBB13_16>:
      putch('%', putdat);
    800007d4:	02500513          	li	a0,37
    800007d8:	85d6                	mv	a1,s5
    800007da:	9d02                	jalr	s10
    800007dc:	89a2                	mv	s3,s0
    800007de:	84d2                	mv	s1,s4
    800007e0:	bf91                	j	80000734 <.LBB13_63+0x10>

00000000800007e2 <.LBB13_17>:
      putch(ch, putdat);
    800007e2:	02500513          	li	a0,37
    800007e6:	85d6                	mv	a1,s5
    800007e8:	9d02                	jalr	s10
    800007ea:	84d2                	mv	s1,s4
    800007ec:	b7a1                	j	80000734 <.LBB13_63+0x10>

00000000800007ee <.LBB13_18>:
      putch(va_arg(ap, int), putdat);
    800007ee:	000a2503          	lw	a0,0(s4)
    800007f2:	008a0493          	addi	s1,s4,8
    800007f6:	85d6                	mv	a1,s5
    800007f8:	9d02                	jalr	s10
    800007fa:	bf2d                	j	80000734 <.LBB13_63+0x10>

00000000800007fc <.LBB13_19>:
  if (lflag >= 2)
    800007fc:	2501                	sext.w	a0,a0
    800007fe:	4589                	li	a1,2
    80000800:	00b55463          	bge	a0,a1,80000808 <.LBB13_19+0xc>
  else if (lflag)
    80000804:	16050b63          	beqz	a0,8000097a <.LBB13_43+0xaa>
    80000808:	8cd2                	mv	s9,s4
    8000080a:	000a3483          	ld	s1,0(s4)
    8000080e:	4429                	li	s0,10
      if ((long long) num < 0) {
    80000810:	0c04d963          	bgez	s1,800008e2 <.LBB13_43+0x12>
        putch('-', putdat);
    80000814:	02d00513          	li	a0,45
    80000818:	85d6                	mv	a1,s5
    8000081a:	8a42                	mv	s4,a6
    8000081c:	9d02                	jalr	s10
    8000081e:	8852                	mv	a6,s4
        num = -(long long) num;
    80000820:	409004b3          	neg	s1,s1
    80000824:	a87d                	j	800008e2 <.LBB13_43+0x12>

0000000080000826 <.LBB13_23>:
    80000826:	4421                	li	s0,8
    80000828:	a06d                	j	800008d2 <.LBB13_43+0x2>

000000008000082a <.LBB13_24>:
      putch('0', putdat);
    8000082a:	03000513          	li	a0,48
    8000082e:	85d6                	mv	a1,s5
    80000830:	8442                	mv	s0,a6
    80000832:	9d02                	jalr	s10
      putch('x', putdat);
    80000834:	07800513          	li	a0,120
    80000838:	85d6                	mv	a1,s5
    8000083a:	9d02                	jalr	s10
    8000083c:	8822                	mv	a6,s0
    8000083e:	4505                	li	a0,1

0000000080000840 <.LBB13_25>:
    80000840:	4441                	li	s0,16
    80000842:	a841                	j	800008d2 <.LBB13_43+0x2>

0000000080000844 <.LBB13_26>:
    80000844:	84d2                	mv	s1,s4
      if ((p = va_arg(ap, char *)) == NULL)
    80000846:	000a3403          	ld	s0,0(s4)
    8000084a:	e409                	bnez	s0,80000854 <.LBB13_64+0x8>

000000008000084c <.LBB13_64>:
    8000084c:	00001417          	auipc	s0,0x1
    80000850:	1bc40413          	addi	s0,s0,444 # 80001a08 <.LJTI15_0+0x2d8>
      if (width > 0 && padc != '-')
    80000854:	0009051b          	sext.w	a0,s2
    80000858:	00152513          	slti	a0,a0,1
    8000085c:	0ff87a13          	zext.b	s4,a6
    80000860:	fd3a0593          	addi	a1,s4,-45
    80000864:	0015b593          	seqz	a1,a1
    80000868:	8d4d                	or	a0,a0,a1
    8000086a:	ed15                	bnez	a0,800008a6 <.LBB13_64+0x5a>
        for (width -= strnlen(p, precision); width > 0; width--)
    8000086c:	000c859b          	sext.w	a1,s9
    80000870:	8522                	mv	a0,s0
}

size_t strnlen(const char *s, size_t n)
{
  const char *p = s;
  while (n-- && *p)
    80000872:	c999                	beqz	a1,80000888 <.LBB13_64+0x3c>
    80000874:	00b40633          	add	a2,s0,a1
    80000878:	8522                	mv	a0,s0
    8000087a:	00054683          	lbu	a3,0(a0)
    8000087e:	c689                	beqz	a3,80000888 <.LBB13_64+0x3c>
    80000880:	15fd                	addi	a1,a1,-1
    p++;
    80000882:	0505                	addi	a0,a0,1
  while (n-- && *p)
    80000884:	f9fd                	bnez	a1,8000087a <.LBB13_64+0x2e>
    80000886:	8532                	mv	a0,a2
  return p - s;
    80000888:	40a4053b          	subw	a0,s0,a0
        for (width -= strnlen(p, precision); width > 0; width--)
    8000088c:	00a9093b          	addw	s2,s2,a0
    80000890:	01205b63          	blez	s2,800008a6 <.LBB13_64+0x5a>
          putch(padc, putdat);
    80000894:	8552                	mv	a0,s4
    80000896:	85d6                	mv	a1,s5
    80000898:	9d02                	jalr	s10
        for (width -= strnlen(p, precision); width > 0; width--)
    8000089a:	0009051b          	sext.w	a0,s2
    8000089e:	397d                	addiw	s2,s2,-1
    800008a0:	feabcae3          	blt	s7,a0,80000894 <.LBB13_64+0x48>
    800008a4:	4901                	li	s2,0
      for (; (ch = *p) != '\0' && (precision < 0 || --precision >= 0); width--) {
    800008a6:	00044503          	lbu	a0,0(s0)
    800008aa:	c54d                	beqz	a0,80000954 <.LBB13_43+0x84>
    800008ac:	0405                	addi	s0,s0,1
    800008ae:	a811                	j	800008c2 <.LBB13_64+0x76>
    800008b0:	0ff57513          	zext.b	a0,a0
        putch(ch, putdat);
    800008b4:	85d6                	mv	a1,s5
    800008b6:	9d02                	jalr	s10
      for (; (ch = *p) != '\0' && (precision < 0 || --precision >= 0); width--) {
    800008b8:	00044503          	lbu	a0,0(s0)
    800008bc:	397d                	addiw	s2,s2,-1
    800008be:	0405                	addi	s0,s0,1
    800008c0:	c951                	beqz	a0,80000954 <.LBB13_43+0x84>
    800008c2:	000c859b          	sext.w	a1,s9
    800008c6:	fe05c5e3          	bltz	a1,800008b0 <.LBB13_64+0x64>
    800008ca:	c5c9                	beqz	a1,80000954 <.LBB13_43+0x84>
    800008cc:	3cfd                	addiw	s9,s9,-1
    800008ce:	b7cd                	j	800008b0 <.LBB13_64+0x64>

00000000800008d0 <.LBB13_43>:
    800008d0:	4429                	li	s0,10
  if (lflag >= 2)
    800008d2:	2501                	sext.w	a0,a0
    800008d4:	4589                	li	a1,2
    800008d6:	00b55363          	bge	a0,a1,800008dc <.LBB13_43+0xc>
  else if (lflag)
    800008da:	cd41                	beqz	a0,80000972 <.LBB13_43+0xa2>
    800008dc:	8cd2                	mv	s9,s4
    800008de:	000a3483          	ld	s1,0(s4)
    digs[pos++] = num % base;
    800008e2:	0284f533          	remu	a0,s1,s0
    800008e6:	c42a                	sw	a0,8(sp)
    800008e8:	4505                	li	a0,1
    if (num < base)
    800008ea:	0084ed63          	bltu	s1,s0,80000904 <.LBB13_43+0x34>
    800008ee:	4505                	li	a0,1
    800008f0:	006c                	addi	a1,sp,12
    num /= base;
    800008f2:	0284d4b3          	divu	s1,s1,s0
    digs[pos++] = num % base;
    800008f6:	0284f633          	remu	a2,s1,s0
    800008fa:	0505                	addi	a0,a0,1
    800008fc:	c190                	sw	a2,0(a1)
    if (num < base)
    800008fe:	0591                	addi	a1,a1,4
    80000900:	fe84f9e3          	bgeu	s1,s0,800008f2 <.LBB13_43+0x22>
  while (width-- > pos)
    80000904:	0009059b          	sext.w	a1,s2
    80000908:	0005049b          	sext.w	s1,a0
    8000090c:	00b4da63          	bge	s1,a1,80000920 <.LBB13_43+0x50>
    80000910:	0ff87413          	zext.b	s0,a6
    80000914:	397d                	addiw	s2,s2,-1
    putch(padc, putdat);
    80000916:	8522                	mv	a0,s0
    80000918:	85d6                	mv	a1,s5
    8000091a:	9d02                	jalr	s10
  while (width-- > pos)
    8000091c:	ff24cce3          	blt	s1,s2,80000914 <.LBB13_43+0x44>
    80000920:	0ca1                	addi	s9,s9,8
  while (pos-- > 0)
    80000922:	00148413          	addi	s0,s1,1
    80000926:	00249513          	slli	a0,s1,0x2
    8000092a:	004c                	addi	a1,sp,4
    8000092c:	00a584b3          	add	s1,a1,a0
    80000930:	a801                	j	80000940 <.LBB13_43+0x70>
    putch(digs[pos] + (digs[pos] >= 10 ? 'a' - 10 : '0'), putdat);
    80000932:	9d2d                	addw	a0,a0,a1
    80000934:	85d6                	mv	a1,s5
    80000936:	9d02                	jalr	s10
  while (pos-- > 0)
    80000938:	147d                	addi	s0,s0,-1
    8000093a:	14f1                	addi	s1,s1,-4
    8000093c:	008bda63          	bge	s7,s0,80000950 <.LBB13_43+0x80>
    putch(digs[pos] + (digs[pos] >= 10 ? 'a' - 10 : '0'), putdat);
    80000940:	4088                	lw	a0,0(s1)
    80000942:	05700593          	li	a1,87
    80000946:	feab66e3          	bltu	s6,a0,80000932 <.LBB13_43+0x62>
    8000094a:	03000593          	li	a1,48
    8000094e:	b7d5                	j	80000932 <.LBB13_43+0x62>
    80000950:	84e6                	mv	s1,s9
    80000952:	b3cd                	j	80000734 <.LBB13_63+0x10>
      for (; width > 0; width--)
    80000954:	0009051b          	sext.w	a0,s2
    80000958:	04a1                	addi	s1,s1,8
    8000095a:	dca05de3          	blez	a0,80000734 <.LBB13_63+0x10>
        putch(' ', putdat);
    8000095e:	02000513          	li	a0,32
    80000962:	85d6                	mv	a1,s5
    80000964:	9d02                	jalr	s10
      for (; width > 0; width--)
    80000966:	0009051b          	sext.w	a0,s2
    8000096a:	397d                	addiw	s2,s2,-1
    8000096c:	feabc9e3          	blt	s7,a0,8000095e <.LBB13_43+0x8e>
    80000970:	b3d1                	j	80000734 <.LBB13_63+0x10>
    80000972:	8cd2                	mv	s9,s4
    return va_arg(*ap, unsigned int);
    80000974:	000a6483          	lwu	s1,0(s4)
    80000978:	b7ad                	j	800008e2 <.LBB13_43+0x12>
    8000097a:	8cd2                	mv	s9,s4
    return va_arg(*ap, int);
    8000097c:	000a2483          	lw	s1,0(s4)
    80000980:	4429                	li	s0,10
    80000982:	f604d0e3          	bgez	s1,800008e2 <.LBB13_43+0x12>
    80000986:	b579                	j	80000814 <.LBB13_19+0x18>
}
    80000988:	6db2                	ld	s11,264(sp)
    8000098a:	6d52                	ld	s10,272(sp)
    8000098c:	6cf2                	ld	s9,280(sp)
    8000098e:	7c12                	ld	s8,288(sp)
    80000990:	7bb2                	ld	s7,296(sp)
    80000992:	7b52                	ld	s6,304(sp)
    80000994:	7af2                	ld	s5,312(sp)
    80000996:	6a16                	ld	s4,320(sp)
    80000998:	69b6                	ld	s3,328(sp)
    8000099a:	6956                	ld	s2,336(sp)
    8000099c:	64f6                	ld	s1,344(sp)
    8000099e:	7416                	ld	s0,352(sp)
    800009a0:	70b6                	ld	ra,360(sp)
    800009a2:	6175                	addi	sp,sp,368
    800009a4:	8082                	ret

00000000800009a6 <sprintf_putch>:
  **pstr = ch;
    800009a6:	6190                	ld	a2,0(a1)
    800009a8:	00a60023          	sb	a0,0(a2)
  (*pstr)++;
    800009ac:	6188                	ld	a0,0(a1)
    800009ae:	0505                	addi	a0,a0,1
    800009b0:	e188                	sd	a0,0(a1)
}
    800009b2:	8082                	ret

00000000800009b4 <sprintf>:
{
    800009b4:	7109                	addi	sp,sp,-384
    800009b6:	e6a2                	sd	s0,328(sp)
    800009b8:	e2a6                	sd	s1,320(sp)
    800009ba:	fe4a                	sd	s2,312(sp)
    800009bc:	fa4e                	sd	s3,304(sp)
    800009be:	f652                	sd	s4,296(sp)
    800009c0:	f256                	sd	s5,288(sp)
    800009c2:	ee5a                	sd	s6,280(sp)
    800009c4:	ea5e                	sd	s7,272(sp)
    800009c6:	e662                	sd	s8,264(sp)
    800009c8:	fec6                	sd	a7,376(sp)
    800009ca:	fac2                	sd	a6,368(sp)
    800009cc:	f6be                	sd	a5,360(sp)
    800009ce:	f2ba                	sd	a4,352(sp)
    800009d0:	eeb6                	sd	a3,344(sp)
    800009d2:	eab2                	sd	a2,336(sp)
    800009d4:	15010e93          	addi	t4,sp,336
  va_start(ap, fmt);
    800009d8:	e076                	sd	t4,0(sp)
  while (1) {
    800009da:	40a002b3          	neg	t0,a0
    800009de:	00c10813          	addi	a6,sp,12
    800009e2:	00410893          	addi	a7,sp,4
    800009e6:	02500b13          	li	s6,37
    800009ea:	05500313          	li	t1,85
    800009ee:	4a29                	li	s4,10
    800009f0:	4c25                	li	s8,9
    800009f2:	4389                	li	t2,2
    800009f4:	02d00e13          	li	t3,45
    800009f8:	4985                	li	s3,1
    800009fa:	03000f13          	li	t5,48
    800009fe:	07800f93          	li	t6,120
    80000a02:	02000913          	li	s2,32
    while ((ch = *(unsigned char *) fmt) != '%') {
    80000a06:	00a286b3          	add	a3,t0,a0
    80000a0a:	00158613          	addi	a2,a1,1
    80000a0e:	fff64583          	lbu	a1,-1(a2)
    80000a12:	22058663          	beqz	a1,80000c3e <.LBB15_43+0xa2>
    80000a16:	01658b63          	beq	a1,s6,80000a2c <sprintf+0x78>
  **pstr = ch;
    80000a1a:	00b50023          	sb	a1,0(a0)
  (*pstr)++;
    80000a1e:	0505                	addi	a0,a0,1
    while ((ch = *(unsigned char *) fmt) != '%') {
    80000a20:	0685                	addi	a3,a3,1
    80000a22:	0605                	addi	a2,a2,1
    80000a24:	fff64583          	lbu	a1,-1(a2)
    80000a28:	f5fd                	bnez	a1,80000a16 <sprintf+0x62>
    80000a2a:	ac11                	j	80000c3e <.LBB15_43+0xa2>
    80000a2c:	4a81                	li	s5,0
    80000a2e:	02000b93          	li	s7,32
    80000a32:	54fd                	li	s1,-1
    80000a34:	577d                	li	a4,-1
    80000a36:	85b2                	mv	a1,a2

0000000080000a38 <.LBB15_5>:
    80000a38:	86ae                	mv	a3,a1
    switch (ch = *(unsigned char *) fmt++) {
    80000a3a:	0005c403          	lbu	s0,0(a1)
    80000a3e:	fdd40593          	addi	a1,s0,-35
    80000a42:	06b36763          	bltu	t1,a1,80000ab0 <.LBB15_16>
    80000a46:	058e                	slli	a1,a1,0x3

0000000080000a48 <.LBB15_60>:
    80000a48:	00001797          	auipc	a5,0x1
    80000a4c:	ce878793          	addi	a5,a5,-792 # 80001730 <.LJTI15_0>
    80000a50:	95be                	add	a1,a1,a5
    80000a52:	619c                	ld	a5,0(a1)
    80000a54:	00168593          	addi	a1,a3,1
    80000a58:	8782                	jr	a5

0000000080000a5a <.LBB15_7>:
    80000a5a:	4481                	li	s1,0
    80000a5c:	0ff47593          	zext.b	a1,s0
        ch = *fmt;
    80000a60:	0016c403          	lbu	s0,1(a3)
    80000a64:	0685                	addi	a3,a3,1
        precision = precision * 10 + ch - '0';
    80000a66:	034487bb          	mulw	a5,s1,s4
    80000a6a:	9dbd                	addw	a1,a1,a5
        if (ch < '0' || ch > '9')
    80000a6c:	fd040793          	addi	a5,s0,-48
    80000a70:	0ff7f793          	zext.b	a5,a5
        precision = precision * 10 + ch - '0';
    80000a74:	fd05849b          	addiw	s1,a1,-48
        if (ch < '0' || ch > '9')
    80000a78:	fefc72e3          	bgeu	s8,a5,80000a5c <.LBB15_7+0x2>
    80000a7c:	85b6                	mv	a1,a3
      if (width < 0)
    80000a7e:	0007069b          	sext.w	a3,a4
    80000a82:	fa06dbe3          	bgez	a3,80000a38 <.LBB15_5>
    80000a86:	8726                	mv	a4,s1
    80000a88:	54fd                	li	s1,-1
    80000a8a:	b77d                	j	80000a38 <.LBB15_5>

0000000080000a8c <.LBB15_11>:
    80000a8c:	8ba2                	mv	s7,s0
    80000a8e:	b76d                	j	80000a38 <.LBB15_5>

0000000080000a90 <.LBB15_12>:
      precision = va_arg(ap, int);
    80000a90:	000ee483          	lwu	s1,0(t4)
    80000a94:	0ea1                	addi	t4,t4,8
      if (width < 0)
    80000a96:	0007069b          	sext.w	a3,a4
    80000a9a:	f806dfe3          	bgez	a3,80000a38 <.LBB15_5>
    80000a9e:	b7e5                	j	80000a86 <.LBB15_7+0x2c>

0000000080000aa0 <.LBB15_13>:
      if (width < 0)
    80000aa0:	0007069b          	sext.w	a3,a4
    80000aa4:	f8d04ae3          	bgtz	a3,80000a38 <.LBB15_5>
    80000aa8:	4701                	li	a4,0
    80000aaa:	b779                	j	80000a38 <.LBB15_5>

0000000080000aac <.LBB15_15>:
      lflag++;
    80000aac:	2a85                	addiw	s5,s5,1
    80000aae:	b769                	j	80000a38 <.LBB15_5>

0000000080000ab0 <.LBB15_16>:
  **pstr = ch;
    80000ab0:	01650023          	sb	s6,0(a0)
      break;
    80000ab4:	0505                	addi	a0,a0,1
    80000ab6:	85b2                	mv	a1,a2
    80000ab8:	b7b9                	j	80000a06 <sprintf+0x52>

0000000080000aba <.LBB15_17>:
  **pstr = ch;
    80000aba:	01650023          	sb	s6,0(a0)
      break;
    80000abe:	0505                	addi	a0,a0,1
    80000ac0:	b799                	j	80000a06 <sprintf+0x52>

0000000080000ac2 <.LBB15_18>:
      putch(va_arg(ap, int), putdat);
    80000ac2:	000e8603          	lb	a2,0(t4)
    80000ac6:	0ea1                	addi	t4,t4,8
  **pstr = ch;
    80000ac8:	00c50023          	sb	a2,0(a0)
      break;
    80000acc:	0505                	addi	a0,a0,1
    80000ace:	bf25                	j	80000a06 <sprintf+0x52>

0000000080000ad0 <.LBB15_19>:
  if (lflag >= 2)
    80000ad0:	000a861b          	sext.w	a2,s5
    80000ad4:	00765463          	bge	a2,t2,80000adc <.LBB15_19+0xc>
    80000ad8:	14060d63          	beqz	a2,80000c32 <.LBB15_43+0x96>
    80000adc:	000eb483          	ld	s1,0(t4)
    80000ae0:	4629                	li	a2,10
    80000ae2:	0c04d563          	bgez	s1,80000bac <.LBB15_43+0x10>
  **pstr = ch;
    80000ae6:	01c50023          	sb	t3,0(a0)
        num = -(long long) num;
    80000aea:	0505                	addi	a0,a0,1
    80000aec:	409004b3          	neg	s1,s1
    80000af0:	a875                	j	80000bac <.LBB15_43+0x10>

0000000080000af2 <.LBB15_23>:
    80000af2:	4621                	li	a2,8
  if (lflag >= 2)
    80000af4:	000a869b          	sext.w	a3,s5
    80000af8:	0a76c763          	blt	a3,t2,80000ba6 <.LBB15_43+0xa>
    80000afc:	a075                	j	80000ba8 <.LBB15_43+0xc>

0000000080000afe <.LBB15_24>:
  **pstr = ch;
    80000afe:	01e50023          	sb	t5,0(a0)
    80000b02:	01f500a3          	sb	t6,1(a0)
      putch('x', putdat);
    80000b06:	0509                	addi	a0,a0,2
    80000b08:	4a85                	li	s5,1

0000000080000b0a <.LBB15_25>:
    80000b0a:	4641                	li	a2,16
  if (lflag >= 2)
    80000b0c:	000a869b          	sext.w	a3,s5
    80000b10:	0876cb63          	blt	a3,t2,80000ba6 <.LBB15_43+0xa>
    80000b14:	a851                	j	80000ba8 <.LBB15_43+0xc>

0000000080000b16 <.LBB15_26>:
      if ((p = va_arg(ap, char *)) == NULL)
    80000b16:	000eb603          	ld	a2,0(t4)
    80000b1a:	e609                	bnez	a2,80000b24 <.LBB15_61+0x8>

0000000080000b1c <.LBB15_61>:
    80000b1c:	00001617          	auipc	a2,0x1
    80000b20:	eec60613          	addi	a2,a2,-276 # 80001a08 <.LJTI15_0+0x2d8>
      if (width > 0 && padc != '-')
    80000b24:	0007069b          	sext.w	a3,a4
    80000b28:	0016a693          	slti	a3,a3,1
    80000b2c:	0ffbf793          	zext.b	a5,s7
    80000b30:	fd378793          	addi	a5,a5,-45
    80000b34:	0017b793          	seqz	a5,a5
    80000b38:	8edd                	or	a3,a3,a5
    80000b3a:	ee8d                	bnez	a3,80000b74 <.LBB15_61+0x58>
        for (width -= strnlen(p, precision); width > 0; width--)
    80000b3c:	0004841b          	sext.w	s0,s1
    80000b40:	86b2                	mv	a3,a2
  while (n-- && *p)
    80000b42:	c819                	beqz	s0,80000b58 <.LBB15_61+0x3c>
    80000b44:	00860ab3          	add	s5,a2,s0
    80000b48:	86b2                	mv	a3,a2
    80000b4a:	0006c783          	lbu	a5,0(a3)
    80000b4e:	c789                	beqz	a5,80000b58 <.LBB15_61+0x3c>
    80000b50:	147d                	addi	s0,s0,-1
    p++;
    80000b52:	0685                	addi	a3,a3,1
  while (n-- && *p)
    80000b54:	f87d                	bnez	s0,80000b4a <.LBB15_61+0x2e>
    80000b56:	86d6                	mv	a3,s5
  return p - s;
    80000b58:	40d606bb          	subw	a3,a2,a3
        for (width -= strnlen(p, precision); width > 0; width--)
    80000b5c:	9f35                	addw	a4,a4,a3
    80000b5e:	00e05b63          	blez	a4,80000b74 <.LBB15_61+0x58>
  **pstr = ch;
    80000b62:	01750023          	sb	s7,0(a0)
        for (width -= strnlen(p, precision); width > 0; width--)
    80000b66:	0007069b          	sext.w	a3,a4
    80000b6a:	377d                	addiw	a4,a4,-1
  (*pstr)++;
    80000b6c:	0505                	addi	a0,a0,1
        for (width -= strnlen(p, precision); width > 0; width--)
    80000b6e:	fed9cae3          	blt	s3,a3,80000b62 <.LBB15_61+0x46>
    80000b72:	4701                	li	a4,0
      for (; (ch = *p) != '\0' && (precision < 0 || --precision >= 0); width--) {
    80000b74:	00064403          	lbu	s0,0(a2)
    80000b78:	cc41                	beqz	s0,80000c10 <.LBB15_43+0x74>
    80000b7a:	0605                	addi	a2,a2,1
    80000b7c:	a809                	j	80000b8e <.LBB15_61+0x72>
  **pstr = ch;
    80000b7e:	00850023          	sb	s0,0(a0)
      for (; (ch = *p) != '\0' && (precision < 0 || --precision >= 0); width--) {
    80000b82:	00064403          	lbu	s0,0(a2)
  (*pstr)++;
    80000b86:	0505                	addi	a0,a0,1
      for (; (ch = *p) != '\0' && (precision < 0 || --precision >= 0); width--) {
    80000b88:	377d                	addiw	a4,a4,-1
    80000b8a:	0605                	addi	a2,a2,1
    80000b8c:	c051                	beqz	s0,80000c10 <.LBB15_43+0x74>
    80000b8e:	0004869b          	sext.w	a3,s1
    80000b92:	fe06c6e3          	bltz	a3,80000b7e <.LBB15_61+0x62>
    80000b96:	cead                	beqz	a3,80000c10 <.LBB15_43+0x74>
    80000b98:	34fd                	addiw	s1,s1,-1
    80000b9a:	b7d5                	j	80000b7e <.LBB15_61+0x62>

0000000080000b9c <.LBB15_43>:
    80000b9c:	4629                	li	a2,10
  if (lflag >= 2)
    80000b9e:	000a869b          	sext.w	a3,s5
    80000ba2:	0076d363          	bge	a3,t2,80000ba8 <.LBB15_43+0xc>
  else if (lflag)
    80000ba6:	c2d9                	beqz	a3,80000c2c <.LBB15_43+0x90>
    80000ba8:	000eb483          	ld	s1,0(t4)
    digs[pos++] = num % base;
    80000bac:	02c4f6b3          	remu	a3,s1,a2
    80000bb0:	c436                	sw	a3,8(sp)
    80000bb2:	4685                	li	a3,1
    80000bb4:	00c4ed63          	bltu	s1,a2,80000bce <.LBB15_43+0x32>
    80000bb8:	4685                	li	a3,1
    80000bba:	8442                	mv	s0,a6
    num /= base;
    80000bbc:	02c4d4b3          	divu	s1,s1,a2
    digs[pos++] = num % base;
    80000bc0:	02c4f7b3          	remu	a5,s1,a2
    80000bc4:	0685                	addi	a3,a3,1
    80000bc6:	c01c                	sw	a5,0(s0)
    if (num < base)
    80000bc8:	0411                	addi	s0,s0,4
    80000bca:	fec4f9e3          	bgeu	s1,a2,80000bbc <.LBB15_43+0x20>
  while (width-- > pos)
    80000bce:	0007061b          	sext.w	a2,a4
    80000bd2:	2681                	sext.w	a3,a3
    80000bd4:	00c6d863          	bge	a3,a2,80000be4 <.LBB15_43+0x48>
    80000bd8:	377d                	addiw	a4,a4,-1
  **pstr = ch;
    80000bda:	01750023          	sb	s7,0(a0)
  (*pstr)++;
    80000bde:	0505                	addi	a0,a0,1
    80000be0:	fee6cce3          	blt	a3,a4,80000bd8 <.LBB15_43+0x3c>
    80000be4:	0ea1                	addi	t4,t4,8
  while (pos-- > 0)
    80000be6:	00168613          	addi	a2,a3,1
    80000bea:	068a                	slli	a3,a3,0x2
    80000bec:	96c6                	add	a3,a3,a7
    80000bee:	a809                	j	80000c00 <.LBB15_43+0x64>
    putch(digs[pos] + (digs[pos] >= 10 ? 'a' - 10 : '0'), putdat);
    80000bf0:	9f21                	addw	a4,a4,s0
  **pstr = ch;
    80000bf2:	00e50023          	sb	a4,0(a0)
  (*pstr)++;
    80000bf6:	0505                	addi	a0,a0,1
  while (pos-- > 0)
    80000bf8:	167d                	addi	a2,a2,-1
    80000bfa:	16f1                	addi	a3,a3,-4
    80000bfc:	e0c9d5e3          	bge	s3,a2,80000a06 <sprintf+0x52>
    putch(digs[pos] + (digs[pos] >= 10 ? 'a' - 10 : '0'), putdat);
    80000c00:	4298                	lw	a4,0(a3)
    80000c02:	05700413          	li	s0,87
    80000c06:	feec65e3          	bltu	s8,a4,80000bf0 <.LBB15_43+0x54>
    80000c0a:	03000413          	li	s0,48
    80000c0e:	b7cd                	j	80000bf0 <.LBB15_43+0x54>
      for (; width > 0; width--)
    80000c10:	0007061b          	sext.w	a2,a4
    80000c14:	0ea1                	addi	t4,t4,8
    80000c16:	dec058e3          	blez	a2,80000a06 <sprintf+0x52>
  **pstr = ch;
    80000c1a:	01250023          	sb	s2,0(a0)
      for (; width > 0; width--)
    80000c1e:	0007061b          	sext.w	a2,a4
    80000c22:	377d                	addiw	a4,a4,-1
  (*pstr)++;
    80000c24:	0505                	addi	a0,a0,1
      for (; width > 0; width--)
    80000c26:	fec9cae3          	blt	s3,a2,80000c1a <.LBB15_43+0x7e>
    80000c2a:	bbf1                	j	80000a06 <sprintf+0x52>
    return va_arg(*ap, unsigned int);
    80000c2c:	000ee483          	lwu	s1,0(t4)
    80000c30:	bfb5                	j	80000bac <.LBB15_43+0x10>
    return va_arg(*ap, int);
    80000c32:	000ea483          	lw	s1,0(t4)
    80000c36:	4629                	li	a2,10
    80000c38:	f604dae3          	bgez	s1,80000bac <.LBB15_43+0x10>
    80000c3c:	b56d                	j	80000ae6 <.LBB15_19+0x16>
  return str - str0;
    80000c3e:	0006859b          	sext.w	a1,a3
  *str = 0;
    80000c42:	00050023          	sb	zero,0(a0)
  return str - str0;
    80000c46:	852e                	mv	a0,a1
    80000c48:	6c32                	ld	s8,264(sp)
    80000c4a:	6bd2                	ld	s7,272(sp)
    80000c4c:	6b72                	ld	s6,280(sp)
    80000c4e:	7a92                	ld	s5,288(sp)
    80000c50:	7a32                	ld	s4,296(sp)
    80000c52:	79d2                	ld	s3,304(sp)
    80000c54:	7972                	ld	s2,312(sp)
    80000c56:	6496                	ld	s1,320(sp)
    80000c58:	6436                	ld	s0,328(sp)
    80000c5a:	6119                	addi	sp,sp,384
    80000c5c:	8082                	ret

0000000080000c5e <memcpy>:
  if ((((uintptr_t)dest | (uintptr_t)src | len) & (sizeof(uintptr_t)-1)) == 0) {
    80000c5e:	00a5e6b3          	or	a3,a1,a0
    80000c62:	8ed1                	or	a3,a3,a2
    80000c64:	0076f713          	andi	a4,a3,7
    80000c68:	00c506b3          	add	a3,a0,a2
    80000c6c:	cf19                	beqz	a4,80000c8a <memcpy+0x2c>
    while (d < (char*)(dest + len))
    80000c6e:	02d57963          	bgeu	a0,a3,80000ca0 <memcpy+0x42>
    80000c72:	86aa                	mv	a3,a0
      *d++ = *s++;
    80000c74:	00058703          	lb	a4,0(a1)
    80000c78:	0585                	addi	a1,a1,1
    80000c7a:	00168793          	addi	a5,a3,1
    while (d < (char*)(dest + len))
    80000c7e:	167d                	addi	a2,a2,-1
      *d++ = *s++;
    80000c80:	00e68023          	sb	a4,0(a3)
    80000c84:	86be                	mv	a3,a5
    80000c86:	f67d                	bnez	a2,80000c74 <memcpy+0x16>
    80000c88:	a821                	j	80000ca0 <memcpy+0x42>
    while (d < (uintptr_t*)(dest + len))
    80000c8a:	00d57b63          	bgeu	a0,a3,80000ca0 <memcpy+0x42>
    80000c8e:	862a                	mv	a2,a0
      *d++ = *s++;
    80000c90:	6198                	ld	a4,0(a1)
    80000c92:	05a1                	addi	a1,a1,8
    80000c94:	00860793          	addi	a5,a2,8
    80000c98:	e218                	sd	a4,0(a2)
    80000c9a:	863e                	mv	a2,a5
    while (d < (uintptr_t*)(dest + len))
    80000c9c:	fed7eae3          	bltu	a5,a3,80000c90 <memcpy+0x32>
  return dest;
    80000ca0:	8082                	ret

0000000080000ca2 <memset>:
  if ((((uintptr_t)dest | len) & (sizeof(uintptr_t)-1)) == 0) {
    80000ca2:	00c566b3          	or	a3,a0,a2
    80000ca6:	8a9d                	andi	a3,a3,7
    80000ca8:	ce91                	beqz	a3,80000cc4 <memset+0x22>
    80000caa:	00c506b3          	add	a3,a0,a2
    while (d < (char*)(dest + len))
    80000cae:	04d57263          	bgeu	a0,a3,80000cf2 <memset+0x50>
    80000cb2:	86aa                	mv	a3,a0
      *d++ = byte;
    80000cb4:	00168713          	addi	a4,a3,1
    while (d < (char*)(dest + len))
    80000cb8:	167d                	addi	a2,a2,-1
      *d++ = byte;
    80000cba:	00b68023          	sb	a1,0(a3)
    80000cbe:	86ba                	mv	a3,a4
    80000cc0:	fa75                	bnez	a2,80000cb4 <memset+0x12>
    80000cc2:	a805                	j	80000cf2 <memset+0x50>
    80000cc4:	962a                	add	a2,a2,a0
    while (d < (uintptr_t*)(dest + len))
    80000cc6:	02c57663          	bgeu	a0,a2,80000cf2 <memset+0x50>
    80000cca:	0ff5f593          	zext.b	a1,a1
    80000cce:	00859693          	slli	a3,a1,0x8
    80000cd2:	8dd5                	or	a1,a1,a3
    80000cd4:	100016b7          	lui	a3,0x10001
    80000cd8:	0692                	slli	a3,a3,0x4
    80000cda:	0685                	addi	a3,a3,1 # 10001001 <.Lline_table_start0+0xffff96f>
    80000cdc:	06c2                	slli	a3,a3,0x10
    80000cde:	0685                	addi	a3,a3,1
    80000ce0:	02d585b3          	mul	a1,a1,a3
    80000ce4:	86aa                	mv	a3,a0
      *d++ = word;
    80000ce6:	00868713          	addi	a4,a3,8
    80000cea:	e28c                	sd	a1,0(a3)
    80000cec:	86ba                	mv	a3,a4
    while (d < (uintptr_t*)(dest + len))
    80000cee:	fec76ce3          	bltu	a4,a2,80000ce6 <memset+0x44>
  return dest;
    80000cf2:	8082                	ret

0000000080000cf4 <strnlen>:
{
    80000cf4:	862a                	mv	a2,a0
  while (n-- && *p)
    80000cf6:	c999                	beqz	a1,80000d0c <strnlen+0x18>
    80000cf8:	00b506b3          	add	a3,a0,a1
    80000cfc:	862a                	mv	a2,a0
    80000cfe:	00064703          	lbu	a4,0(a2)
    80000d02:	c709                	beqz	a4,80000d0c <strnlen+0x18>
    80000d04:	15fd                	addi	a1,a1,-1
    p++;
    80000d06:	0605                	addi	a2,a2,1
  while (n-- && *p)
    80000d08:	f9fd                	bnez	a1,80000cfe <strnlen+0xa>
    80000d0a:	8636                	mv	a2,a3
  return p - s;
    80000d0c:	40a60533          	sub	a0,a2,a0
    80000d10:	8082                	ret

0000000080000d12 <strcmp>:
int strcmp(const char* s1, const char* s2)
{
  unsigned char c1, c2;

  do {
    c1 = *s1++;
    80000d12:	00054603          	lbu	a2,0(a0)
    c2 = *s2++;
    80000d16:	0005c683          	lbu	a3,0(a1)
    c1 = *s1++;
    80000d1a:	0505                	addi	a0,a0,1
    c2 = *s2++;
    80000d1c:	0585                	addi	a1,a1,1
  } while (c1 != 0 && c1 == c2);
    80000d1e:	00c03733          	snez	a4,a2
    80000d22:	00d647b3          	xor	a5,a2,a3
    80000d26:	0017b793          	seqz	a5,a5
    80000d2a:	8f7d                	and	a4,a4,a5
    80000d2c:	f37d                	bnez	a4,80000d12 <strcmp>

  return c1 - c2;
    80000d2e:	40d60533          	sub	a0,a2,a3
    80000d32:	8082                	ret

0000000080000d34 <strcpy>:
}

char* strcpy(char* dest, const char* src)
{
    80000d34:	4601                	li	a2,0
  char* d = dest;
  while ((*d++ = *src++))
    80000d36:	00c586b3          	add	a3,a1,a2
    80000d3a:	0006c683          	lbu	a3,0(a3)
    80000d3e:	00c50733          	add	a4,a0,a2
    80000d42:	00d70023          	sb	a3,0(a4)
    80000d46:	0605                	addi	a2,a2,1
    80000d48:	f6fd                	bnez	a3,80000d36 <strcpy+0x2>
    ;
  return dest;
    80000d4a:	8082                	ret

0000000080000d4c <atol>:
}

long atol(const char* str)
{
    80000d4c:	02000613          	li	a2,32
  long res = 0;
  int sign = 0;

  while (*str == ' ')
    80000d50:	00054583          	lbu	a1,0(a0)
    80000d54:	00c59763          	bne	a1,a2,80000d62 <atol+0x16>
    str++;
    80000d58:	0505                	addi	a0,a0,1
  while (*str == ' ')
    80000d5a:	00054583          	lbu	a1,0(a0)
    80000d5e:	fec58de3          	beq	a1,a2,80000d58 <atol+0xc>
    80000d62:	02b00613          	li	a2,43
    80000d66:	00c58663          	beq	a1,a2,80000d72 <atol+0x26>
    80000d6a:	02d00613          	li	a2,45
    80000d6e:	02c59d63          	bne	a1,a2,80000da8 <atol+0x5c>

  if (*str == '-' || *str == '+') {
    sign = *str == '-';
    80000d72:	fd358593          	addi	a1,a1,-45
    80000d76:	0015b613          	seqz	a2,a1
    str++;
  }
    80000d7a:	0505                	addi	a0,a0,1

  while (*str) {
    80000d7c:	00054683          	lbu	a3,0(a0)
    80000d80:	ca85                	beqz	a3,80000db0 <atol+0x64>
    80000d82:	4581                	li	a1,0
    80000d84:	0505                	addi	a0,a0,1
    80000d86:	4729                	li	a4,10
    res *= 10;
    res += *str++ - '0';
    80000d88:	0ff6f793          	zext.b	a5,a3
  while (*str) {
    80000d8c:	00054683          	lbu	a3,0(a0)
    res *= 10;
    80000d90:	02e585b3          	mul	a1,a1,a4
    res += *str++ - '0';
    80000d94:	95be                	add	a1,a1,a5
    80000d96:	fd058593          	addi	a1,a1,-48
  while (*str) {
    80000d9a:	0505                	addi	a0,a0,1
    80000d9c:	f6f5                	bnez	a3,80000d88 <atol+0x3c>
  }

  return sign ? -res : res;
    80000d9e:	c219                	beqz	a2,80000da4 <atol+0x58>
    80000da0:	40b005b3          	neg	a1,a1
    80000da4:	852e                	mv	a0,a1
    80000da6:	8082                	ret
    80000da8:	4601                	li	a2,0
  while (*str) {
    80000daa:	00054683          	lbu	a3,0(a0)
    80000dae:	faf1                	bnez	a3,80000d82 <atol+0x36>
    80000db0:	4581                	li	a1,0
  return sign ? -res : res;
    80000db2:	f67d                	bnez	a2,80000da0 <atol+0x54>
    80000db4:	bfc5                	j	80000da4 <atol+0x58>
	...

0000000080000db8 <_close>:
// Provided by linker script
extern char _end;            // end of bss
static char *heap_end;       // current heap pointer

int _close(int fd) {
    (void)fd; return -1;     // no files
    80000db8:	557d                	li	a0,-1
    80000dba:	8082                	ret

0000000080000dbc <_fstat>:
}

int _fstat(int fd, struct stat *st) {
    (void)fd; if (st) { st->st_mode = S_IFCHR; } return 0; // pretend char device
    80000dbc:	c199                	beqz	a1,80000dc2 <_fstat+0x6>
    80000dbe:	6509                	lui	a0,0x2
    80000dc0:	c1c8                	sw	a0,4(a1)
    80000dc2:	4501                	li	a0,0
    80000dc4:	8082                	ret

0000000080000dc6 <_isatty>:
}

int _isatty(int fd) {
    (void)fd; return 1;      // yes, treat as tty
    80000dc6:	4505                	li	a0,1
    80000dc8:	8082                	ret

0000000080000dca <_lseek>:
}

off_t _lseek(int fd, off_t offset, int whence) {
    (void)fd; (void)offset; (void)whence; return 0; // not supported
    80000dca:	4501                	li	a0,0
    80000dcc:	8082                	ret

0000000080000dce <_open>:
}

int _open(const char *path, int flags, int mode) {
    (void)path; (void)flags; (void)mode; return -1; // fail
    80000dce:	557d                	li	a0,-1
    80000dd0:	8082                	ret

0000000080000dd2 <_read>:
}

int _read(int fd, void *buf, size_t cnt) {
    (void)fd; (void)buf; (void)cnt; return 0; // EOF
    80000dd2:	4501                	li	a0,0
    80000dd4:	8082                	ret

0000000080000dd6 <_sbrk>:
}

// Simple bump allocator. NOT thread-safe. No heap limit enforcement besides arbitrary max.
void* _sbrk(ptrdiff_t incr) {
    if (heap_end == 0) heap_end = &_end;
    80000dd6:	00001617          	auipc	a2,0x1
    80000dda:	2fa60613          	addi	a2,a2,762 # 800020d0 <heap_end>
    80000dde:	620c                	ld	a1,0(a2)
    80000de0:	e591                	bnez	a1,80000dec <.LBB6_4+0xa>

0000000080000de2 <.LBB6_4>:
    80000de2:	0013f597          	auipc	a1,0x13f
    80000de6:	21e58593          	addi	a1,a1,542 # 80140000 <_end>
    80000dea:	e20c                	sd	a1,0(a2)
    char *prev = heap_end;
    80000dec:	620c                	ld	a1,0(a2)
    heap_end += incr;
    80000dee:	952e                	add	a0,a0,a1
    80000df0:	e208                	sd	a0,0(a2)
    return prev; // no out-of-memory check
    80000df2:	852e                	mv	a0,a1
    80000df4:	8082                	ret

0000000080000df6 <_write>:
}

int _write(int fd, const void *buf, size_t cnt) {
    80000df6:	7179                	addi	sp,sp,-48
    // Reuse existing proxy write (putchar based) if available.
    // We declare printstr here weakly to avoid circular deps.
    extern void printstr(const char*) __attribute__((weak));
    if (printstr) {
    80000df8:	f406                	sd	ra,40(sp)
    80000dfa:	f022                	sd	s0,32(sp)
    80000dfc:	ec26                	sd	s1,24(sp)
    80000dfe:	e84a                	sd	s2,16(sp)

0000000080000e00 <.LBB7_5>:
    80000e00:	fffff517          	auipc	a0,0xfffff
    80000e04:	5e850513          	addi	a0,a0,1512 # 800003e8 <printstr>
    80000e08:	8932                	mv	s2,a2
    80000e0a:	c505                	beqz	a0,80000e32 <.LBB7_5+0x32>
        // crude: assume buf is text without NUL, allocate temp with NUL termination
        const char *c = (const char*)buf;
        for (size_t i=0;i<cnt;i++) {
    80000e0c:	02090363          	beqz	s2,80000e32 <.LBB7_5+0x32>
    80000e10:	84ae                	mv	s1,a1
    80000e12:	844a                	mv	s0,s2
            char tmp[2] = { c[i], 0 };
    80000e14:	00048503          	lb	a0,0(s1)
    80000e18:	00a10723          	sb	a0,14(sp)
    80000e1c:	000107a3          	sb	zero,15(sp)
            printstr(tmp);
    80000e20:	00e10513          	addi	a0,sp,14
    80000e24:	fffff097          	auipc	ra,0xfffff
    80000e28:	5c4080e7          	jalr	1476(ra) # 800003e8 <printstr>
        for (size_t i=0;i<cnt;i++) {
    80000e2c:	147d                	addi	s0,s0,-1
    80000e2e:	0485                	addi	s1,s1,1
    80000e30:	f075                	bnez	s0,80000e14 <.LBB7_5+0x14>
        }
    }
    return (int)cnt;
    80000e32:	0009051b          	sext.w	a0,s2
    80000e36:	6942                	ld	s2,16(sp)
    80000e38:	64e2                	ld	s1,24(sp)
    80000e3a:	7402                	ld	s0,32(sp)
    80000e3c:	70a2                	ld	ra,40(sp)
    80000e3e:	6145                	addi	sp,sp,48
    80000e40:	8082                	ret

0000000080000e42 <__errno>:
}

// Optional errno (newlib may look for it)
int *__errno(void) {
    static int e; return &e;
    80000e42:	00001517          	auipc	a0,0x1
    80000e46:	29650513          	addi	a0,a0,662 # 800020d8 <__errno.e>
    80000e4a:	8082                	ret
